

Microchip MPLAB XC8 Assembler V2.36 build 20220127204148 
                                                                                               Sun May 17 18:25:46 2026

Microchip MPLAB XC8 C Compiler v2.36 (Free license) build 20220127204148 Og1 
     1                           	processor	18F25K22
     2                           	fnconf	rparam,??,?,0
     3                           	pagewidth 120
     4                           	opt	flic
     5                           	psect	idataBANK0,global,class=CODE,delta=1,noexec
     6                           	psect	mediumconst,global,reloc=2,class=MEDIUMCONST,delta=1,noexec
     7                           	psect	cinit,global,reloc=2,class=CODE,delta=1
     8                           	psect	bssCOMRAM,global,class=COMRAM,space=1,delta=1,lowdata,noexec
     9                           	psect	bssBANK0,global,class=BANK0,space=1,delta=1,lowdata,noexec
    10                           	psect	dataBANK0,global,class=BANK0,space=1,delta=1,lowdata,noexec
    11                           	psect	cstackBANK0,global,class=BANK0,space=1,delta=1,lowdata,noexec
    12                           	psect	cstackCOMRAM,global,class=COMRAM,space=1,delta=1,lowdata,noexec
    13                           	psect	text0,global,reloc=2,class=CODE,delta=1
    14                           	psect	text1,global,reloc=2,class=CODE,delta=1,group=3
    15                           	psect	text2,global,reloc=2,class=CODE,delta=1,group=1
    16                           	psect	text3,global,reloc=2,class=CODE,delta=1,group=1
    17                           	psect	text4,global,reloc=2,class=CODE,delta=1,group=1
    18                           	psect	text5,global,reloc=2,class=CODE,delta=1,group=1
    19                           	psect	text6,global,reloc=2,class=CODE,delta=1,group=3
    20                           	psect	text7,global,reloc=2,class=CODE,delta=1,group=3
    21                           	psect	text8,global,reloc=2,class=CODE,delta=1,group=3
    22                           	psect	text9,global,reloc=2,class=CODE,delta=1,group=3
    23                           	psect	text10,global,reloc=2,class=CODE,delta=1,group=3
    24                           	psect	text11,global,reloc=2,class=CODE,delta=1,group=2
    25                           	psect	text12,global,reloc=2,class=CODE,delta=1,group=2
    26                           	psect	text13,global,reloc=2,class=CODE,delta=1,group=3
    27                           	psect	text14,global,reloc=2,class=CODE,delta=1,group=3
    28                           	psect	text15,global,reloc=2,class=CODE,delta=1,group=3
    29                           	psect	text16,global,reloc=2,class=CODE,delta=1,group=2
    30                           	psect	text17,global,reloc=2,class=CODE,delta=1
    31                           	psect	text18,global,reloc=2,class=CODE,delta=1
    32                           	psect	text19,global,reloc=2,class=CODE,delta=1
    33                           	psect	text20,global,reloc=2,class=CODE,delta=1
    34                           	psect	text21,global,reloc=2,class=CODE,delta=1
    35                           	psect	text22,global,reloc=2,class=CODE,delta=1,inline
    36                           	psect	text23,global,reloc=2,class=CODE,delta=1
    37                           	psect	text24,global,reloc=2,class=CODE,delta=1
    38                           	psect	text25,global,reloc=2,class=CODE,delta=1
    39                           	psect	text26,global,reloc=2,class=CODE,delta=1
    40                           	psect	text27,global,reloc=2,class=CODE,delta=1
    41                           	psect	text28,global,reloc=2,class=CODE,delta=1
    42                           	psect	text29,global,reloc=2,class=CODE,delta=1
    43                           	psect	text30,global,reloc=2,class=CODE,delta=1
    44                           	psect	text31,global,reloc=2,class=CODE,delta=1
    45                           	psect	text32,global,reloc=2,class=CODE,delta=1
    46                           	psect	text33,global,reloc=2,class=CODE,delta=1
    47                           	psect	text34,global,reloc=2,class=CODE,delta=1
    48                           	psect	text35,global,reloc=2,class=CODE,delta=1,group=2
    49                           	psect	text36,global,reloc=2,class=CODE,delta=1
    50                           	psect	text37,global,reloc=2,class=CODE,delta=1
    51                           	psect	text38,global,reloc=2,class=CODE,delta=1
    52                           	psect	text39,global,reloc=2,class=CODE,delta=1
    53                           	psect	text40,global,reloc=2,class=CODE,delta=1
    54                           	psect	text41,global,reloc=2,class=CODE,delta=1
    55                           	psect	text42,global,reloc=2,class=CODE,delta=1
    56                           	psect	text43,global,reloc=2,class=CODE,delta=1
    57                           	psect	intsave_regs,global,class=BIGRAM,space=1,delta=1,noexec
    58                           	psect	rparam,global,class=COMRAM,space=1,delta=1,noexec
    59                           	psect	idloc,global,abs,ovrld,class=IDLOC,space=5,delta=1,noexec
    60                           	psect	config,global,abs,ovrld,class=CONFIG,space=4,delta=1,noexec
    61  0000                     
    62                           ; Version 2.35
    63                           ; Generated 05/05/2021 GMT
    64                           ; 
    65                           ; Copyright © 2021, Microchip Technology Inc. and its subsidiaries ("Microchip")
    66                           ; All rights reserved.
    67                           ; 
    68                           ; This software is developed by Microchip Technology Inc. and its subsidiaries ("Microch
      +                          ip").
    69                           ; 
    70                           ; Redistribution and use in source and binary forms, with or without modification, are
    71                           ; permitted provided that the following conditions are met:
    72                           ; 
    73                           ;     1. Redistributions of source code must retain the above copyright notice, this lis
      +                          t of
    74                           ;        conditions and the following disclaimer.
    75                           ; 
    76                           ;     2. Redistributions in binary form must reproduce the above copyright notice, this 
      +                          list
    77                           ;        of conditions and the following disclaimer in the documentation and/or other
    78                           ;        materials provided with the distribution. Publication is not required when
    79                           ;        this file is used in an embedded application.
    80                           ; 
    81                           ;     3. Microchip's name may not be used to endorse or promote products derived from th
      +                          is
    82                           ;        software without specific prior written permission.
    83                           ; 
    84                           ; THIS SOFTWARE IS PROVIDED BY MICROCHIP "AS IS" AND ANY EXPRESS OR IMPLIED WARRANTIES,
    85                           ; INCLUDING, BUT NOT LIMITED TO, THE IMPLIED WARRANTIES OF MERCHANTABILITY AND FITNESS F
      +                          OR
    86                           ; PURPOSE ARE DISCLAIMED.  IN NO EVENT SHALL MICROCHIP BE LIABLE FOR ANY DIRECT, INDIREC
      +                          T,
    87                           ; INCIDENTAL, SPECIAL, EXEMPLARY, OR CONSEQUENTIAL DAMAGES (INCLUDING BUT NOT LIMITED TO
    88                           ; PROCUREMENT OF SUBSTITUTE GOODS OR SERVICES; LOSS OF USE, DATA OR PROFITS; OR BUSINESS
    89                           ; INTERRUPTION) HOWSOEVER CAUSED AND ON ANY THEORY OF LIABILITY, WHETHER IN CONTRACT, ST
      +                          RICT
    90                           ; LIABILITY, OR TORT (INCLUDING NEGLIGENCE OR OTHERWISE) ARISING IN ANY WAY OUT OF THE U
      +                          SE OF
    91                           ; THIS SOFTWARE, EVEN IF ADVISED OF THE POSSIBILITY OF SUCH DAMAGE.
    92                           ; 
    93                           ; 
    94                           ; Code-generator required, PIC18F25K22 Definitions
    95                           ; 
    96                           ; SFR Addresses
    97  0000                     
    98                           	psect	idataBANK0
    99  0062F1                     __pidataBANK0:
   100                           	callstack 0
   101                           
   102                           ;initializer for DISPLAY_Initialize@F6752
   103  0062F1  93                 	db	147
   104  0062F2  0F                 	db	15
   105  0062F3  81                 	db	129
   106  0062F4  0F                 	db	15
   107  0062F5  03                 	db	3
   108  0062F6  04                 	db	4
   109  0062F7  05                 	db	5
   110  0062F8  06                 	db	6
   111  0062F9  07                 	db	7
   112                           
   113                           	psect	mediumconst
   114  007DA6                     __pmediumconst:
   115                           	callstack 0
   116  007DA6  00                 	db	0
   117  007DA7                     _FONT_NORMAL:
   118                           	callstack 0
   119  007DA7  00                 	db	0
   120  007DA8  00                 	db	0
   121  007DA9  00                 	db	0
   122  007DAA  00                 	db	0
   123  007DAB  00                 	db	0
   124  007DAC  00                 	db	0
   125  007DAD  00                 	db	0
   126  007DAE  5F                 	db	95
   127  007DAF  00                 	db	0
   128  007DB0  00                 	db	0
   129  007DB1  00                 	db	0
   130  007DB2  07                 	db	7
   131  007DB3  00                 	db	0
   132  007DB4  07                 	db	7
   133  007DB5  00                 	db	0
   134  007DB6  14                 	db	20
   135  007DB7  7F                 	db	127
   136  007DB8  14                 	db	20
   137  007DB9  7F                 	db	127
   138  007DBA  14                 	db	20
   139  007DBB  24                 	db	36
   140  007DBC  2A                 	db	42
   141  007DBD  7F                 	db	127
   142  007DBE  2A                 	db	42
   143  007DBF  12                 	db	18
   144  007DC0  23                 	db	35
   145  007DC1  13                 	db	19
   146  007DC2  08                 	db	8
   147  007DC3  64                 	db	100
   148  007DC4  62                 	db	98
   149  007DC5  36                 	db	54
   150  007DC6  49                 	db	73
   151  007DC7  55                 	db	85
   152  007DC8  22                 	db	34
   153  007DC9  50                 	db	80
   154  007DCA  00                 	db	0
   155  007DCB  05                 	db	5
   156  007DCC  03                 	db	3
   157  007DCD  00                 	db	0
   158  007DCE  00                 	db	0
   159  007DCF  00                 	db	0
   160  007DD0  1C                 	db	28
   161  007DD1  22                 	db	34
   162  007DD2  41                 	db	65
   163  007DD3  00                 	db	0
   164  007DD4  00                 	db	0
   165  007DD5  41                 	db	65
   166  007DD6  22                 	db	34
   167  007DD7  1C                 	db	28
   168  007DD8  00                 	db	0
   169  007DD9  14                 	db	20
   170  007DDA  08                 	db	8
   171  007DDB  3E                 	db	62
   172  007DDC  08                 	db	8
   173  007DDD  14                 	db	20
   174  007DDE  08                 	db	8
   175  007DDF  08                 	db	8
   176  007DE0  3E                 	db	62
   177  007DE1  08                 	db	8
   178  007DE2  08                 	db	8
   179  007DE3  00                 	db	0
   180  007DE4  50                 	db	80
   181  007DE5  30                 	db	48
   182  007DE6  00                 	db	0
   183  007DE7  00                 	db	0
   184  007DE8  08                 	db	8
   185  007DE9  08                 	db	8
   186  007DEA  08                 	db	8
   187  007DEB  08                 	db	8
   188  007DEC  08                 	db	8
   189  007DED  00                 	db	0
   190  007DEE  60                 	db	96
   191  007DEF  60                 	db	96
   192  007DF0  00                 	db	0
   193  007DF1  00                 	db	0
   194  007DF2  20                 	db	32
   195  007DF3  10                 	db	16
   196  007DF4  08                 	db	8
   197  007DF5  04                 	db	4
   198  007DF6  02                 	db	2
   199  007DF7  3E                 	db	62
   200  007DF8  51                 	db	81
   201  007DF9  49                 	db	73
   202  007DFA  45                 	db	69
   203  007DFB  3E                 	db	62
   204  007DFC  00                 	db	0
   205  007DFD  42                 	db	66
   206  007DFE  7F                 	db	127
   207  007DFF  40                 	db	64
   208  007E00  00                 	db	0
   209  007E01  42                 	db	66
   210  007E02  61                 	db	97
   211  007E03  51                 	db	81
   212  007E04  49                 	db	73
   213  007E05  46                 	db	70
   214  007E06  21                 	db	33
   215  007E07  41                 	db	65
   216  007E08  45                 	db	69
   217  007E09  4B                 	db	75
   218  007E0A  31                 	db	49
   219  007E0B  18                 	db	24
   220  007E0C  14                 	db	20
   221  007E0D  12                 	db	18
   222  007E0E  7F                 	db	127
   223  007E0F  10                 	db	16
   224  007E10  27                 	db	39
   225  007E11  45                 	db	69
   226  007E12  45                 	db	69
   227  007E13  45                 	db	69
   228  007E14  39                 	db	57
   229  007E15  3C                 	db	60
   230  007E16  4A                 	db	74
   231  007E17  49                 	db	73
   232  007E18  49                 	db	73
   233  007E19  30                 	db	48
   234  007E1A  01                 	db	1
   235  007E1B  71                 	db	113
   236  007E1C  09                 	db	9
   237  007E1D  05                 	db	5
   238  007E1E  03                 	db	3
   239  007E1F  36                 	db	54
   240  007E20  49                 	db	73
   241  007E21  49                 	db	73
   242  007E22  49                 	db	73
   243  007E23  36                 	db	54
   244  007E24  06                 	db	6
   245  007E25  49                 	db	73
   246  007E26  49                 	db	73
   247  007E27  29                 	db	41
   248  007E28  1E                 	db	30
   249  007E29  00                 	db	0
   250  007E2A  36                 	db	54
   251  007E2B  36                 	db	54
   252  007E2C  00                 	db	0
   253  007E2D  00                 	db	0
   254  007E2E  00                 	db	0
   255  007E2F  56                 	db	86
   256  007E30  36                 	db	54
   257  007E31  00                 	db	0
   258  007E32  00                 	db	0
   259  007E33  08                 	db	8
   260  007E34  14                 	db	20
   261  007E35  22                 	db	34
   262  007E36  41                 	db	65
   263  007E37  00                 	db	0
   264  007E38  14                 	db	20
   265  007E39  14                 	db	20
   266  007E3A  14                 	db	20
   267  007E3B  14                 	db	20
   268  007E3C  14                 	db	20
   269  007E3D  00                 	db	0
   270  007E3E  41                 	db	65
   271  007E3F  22                 	db	34
   272  007E40  14                 	db	20
   273  007E41  08                 	db	8
   274  007E42  02                 	db	2
   275  007E43  01                 	db	1
   276  007E44  51                 	db	81
   277  007E45  09                 	db	9
   278  007E46  06                 	db	6
   279  007E47  32                 	db	50
   280  007E48  49                 	db	73
   281  007E49  79                 	db	121
   282  007E4A  41                 	db	65
   283  007E4B  3E                 	db	62
   284  007E4C  7E                 	db	126
   285  007E4D  11                 	db	17
   286  007E4E  11                 	db	17
   287  007E4F  11                 	db	17
   288  007E50  7E                 	db	126
   289  007E51  7F                 	db	127
   290  007E52  49                 	db	73
   291  007E53  49                 	db	73
   292  007E54  49                 	db	73
   293  007E55  36                 	db	54
   294  007E56  3E                 	db	62
   295  007E57  41                 	db	65
   296  007E58  41                 	db	65
   297  007E59  41                 	db	65
   298  007E5A  22                 	db	34
   299  007E5B  7F                 	db	127
   300  007E5C  41                 	db	65
   301  007E5D  41                 	db	65
   302  007E5E  22                 	db	34
   303  007E5F  1C                 	db	28
   304  007E60  7F                 	db	127
   305  007E61  49                 	db	73
   306  007E62  49                 	db	73
   307  007E63  49                 	db	73
   308  007E64  41                 	db	65
   309  007E65  7F                 	db	127
   310  007E66  09                 	db	9
   311  007E67  09                 	db	9
   312  007E68  09                 	db	9
   313  007E69  01                 	db	1
   314  007E6A  3E                 	db	62
   315  007E6B  41                 	db	65
   316  007E6C  49                 	db	73
   317  007E6D  49                 	db	73
   318  007E6E  7A                 	db	122
   319  007E6F  7F                 	db	127
   320  007E70  08                 	db	8
   321  007E71  08                 	db	8
   322  007E72  08                 	db	8
   323  007E73  7F                 	db	127
   324  007E74  00                 	db	0
   325  007E75  41                 	db	65
   326  007E76  7F                 	db	127
   327  007E77  41                 	db	65
   328  007E78  00                 	db	0
   329  007E79  20                 	db	32
   330  007E7A  40                 	db	64
   331  007E7B  41                 	db	65
   332  007E7C  3F                 	db	63
   333  007E7D  01                 	db	1
   334  007E7E  7F                 	db	127
   335  007E7F  08                 	db	8
   336  007E80  14                 	db	20
   337  007E81  22                 	db	34
   338  007E82  41                 	db	65
   339  007E83  7F                 	db	127
   340  007E84  40                 	db	64
   341  007E85  40                 	db	64
   342  007E86  40                 	db	64
   343  007E87  40                 	db	64
   344  007E88  7F                 	db	127
   345  007E89  02                 	db	2
   346  007E8A  0C                 	db	12
   347  007E8B  02                 	db	2
   348  007E8C  7F                 	db	127
   349  007E8D  7F                 	db	127
   350  007E8E  04                 	db	4
   351  007E8F  08                 	db	8
   352  007E90  10                 	db	16
   353  007E91  7F                 	db	127
   354  007E92  3E                 	db	62
   355  007E93  41                 	db	65
   356  007E94  41                 	db	65
   357  007E95  41                 	db	65
   358  007E96  3E                 	db	62
   359  007E97  7F                 	db	127
   360  007E98  09                 	db	9
   361  007E99  09                 	db	9
   362  007E9A  09                 	db	9
   363  007E9B  06                 	db	6
   364  007E9C  3E                 	db	62
   365  007E9D  41                 	db	65
   366  007E9E  51                 	db	81
   367  007E9F  21                 	db	33
   368  007EA0  5E                 	db	94
   369  007EA1  7F                 	db	127
   370  007EA2  09                 	db	9
   371  007EA3  19                 	db	25
   372  007EA4  29                 	db	41
   373  007EA5  46                 	db	70
   374  007EA6  46                 	db	70
   375  007EA7  49                 	db	73
   376  007EA8  49                 	db	73
   377  007EA9  49                 	db	73
   378  007EAA  31                 	db	49
   379  007EAB  01                 	db	1
   380  007EAC  01                 	db	1
   381  007EAD  7F                 	db	127
   382  007EAE  01                 	db	1
   383  007EAF  01                 	db	1
   384  007EB0  3F                 	db	63
   385  007EB1  40                 	db	64
   386  007EB2  40                 	db	64
   387  007EB3  40                 	db	64
   388  007EB4  3F                 	db	63
   389  007EB5  1F                 	db	31
   390  007EB6  20                 	db	32
   391  007EB7  40                 	db	64
   392  007EB8  20                 	db	32
   393  007EB9  1F                 	db	31
   394  007EBA  3F                 	db	63
   395  007EBB  40                 	db	64
   396  007EBC  38                 	db	56
   397  007EBD  40                 	db	64
   398  007EBE  3F                 	db	63
   399  007EBF  63                 	db	99
   400  007EC0  14                 	db	20
   401  007EC1  08                 	db	8
   402  007EC2  14                 	db	20
   403  007EC3  63                 	db	99
   404  007EC4  07                 	db	7
   405  007EC5  08                 	db	8
   406  007EC6  70                 	db	112
   407  007EC7  08                 	db	8
   408  007EC8  07                 	db	7
   409  007EC9  61                 	db	97
   410  007ECA  51                 	db	81
   411  007ECB  49                 	db	73
   412  007ECC  45                 	db	69
   413  007ECD  43                 	db	67
   414  007ECE  00                 	db	0
   415  007ECF  7F                 	db	127
   416  007ED0  41                 	db	65
   417  007ED1  41                 	db	65
   418  007ED2  00                 	db	0
   419  007ED3  02                 	db	2
   420  007ED4  04                 	db	4
   421  007ED5  08                 	db	8
   422  007ED6  10                 	db	16
   423  007ED7  20                 	db	32
   424  007ED8  00                 	db	0
   425  007ED9  41                 	db	65
   426  007EDA  41                 	db	65
   427  007EDB  7F                 	db	127
   428  007EDC  00                 	db	0
   429  007EDD  04                 	db	4
   430  007EDE  02                 	db	2
   431  007EDF  01                 	db	1
   432  007EE0  02                 	db	2
   433  007EE1  04                 	db	4
   434  007EE2  40                 	db	64
   435  007EE3  40                 	db	64
   436  007EE4  40                 	db	64
   437  007EE5  40                 	db	64
   438  007EE6  40                 	db	64
   439  007EE7  00                 	db	0
   440  007EE8  01                 	db	1
   441  007EE9  02                 	db	2
   442  007EEA  04                 	db	4
   443  007EEB  00                 	db	0
   444  007EEC  20                 	db	32
   445  007EED  54                 	db	84
   446  007EEE  54                 	db	84
   447  007EEF  54                 	db	84
   448  007EF0  78                 	db	120
   449  007EF1  7F                 	db	127
   450  007EF2  48                 	db	72
   451  007EF3  44                 	db	68
   452  007EF4  44                 	db	68
   453  007EF5  38                 	db	56
   454  007EF6  38                 	db	56
   455  007EF7  44                 	db	68
   456  007EF8  44                 	db	68
   457  007EF9  44                 	db	68
   458  007EFA  20                 	db	32
   459  007EFB  38                 	db	56
   460  007EFC  44                 	db	68
   461  007EFD  44                 	db	68
   462  007EFE  48                 	db	72
   463  007EFF  7F                 	db	127
   464  007F00  38                 	db	56
   465  007F01  54                 	db	84
   466  007F02  54                 	db	84
   467  007F03  54                 	db	84
   468  007F04  18                 	db	24
   469  007F05  08                 	db	8
   470  007F06  7E                 	db	126
   471  007F07  09                 	db	9
   472  007F08  01                 	db	1
   473  007F09  02                 	db	2
   474  007F0A  0C                 	db	12
   475  007F0B  52                 	db	82
   476  007F0C  52                 	db	82
   477  007F0D  52                 	db	82
   478  007F0E  3E                 	db	62
   479  007F0F  7F                 	db	127
   480  007F10  08                 	db	8
   481  007F11  04                 	db	4
   482  007F12  04                 	db	4
   483  007F13  78                 	db	120
   484  007F14  00                 	db	0
   485  007F15  44                 	db	68
   486  007F16  7D                 	db	125
   487  007F17  40                 	db	64
   488  007F18  00                 	db	0
   489  007F19  20                 	db	32
   490  007F1A  40                 	db	64
   491  007F1B  44                 	db	68
   492  007F1C  3D                 	db	61
   493  007F1D  00                 	db	0
   494  007F1E  7F                 	db	127
   495  007F1F  10                 	db	16
   496  007F20  28                 	db	40
   497  007F21  44                 	db	68
   498  007F22  00                 	db	0
   499  007F23  00                 	db	0
   500  007F24  41                 	db	65
   501  007F25  7F                 	db	127
   502  007F26  40                 	db	64
   503  007F27  00                 	db	0
   504  007F28  7C                 	db	124
   505  007F29  04                 	db	4
   506  007F2A  18                 	db	24
   507  007F2B  04                 	db	4
   508  007F2C  78                 	db	120
   509  007F2D  7C                 	db	124
   510  007F2E  08                 	db	8
   511  007F2F  04                 	db	4
   512  007F30  04                 	db	4
   513  007F31  78                 	db	120
   514  007F32  38                 	db	56
   515  007F33  44                 	db	68
   516  007F34  44                 	db	68
   517  007F35  44                 	db	68
   518  007F36  38                 	db	56
   519  007F37  7C                 	db	124
   520  007F38  14                 	db	20
   521  007F39  14                 	db	20
   522  007F3A  14                 	db	20
   523  007F3B  08                 	db	8
   524  007F3C  08                 	db	8
   525  007F3D  14                 	db	20
   526  007F3E  14                 	db	20
   527  007F3F  18                 	db	24
   528  007F40  7C                 	db	124
   529  007F41  7C                 	db	124
   530  007F42  08                 	db	8
   531  007F43  04                 	db	4
   532  007F44  04                 	db	4
   533  007F45  08                 	db	8
   534  007F46  48                 	db	72
   535  007F47  54                 	db	84
   536  007F48  54                 	db	84
   537  007F49  54                 	db	84
   538  007F4A  20                 	db	32
   539  007F4B  04                 	db	4
   540  007F4C  3F                 	db	63
   541  007F4D  44                 	db	68
   542  007F4E  40                 	db	64
   543  007F4F  20                 	db	32
   544  007F50  3C                 	db	60
   545  007F51  40                 	db	64
   546  007F52  40                 	db	64
   547  007F53  20                 	db	32
   548  007F54  7C                 	db	124
   549  007F55  1C                 	db	28
   550  007F56  20                 	db	32
   551  007F57  40                 	db	64
   552  007F58  20                 	db	32
   553  007F59  1C                 	db	28
   554  007F5A  3C                 	db	60
   555  007F5B  40                 	db	64
   556  007F5C  30                 	db	48
   557  007F5D  40                 	db	64
   558  007F5E  3C                 	db	60
   559  007F5F  44                 	db	68
   560  007F60  28                 	db	40
   561  007F61  10                 	db	16
   562  007F62  28                 	db	40
   563  007F63  44                 	db	68
   564  007F64  0C                 	db	12
   565  007F65  50                 	db	80
   566  007F66  50                 	db	80
   567  007F67  50                 	db	80
   568  007F68  3C                 	db	60
   569  007F69  44                 	db	68
   570  007F6A  64                 	db	100
   571  007F6B  54                 	db	84
   572  007F6C  4C                 	db	76
   573  007F6D  44                 	db	68
   574  007F6E  00                 	db	0
   575  007F6F  08                 	db	8
   576  007F70  36                 	db	54
   577  007F71  41                 	db	65
   578  007F72  00                 	db	0
   579  007F73  00                 	db	0
   580  007F74  00                 	db	0
   581  007F75  7F                 	db	127
   582  007F76  00                 	db	0
   583  007F77  00                 	db	0
   584  007F78  00                 	db	0
   585  007F79  41                 	db	65
   586  007F7A  36                 	db	54
   587  007F7B  08                 	db	8
   588  007F7C  00                 	db	0
   589  007F7D  10                 	db	16
   590  007F7E  08                 	db	8
   591  007F7F  08                 	db	8
   592  007F80  10                 	db	16
   593  007F81  08                 	db	8
   594  007F82  78                 	db	120
   595  007F83  46                 	db	70
   596  007F84  41                 	db	65
   597  007F85  46                 	db	70
   598  007F86  78                 	db	120
   599  007F87                     __end_of_FONT_NORMAL:
   600                           	callstack 0
   601  0000                     _TRISB	set	3987
   602  0000                     _ANSELC	set	3898
   603  0000                     _ANSELB	set	3897
   604  0000                     _ANSELA	set	3896
   605  0000                     _SSP2CON2bits	set	3947
   606  0000                     _SSP2CON1	set	3948
   607  0000                     _SSP2STAT	set	3949
   608  0000                     _TRISBbits	set	3987
   609  0000                     _TRISC	set	3988
   610  0000                     _PIR3bits	set	4004
   611  0000                     _LATA	set	3977
   612  0000                     _TRISA	set	3986
   613  0000                     _SSP2BUF	set	3951
   614  0000                     _SSP2ADD	set	3950
   615  0000                     _PORTB	set	3969
   616  0000                     _OSCCONbits	set	4051
   617  0000                     _LATC	set	3979
   618  0000                     _LATB	set	3978
   619  007F87                     STR_1:
   620  007F87  25                 	db	37
   621  007F88  30                 	db	48	;'0'
   622  007F89  32                 	db	50	;'2'
   623  007F8A  64                 	db	100	;'d'
   624  007F8B  3A                 	db	58	;':'
   625  007F8C  25                 	db	37
   626  007F8D  30                 	db	48	;'0'
   627  007F8E  32                 	db	50	;'2'
   628  007F8F  64                 	db	100	;'d'
   629  007F90  3A                 	db	58	;':'
   630  007F91  25                 	db	37
   631  007F92  30                 	db	48	;'0'
   632  007F93  32                 	db	50	;'2'
   633  007F94  64                 	db	100	;'d'
   634  007F95  00                 	db	0
   635  007F96                     STR_2:
   636  007F96  25                 	db	37
   637  007F97  30                 	db	48	;'0'
   638  007F98  32                 	db	50	;'2'
   639  007F99  64                 	db	100	;'d'
   640  007F9A  2F                 	db	47
   641  007F9B  25                 	db	37
   642  007F9C  30                 	db	48	;'0'
   643  007F9D  32                 	db	50	;'2'
   644  007F9E  64                 	db	100	;'d'
   645  007F9F  2F                 	db	47
   646  007FA0  25                 	db	37
   647  007FA1  30                 	db	48	;'0'
   648  007FA2  34                 	db	52	;'4'
   649  007FA3  64                 	db	100	;'d'
   650  007FA4  00                 	db	0
   651  007FA5                     STR_6:
   652  007FA5  43                 	db	67	;'C'
   653  007FA6  68                 	db	104	;'h'
   654  007FA7  65                 	db	101	;'e'
   655  007FA8  63                 	db	99	;'c'
   656  007FA9  6B                 	db	107	;'k'
   657  007FAA  20                 	db	32
   658  007FAB  20                 	db	32
   659  007FAC  20                 	db	32
   660  007FAD  20                 	db	32
   661  007FAE  20                 	db	32
   662  007FAF  20                 	db	32
   663  007FB0  20                 	db	32
   664  007FB1  00                 	db	0
   665  007FB2                     STR_5:
   666  007FB2  52                 	db	82	;'R'
   667  007FB3  54                 	db	84	;'T'
   668  007FB4  43                 	db	67	;'C'
   669  007FB5  20                 	db	32
   670  007FB6  45                 	db	69	;'E'
   671  007FB7  72                 	db	114	;'r'
   672  007FB8  72                 	db	114	;'r'
   673  007FB9  6F                 	db	111	;'o'
   674  007FBA  72                 	db	114	;'r'
   675  007FBB  21                 	db	33
   676  007FBC  21                 	db	33
   677  007FBD  20                 	db	32
   678  007FBE  00                 	db	0
   679  007FBF                     STR_7:
   680  007FBF  20                 	db	32
   681  007FC0  20                 	db	32
   682  007FC1  20                 	db	32
   683  007FC2  20                 	db	32
   684  007FC3  49                 	db	73	;'I'
   685  007FC4  32                 	db	50	;'2'
   686  007FC5  43                 	db	67	;'C'
   687  007FC6  20                 	db	32
   688  007FC7  42                 	db	66	;'B'
   689  007FC8  75                 	db	117	;'u'
   690  007FC9  73                 	db	115	;'s'
   691  007FCA  20                 	db	32
   692  007FCB  00                 	db	0
   693  007FCC                     STR_8:
   694  007FCC  4D                 	db	77	;'M'
   695  007FCD  72                 	db	114	;'r'
   696  007FCE  43                 	db	67	;'C'
   697  007FCF  68                 	db	104	;'h'
   698  007FD0  75                 	db	117	;'u'
   699  007FD1  6E                 	db	110	;'n'
   700  007FD2  63                 	db	99	;'c'
   701  007FD3  6B                 	db	107	;'k'
   702  007FD4  75                 	db	117	;'u'
   703  007FD5  65                 	db	101	;'e'
   704  007FD6  65                 	db	101	;'e'
   705  007FD7  21                 	db	33
   706  007FD8  00                 	db	0
   707  007FD9                     STR_10:
   708  007FD9  42                 	db	66	;'B'
   709  007FDA  51                 	db	81	;'Q'
   710  007FDB  33                 	db	51	;'3'
   711  007FDC  32                 	db	50	;'2'
   712  007FDD  30                 	db	48	;'0'
   713  007FDE  30                 	db	48	;'0'
   714  007FDF  30                 	db	48	;'0'
   715  007FE0  20                 	db	32
   716  007FE1  54                 	db	84	;'T'
   717  007FE2  65                 	db	101	;'e'
   718  007FE3  73                 	db	115	;'s'
   719  007FE4  74                 	db	116	;'t'
   720  007FE5  00                 	db	0
   721  007FE6                     STR_9:
   722  007FE6  52                 	db	82	;'R'
   723  007FE7  54                 	db	84	;'T'
   724  007FE8  43                 	db	67	;'C'
   725  007FE9  20                 	db	32
   726  007FEA  4C                 	db	76	;'L'
   727  007FEB  69                 	db	105	;'i'
   728  007FEC  62                 	db	98	;'b'
   729  007FED  72                 	db	114	;'r'
   730  007FEE  61                 	db	97	;'a'
   731  007FEF  72                 	db	114	;'r'
   732  007FF0  79                 	db	121	;'y'
   733  007FF1  00                 	db	0
   734  007FF2                     STR_4:
   735  007FF2  46                 	db	70	;'F'
   736  007FF3  65                 	db	101	;'e'
   737  007FF4  63                 	db	99	;'c'
   738  007FF5  68                 	db	104	;'h'
   739  007FF6  61                 	db	97	;'a'
   740  007FF7  3A                 	db	58	;':'
   741  007FF8  00                 	db	0
   742  007FF9                     STR_3:
   743  007FF9  48                 	db	72	;'H'
   744  007FFA  6F                 	db	111	;'o'
   745  007FFB  72                 	db	114	;'r'
   746  007FFC  61                 	db	97	;'a'
   747  007FFD  3A                 	db	58	;':'
   748  007FFE  00                 	db	0
   749  007FFF  00                 	db	0	; dummy byte at the end
   750  0000                     
   751                           ; #config settings
   752                           
   753                           	psect	cinit
   754  00650E                     __pcinit:
   755                           	callstack 0
   756  00650E                     start_initialization:
   757                           	callstack 0
   758  00650E                     __initialization:
   759                           	callstack 0
   760                           
   761                           ; Initialize objects allocated to BANK0 (9 bytes)
   762                           ; load TBLPTR registers with __pidataBANK0
   763  00650E  0EF1               	movlw	low __pidataBANK0
   764  006510  6EF6               	movwf	tblptrl,c
   765  006512  0E62               	movlw	high __pidataBANK0
   766  006514  6EF7               	movwf	tblptrh,c
   767  006516  0E00               	movlw	low (__pidataBANK0 shr (0+16))
   768  006518  6EF8               	movwf	tblptru,c
   769  00651A  EE00  F0C9         	lfsr	0,__pdataBANK0
   770  00651E  EE10 F009          	lfsr	1,9
   771  006522                     copy_data0:
   772  006522  0009               	tblrd		*+
   773  006524  CFF5 FFEE          	movff	tablat,postinc0
   774  006528  50E5               	movf	postdec1,w,c
   775  00652A  50E1               	movf	fsr1l,w,c
   776  00652C  E1FA               	bnz	copy_data0
   777                           
   778                           ; Clear objects allocated to BANK0 (49 bytes)
   779  00652E  EE00  F098         	lfsr	0,__pbssBANK0
   780  006532  0E31               	movlw	49
   781  006534                     clear_0:
   782  006534  6AEE               	clrf	postinc0,c
   783  006536  06E8               	decf	wreg,f,c
   784  006538  E1FD               	bnz	clear_0
   785                           
   786                           ; Clear objects allocated to COMRAM (2 bytes)
   787  00653A  6A5F               	clrf	(__pbssCOMRAM+1)& (0+255),c
   788  00653C  6A5E               	clrf	__pbssCOMRAM& (0+255),c
   789  00653E                     end_of_initialization:
   790                           	callstack 0
   791  00653E                     __end_of__initialization:
   792                           	callstack 0
   793  00653E  0E00               	movlw	low (__Lmediumconst shr (0+16))
   794  006540  6EF8               	movwf	tblptru,c
   795  006542  0100               	movlb	0
   796  006544  EF6F  F039         	goto	_main	;jump to C main() function
   797                           
   798                           	psect	bssCOMRAM
   799  00005E                     __pbssCOMRAM:
   800                           	callstack 0
   801  00005E                     __rtcI2cAddress:
   802                           	callstack 0
   803  00005E                     	ds	1
   804  00005F                     __selectedModel:
   805                           	callstack 0
   806  00005F                     	ds	1
   807                           
   808                           	psect	bssBANK0
   809  000098                     __pbssBANK0:
   810                           	callstack 0
   811  000098                     _Nokia5110:
   812                           	callstack 0
   813  000098                     	ds	9
   814  0000A1                     _nout:
   815                           	callstack 0
   816  0000A1                     	ds	2
   817  0000A3                     _width:
   818                           	callstack 0
   819  0000A3                     	ds	2
   820  0000A5                     _prec:
   821                           	callstack 0
   822  0000A5                     	ds	2
   823  0000A7                     _flags:
   824                           	callstack 0
   825  0000A7                     	ds	2
   826  0000A9                     _dbuf:
   827                           	callstack 0
   828  0000A9                     	ds	32
   829                           
   830                           	psect	dataBANK0
   831  0000C9                     __pdataBANK0:
   832                           	callstack 0
   833  0000C9                     DISPLAY_Initialize@F6752:
   834                           	callstack 0
   835  0000C9                     	ds	9
   836                           
   837                           	psect	cstackBANK0
   838  000060                     __pcstackBANK0:
   839                           	callstack 0
   840  000060                     ?_sprintf:
   841                           	callstack 0
   842  000060                     sprintf@s:
   843                           	callstack 0
   844                           
   845                           ; 2 bytes @ 0x0
   846  000060                     	ds	2
   847  000062                     sprintf@fmt:
   848                           	callstack 0
   849                           
   850                           ; 2 bytes @ 0x2
   851  000062                     	ds	8
   852  00006A                     sprintf@ap:
   853                           	callstack 0
   854                           
   855                           ; 2 bytes @ 0xA
   856  00006A                     	ds	2
   857  00006C                     sprintf@f:
   858                           	callstack 0
   859                           
   860                           ; 11 bytes @ 0xC
   861  00006C                     	ds	11
   862  000077                     main@txtHora:
   863                           	callstack 0
   864                           
   865                           ; 12 bytes @ 0x17
   866  000077                     	ds	12
   867  000083                     main@txtFecha:
   868                           	callstack 0
   869                           
   870                           ; 12 bytes @ 0x23
   871  000083                     	ds	12
   872  00008F                     main@fechaActual:
   873                           	callstack 0
   874                           
   875                           ; 5 bytes @ 0x2F
   876  00008F                     	ds	5
   877  000094                     main@horaActual:
   878                           	callstack 0
   879                           
   880                           ; 4 bytes @ 0x34
   881  000094                     	ds	4
   882                           
   883                           	psect	cstackCOMRAM
   884  000001                     __pcstackCOMRAM:
   885                           	callstack 0
   886  000001                     ??_MCU_Initialize:
   887  000001                     ??_LCDNokia5110_WriteSPI:
   888  000001                     ??_BCD_to_DEC:
   889  000001                     ?_strlen:
   890                           	callstack 0
   891  000001                     ?_isdigit:
   892                           	callstack 0
   893  000001                     ?_isspace:
   894                           	callstack 0
   895  000001                     ?___wmul:
   896                           	callstack 0
   897  000001                     ?___lldiv:
   898                           	callstack 0
   899  000001                     ?___aodiv:
   900                           	callstack 0
   901  000001                     ?___aomod:
   902                           	callstack 0
   903  000001                     I2C2_Send@data:
   904                           	callstack 0
   905  000001                     ___wmul@multiplier:
   906                           	callstack 0
   907  000001                     isdigit@c:
   908                           	callstack 0
   909  000001                     isspace@c:
   910                           	callstack 0
   911  000001                     fputc@c:
   912                           	callstack 0
   913  000001                     strlen@s:
   914                           	callstack 0
   915  000001                     ___lldiv@dividend:
   916                           	callstack 0
   917  000001                     ___aodiv@dividend:
   918                           	callstack 0
   919  000001                     ___aomod@dividend:
   920                           	callstack 0
   921                           
   922                           ; 8 bytes @ 0x0
   923  000001                     	ds	1
   924  000002                     BCD_to_DEC@bcd:
   925                           	callstack 0
   926  000002                     RTC_WaitReady@timeout:
   927                           	callstack 0
   928                           
   929                           ; 2 bytes @ 0x1
   930  000002                     	ds	1
   931  000003                     ??_isdigit:
   932  000003                     ??_isspace:
   933  000003                     ___wmul@multiplicand:
   934                           	callstack 0
   935  000003                     fputc@fp:
   936                           	callstack 0
   937  000003                     strlen@a:
   938                           	callstack 0
   939                           
   940                           ; 2 bytes @ 0x2
   941  000003                     	ds	1
   942  000004                     RTC_WriteByte@data:
   943                           	callstack 0
   944  000004                     RTC_ReadByte@addr:
   945                           	callstack 0
   946  000004                     LCDNokia5110_WriteSPI@outData:
   947                           	callstack 0
   948  000004                     RTC_ReadBytes@data:
   949                           	callstack 0
   950                           
   951                           ; 2 bytes @ 0x3
   952  000004                     	ds	1
   953  000005                     ??_fputc:
   954  000005                     RTC_WriteByte@addr:
   955                           	callstack 0
   956  000005                     RTC_ReadByte@data:
   957                           	callstack 0
   958  000005                     LCDNokia5110_WriteSPI@i:
   959                           	callstack 0
   960  000005                     ___wmul@product:
   961                           	callstack 0
   962  000005                     ___lldiv@divisor:
   963                           	callstack 0
   964                           
   965                           ; 4 bytes @ 0x4
   966  000005                     	ds	1
   967  000006                     RTC_StartClock@tempReg:
   968                           	callstack 0
   969  000006                     RTC_ReadBytes@len:
   970                           	callstack 0
   971  000006                     LCDNokia5110_Write@data:
   972                           	callstack 0
   973                           
   974                           ; 1 bytes @ 0x5
   975  000006                     	ds	1
   976  000007                     ??_LCDNokia5110_Write:
   977  000007                     ??_RTC_ReadBytes:
   978  000007                     RTC_Initialize@i2cAddress:
   979                           	callstack 0
   980  000007                     _isspace$1130:
   981                           	callstack 0
   982                           
   983                           ; 1 bytes @ 0x6
   984  000007                     	ds	1
   985  000008                     ?_atoi:
   986                           	callstack 0
   987  000008                     RTC_Initialize@model:
   988                           	callstack 0
   989  000008                     atoi@s:
   990                           	callstack 0
   991                           
   992                           ; 2 bytes @ 0x7
   993  000008                     	ds	1
   994  000009                     ___lldiv@quotient:
   995                           	callstack 0
   996  000009                     ___aodiv@divisor:
   997                           	callstack 0
   998  000009                     ___aomod@divisor:
   999                           	callstack 0
  1000                           
  1001                           ; 8 bytes @ 0x8
  1002  000009                     	ds	1
  1003  00000A                     ??_atoi:
  1004  00000A                     LCDNokia5110_Write@mode:
  1005                           	callstack 0
  1006  00000A                     fputs@s:
  1007                           	callstack 0
  1008                           
  1009                           ; 2 bytes @ 0x9
  1010  00000A                     	ds	1
  1011  00000B                     ??_LCDNokia5110_putC:
  1012  00000B                     LCDNokia5110_GotoXY@y:
  1013                           	callstack 0
  1014  00000B                     LCDNokia5110_Initialize@lcd:
  1015                           	callstack 0
  1016                           
  1017                           ; 9 bytes @ 0xA
  1018  00000B                     	ds	1
  1019  00000C                     LCDNokia5110_GotoXY@x:
  1020                           	callstack 0
  1021  00000C                     fputs@fp:
  1022                           	callstack 0
  1023                           
  1024                           ; 2 bytes @ 0xB
  1025  00000C                     	ds	1
  1026  00000D                     ___lldiv@counter:
  1027                           	callstack 0
  1028  00000D                     LCDNokia5110_Clear@index:
  1029                           	callstack 0
  1030                           
  1031                           ; 2 bytes @ 0xC
  1032  00000D                     	ds	1
  1033  00000E                     RTC_ReadBytes@addr:
  1034                           	callstack 0
  1035  00000E                     fputs@c:
  1036                           	callstack 0
  1037  00000E                     atoi@neg:
  1038                           	callstack 0
  1039  00000E                     I2C2_Initialize@fosc_hz:
  1040                           	callstack 0
  1041                           
  1042                           ; 4 bytes @ 0xD
  1043  00000E                     	ds	1
  1044  00000F                     RTC_ReadBytes@i:
  1045                           	callstack 0
  1046  00000F                     LCDNokia5110_putC@data:
  1047                           	callstack 0
  1048  00000F                     fputs@i:
  1049                           	callstack 0
  1050                           
  1051                           ; 2 bytes @ 0xE
  1052  00000F                     	ds	1
  1053  000010                     RTC_GetTime@result:
  1054                           	callstack 0
  1055  000010                     RTC_GetDate@result:
  1056                           	callstack 0
  1057  000010                     LCDNokia5110_putC@index:
  1058                           	callstack 0
  1059  000010                     atoi@n:
  1060                           	callstack 0
  1061                           
  1062                           ; 2 bytes @ 0xF
  1063  000010                     	ds	1
  1064  000011                     ?_pad:
  1065                           	callstack 0
  1066  000011                     ___aodiv@counter:
  1067                           	callstack 0
  1068  000011                     ___aomod@counter:
  1069                           	callstack 0
  1070  000011                     pad@fp:
  1071                           	callstack 0
  1072                           
  1073                           ; 2 bytes @ 0x10
  1074  000011                     	ds	1
  1075  000012                     ??_RTC_GetDate:
  1076  000012                     ___aodiv@sign:
  1077                           	callstack 0
  1078  000012                     ___aomod@sign:
  1079                           	callstack 0
  1080  000012                     LCDNokia5110_putStr@dataStr:
  1081                           	callstack 0
  1082  000012                     I2C2_Initialize@i2c_speed_hz:
  1083                           	callstack 0
  1084                           
  1085                           ; 4 bytes @ 0x11
  1086  000012                     	ds	1
  1087  000013                     ?_abs:
  1088                           	callstack 0
  1089  000013                     pad@buf:
  1090                           	callstack 0
  1091  000013                     abs@a:
  1092                           	callstack 0
  1093  000013                     RTC_GetTime@dataBuff:
  1094                           	callstack 0
  1095  000013                     ___aodiv@quotient:
  1096                           	callstack 0
  1097                           
  1098                           ; 8 bytes @ 0x12
  1099  000013                     	ds	1
  1100  000014                     ??_LCDNokia5110_Initialize:
  1101  000014                     LCDNokia5110_putStr@x:
  1102                           	callstack 0
  1103                           
  1104                           ; 1 bytes @ 0x13
  1105  000014                     	ds	1
  1106  000015                     ??_abs:
  1107  000015                     LCDNokia5110_putStr@y:
  1108                           	callstack 0
  1109  000015                     pad@p:
  1110                           	callstack 0
  1111                           
  1112                           ; 2 bytes @ 0x14
  1113  000015                     	ds	1
  1114  000016                     ??_I2C2_Initialize:
  1115  000016                     RTC_GetDate@dataBuff:
  1116                           	callstack 0
  1117                           
  1118                           ; 4 bytes @ 0x15
  1119  000016                     	ds	1
  1120  000017                     ??_DISPLAY_Initialize:
  1121  000017                     ??_pad:
  1122                           
  1123                           ; 1 bytes @ 0x16
  1124  000017                     	ds	1
  1125  000018                     pad@i:
  1126                           	callstack 0
  1127                           
  1128                           ; 2 bytes @ 0x17
  1129  000018                     	ds	1
  1130  000019                     DISPLAY_Initialize@myLCD:
  1131                           	callstack 0
  1132                           
  1133                           ; 9 bytes @ 0x18
  1134  000019                     	ds	1
  1135  00001A                     pad@w:
  1136                           	callstack 0
  1137                           
  1138                           ; 2 bytes @ 0x19
  1139  00001A                     	ds	2
  1140  00001C                     ?_dtoa:
  1141                           	callstack 0
  1142  00001C                     dtoa@fp:
  1143                           	callstack 0
  1144                           
  1145                           ; 2 bytes @ 0x1B
  1146  00001C                     	ds	2
  1147  00001E                     dtoa@d:
  1148                           	callstack 0
  1149                           
  1150                           ; 8 bytes @ 0x1D
  1151  00001E                     	ds	8
  1152  000026                     ??_dtoa:
  1153                           
  1154                           ; 1 bytes @ 0x25
  1155  000026                     	ds	8
  1156  00002E                     _dtoa$1081:
  1157                           	callstack 0
  1158                           
  1159                           ; 2 bytes @ 0x2D
  1160  00002E                     	ds	2
  1161  000030                     dtoa@p:
  1162                           	callstack 0
  1163                           
  1164                           ; 2 bytes @ 0x2F
  1165  000030                     	ds	2
  1166  000032                     dtoa@w:
  1167                           	callstack 0
  1168                           
  1169                           ; 2 bytes @ 0x31
  1170  000032                     	ds	2
  1171  000034                     dtoa@s:
  1172                           	callstack 0
  1173                           
  1174                           ; 2 bytes @ 0x33
  1175  000034                     	ds	2
  1176  000036                     dtoa@n:
  1177                           	callstack 0
  1178                           
  1179                           ; 8 bytes @ 0x35
  1180  000036                     	ds	8
  1181  00003E                     dtoa@i:
  1182                           	callstack 0
  1183                           
  1184                           ; 2 bytes @ 0x3D
  1185  00003E                     	ds	2
  1186  000040                     ?_vfpfcnvrt:
  1187                           	callstack 0
  1188  000040                     vfpfcnvrt@fp:
  1189                           	callstack 0
  1190                           
  1191                           ; 2 bytes @ 0x3F
  1192  000040                     	ds	2
  1193  000042                     vfpfcnvrt@fmt:
  1194                           	callstack 0
  1195                           
  1196                           ; 2 bytes @ 0x41
  1197  000042                     	ds	2
  1198  000044                     vfpfcnvrt@ap:
  1199                           	callstack 0
  1200                           
  1201                           ; 2 bytes @ 0x43
  1202  000044                     	ds	2
  1203  000046                     ??_vfpfcnvrt:
  1204                           
  1205                           ; 1 bytes @ 0x45
  1206  000046                     	ds	4
  1207  00004A                     vfpfcnvrt@ll:
  1208                           	callstack 0
  1209                           
  1210                           ; 8 bytes @ 0x49
  1211  00004A                     	ds	8
  1212  000052                     vfpfcnvrt@done:
  1213                           	callstack 0
  1214                           
  1215                           ; 2 bytes @ 0x51
  1216  000052                     	ds	2
  1217  000054                     ?_vfprintf:
  1218                           	callstack 0
  1219  000054                     vfprintf@fp:
  1220                           	callstack 0
  1221                           
  1222                           ; 2 bytes @ 0x53
  1223  000054                     	ds	2
  1224  000056                     vfprintf@fmt:
  1225                           	callstack 0
  1226                           
  1227                           ; 2 bytes @ 0x55
  1228  000056                     	ds	2
  1229  000058                     vfprintf@ap:
  1230                           	callstack 0
  1231                           
  1232                           ; 2 bytes @ 0x57
  1233  000058                     	ds	2
  1234  00005A                     vfprintf@cfmt:
  1235                           	callstack 0
  1236                           
  1237                           ; 2 bytes @ 0x59
  1238  00005A                     	ds	2
  1239  00005C                     ??_main:
  1240                           
  1241                           ; 1 bytes @ 0x5B
  1242  00005C                     	ds	2
  1243                           
  1244 ;;
  1245 ;;Main: autosize = 0, tempsize = 2, incstack = 0, save=0
  1246 ;;
  1247 ;; *************** function _main *****************
  1248 ;; Defined at:
  1249 ;;		line 25 in file "main.c"
  1250 ;; Parameters:    Size  Location     Type
  1251 ;;		None
  1252 ;; Auto vars:     Size  Location     Type
  1253 ;;  fechaActual     5   47[BANK0 ] struct .
  1254 ;;  horaActual      4   52[BANK0 ] struct .
  1255 ;;  txtFecha       12   35[BANK0 ] unsigned char [12]
  1256 ;;  txtHora        12   23[BANK0 ] unsigned char [12]
  1257 ;; Return value:  Size  Location     Type
  1258 ;;                  1    wreg      void 
  1259 ;; Registers used:
  1260 ;;		wreg, fsr0l, fsr0h, fsr1l, fsr1h, fsr2l, fsr2h, status,2, status,0, tblptrl, tblptrh, tblptru, prodl, prodh, cstack
  1261 ;; Tracked objects:
  1262 ;;		On entry : 0/0
  1263 ;;		On exit  : 0/0
  1264 ;;		Unchanged: 0/0
  1265 ;; Data sizes:     COMRAM   BANK0   BANK1   BANK2   BANK3   BANK4   BANK5
  1266 ;;      Params:         0       0       0       0       0       0       0
  1267 ;;      Locals:         0      33       0       0       0       0       0
  1268 ;;      Temps:          2       0       0       0       0       0       0
  1269 ;;      Totals:         2      33       0       0       0       0       0
  1270 ;;Total ram usage:       35 bytes
  1271 ;; Hardware stack levels required when called: 8
  1272 ;; This function calls:
  1273 ;;		_DISPLAY_Initialize
  1274 ;;		_I2C2_Initialize
  1275 ;;		_LCDNokia5110_putStr
  1276 ;;		_MCU_Initialize
  1277 ;;		_RELOJ_Initialize
  1278 ;;		_RTC_GetDate
  1279 ;;		_RTC_GetTime
  1280 ;;		_sprintf
  1281 ;; This function is called by:
  1282 ;;		Startup code after reset
  1283 ;; This function uses a non-reentrant model
  1284 ;;
  1285                           
  1286                           	psect	text0
  1287  0072DE                     __ptext0:
  1288                           	callstack 0
  1289  0072DE                     _main:
  1290                           	callstack 23
  1291  0072DE                     
  1292                           ;main.c: 26:     MCU_Initialize();
  1293  0072DE  EC4D  F032         	call	_MCU_Initialize	;wreg free
  1294  0072E2                     
  1295                           ;main.c: 27:     I2C2_Initialize(16000000UL, 100000UL);
  1296  0072E2  0E00               	movlw	0
  1297  0072E4  6E0E               	movwf	I2C2_Initialize@fosc_hz^0,c
  1298  0072E6  0E24               	movlw	36
  1299  0072E8  6E0F               	movwf	(I2C2_Initialize@fosc_hz+1)^0,c
  1300  0072EA  0EF4               	movlw	244
  1301  0072EC  6E10               	movwf	(I2C2_Initialize@fosc_hz+2)^0,c
  1302  0072EE  0E00               	movlw	0
  1303  0072F0  6E11               	movwf	(I2C2_Initialize@fosc_hz+3)^0,c
  1304  0072F2  0EA0               	movlw	160
  1305  0072F4  6E12               	movwf	I2C2_Initialize@i2c_speed_hz^0,c
  1306  0072F6  0E86               	movlw	134
  1307  0072F8  6E13               	movwf	(I2C2_Initialize@i2c_speed_hz+1)^0,c
  1308  0072FA  0E01               	movlw	1
  1309  0072FC  6E14               	movwf	(I2C2_Initialize@i2c_speed_hz+2)^0,c
  1310  0072FE  0E00               	movlw	0
  1311  007300  6E15               	movwf	(I2C2_Initialize@i2c_speed_hz+3)^0,c
  1312  007302  EC57  F033         	call	_I2C2_Initialize	;wreg free
  1313  007306                     
  1314                           ;main.c: 28:     RELOJ_Initialize();
  1315  007306  EC7D  F031         	call	_RELOJ_Initialize	;wreg free
  1316  00730A                     
  1317                           ;main.c: 29:     DISPLAY_Initialize();
  1318  00730A  EC88  F034         	call	_DISPLAY_Initialize	;wreg free
  1319  00730E                     l2716:
  1320                           
  1321                           ;main.c: 35:         Time_t horaActual;;main.c: 36:         Date_t fechaActual;;main.c: 
      +                          39:         if (RTC_GetTime(&horaActual) && RTC_GetDate(&fechaActual)){
  1322  00730E  0E94               	movlw	low main@horaActual
  1323  007310  6E10               	movwf	RTC_GetTime@result^0,c
  1324  007312  0E00               	movlw	high main@horaActual
  1325  007314  6E11               	movwf	(RTC_GetTime@result+1)^0,c
  1326  007316  ECF9  F036         	call	_RTC_GetTime	;wreg free
  1327  00731A  0900               	iorlw	0
  1328  00731C  B4D8               	btfsc	status,2,c
  1329  00731E  EF93  F039         	goto	u2531
  1330  007322  EF95  F039         	goto	u2530
  1331  007326                     u2531:
  1332  007326  EFF6  F039         	goto	l2730
  1333  00732A                     u2530:
  1334  00732A  0E8F               	movlw	low main@fechaActual
  1335  00732C  6E10               	movwf	RTC_GetDate@result^0,c
  1336  00732E  0E00               	movlw	high main@fechaActual
  1337  007330  6E11               	movwf	(RTC_GetDate@result+1)^0,c
  1338  007332  EC7F  F037         	call	_RTC_GetDate	;wreg free
  1339  007336  0900               	iorlw	0
  1340  007338  B4D8               	btfsc	status,2,c
  1341  00733A  EFA1  F039         	goto	u2541
  1342  00733E  EFA3  F039         	goto	u2540
  1343  007342                     u2541:
  1344  007342  EFF6  F039         	goto	l2730
  1345  007346                     u2540:
  1346  007346                     
  1347                           ;main.c: 42:             sprintf(txtHora, "%02d:%02d:%02d", horaActual.hours, horaActual
      +                          .minutes, horaActual.seconds);
  1348  007346  0E77               	movlw	low main@txtHora
  1349  007348  0100               	movlb	0	; () banked
  1350  00734A  6F60               	movwf	sprintf@s& (0+255),b
  1351  00734C  0E00               	movlw	high main@txtHora
  1352  00734E  6F61               	movwf	(sprintf@s+1)& (0+255),b
  1353  007350  0E87               	movlw	low STR_1
  1354  007352  6F62               	movwf	sprintf@fmt& (0+255),b
  1355  007354  0E7F               	movlw	high STR_1
  1356  007356  6F63               	movwf	(sprintf@fmt+1)& (0+255),b
  1357  007358  C094  F064         	movff	main@horaActual,?_sprintf+4
  1358  00735C  6B65               	clrf	(?_sprintf+5)& (0+255),b
  1359  00735E  C095  F066         	movff	main@horaActual+1,?_sprintf+6
  1360  007362  6B67               	clrf	(?_sprintf+7)& (0+255),b
  1361  007364  C096  F068         	movff	main@horaActual+2,?_sprintf+8
  1362  007368  6B69               	clrf	(?_sprintf+9)& (0+255),b
  1363  00736A  EC2E  F033         	call	_sprintf	;wreg free
  1364                           
  1365                           ;main.c: 45:             sprintf(txtFecha, "%02d/%02d/%04d", fechaActual.day, fechaActua
      +                          l.month, fechaActual.year);
  1366  00736E  0E83               	movlw	low main@txtFecha
  1367  007370  0100               	movlb	0	; () banked
  1368  007372  6F60               	movwf	sprintf@s& (0+255),b
  1369  007374  0E00               	movlw	high main@txtFecha
  1370  007376  6F61               	movwf	(sprintf@s+1)& (0+255),b
  1371  007378  0E96               	movlw	low STR_2
  1372  00737A  6F62               	movwf	sprintf@fmt& (0+255),b
  1373  00737C  0E7F               	movlw	high STR_2
  1374  00737E  6F63               	movwf	(sprintf@fmt+1)& (0+255),b
  1375  007380  C092  F064         	movff	main@fechaActual+3,?_sprintf+4
  1376  007384  6B65               	clrf	(?_sprintf+5)& (0+255),b
  1377  007386  C091  F066         	movff	main@fechaActual+2,?_sprintf+6
  1378  00738A  6B67               	clrf	(?_sprintf+7)& (0+255),b
  1379  00738C  C08F  F068         	movff	main@fechaActual,?_sprintf+8
  1380  007390  C090  F069         	movff	main@fechaActual+1,?_sprintf+9
  1381  007394  EC2E  F033         	call	_sprintf	;wreg free
  1382  007398                     
  1383                           ;main.c: 47:             LCDNokia5110_putStr("Hora:", 0, 0);
  1384  007398  0EF9               	movlw	low STR_3
  1385  00739A  6E12               	movwf	LCDNokia5110_putStr@dataStr^0,c
  1386  00739C  0E7F               	movlw	high STR_3
  1387  00739E  6E13               	movwf	(LCDNokia5110_putStr@dataStr+1)^0,c
  1388  0073A0  0E00               	movlw	0
  1389  0073A2  6E14               	movwf	LCDNokia5110_putStr@x^0,c
  1390  0073A4  0E00               	movlw	0
  1391  0073A6  6E15               	movwf	LCDNokia5110_putStr@y^0,c
  1392  0073A8  EC14  F034         	call	_LCDNokia5110_putStr	;wreg free
  1393  0073AC                     
  1394                           ;main.c: 48:             LCDNokia5110_putStr(txtHora, 10, 1);
  1395  0073AC  0E77               	movlw	low main@txtHora
  1396  0073AE  6E12               	movwf	LCDNokia5110_putStr@dataStr^0,c
  1397  0073B0  0E00               	movlw	high main@txtHora
  1398  0073B2  6E13               	movwf	(LCDNokia5110_putStr@dataStr+1)^0,c
  1399  0073B4  0E0A               	movlw	10
  1400  0073B6  6E14               	movwf	LCDNokia5110_putStr@x^0,c
  1401  0073B8  0E01               	movlw	1
  1402  0073BA  6E15               	movwf	LCDNokia5110_putStr@y^0,c
  1403  0073BC  EC14  F034         	call	_LCDNokia5110_putStr	;wreg free
  1404  0073C0                     
  1405                           ;main.c: 49:             LCDNokia5110_putStr("Fecha:", 0, 3);
  1406  0073C0  0EF2               	movlw	low STR_4
  1407  0073C2  6E12               	movwf	LCDNokia5110_putStr@dataStr^0,c
  1408  0073C4  0E7F               	movlw	high STR_4
  1409  0073C6  6E13               	movwf	(LCDNokia5110_putStr@dataStr+1)^0,c
  1410  0073C8  0E00               	movlw	0
  1411  0073CA  6E14               	movwf	LCDNokia5110_putStr@x^0,c
  1412  0073CC  0E03               	movlw	3
  1413  0073CE  6E15               	movwf	LCDNokia5110_putStr@y^0,c
  1414  0073D0  EC14  F034         	call	_LCDNokia5110_putStr	;wreg free
  1415  0073D4                     
  1416                           ;main.c: 50:             LCDNokia5110_putStr(txtFecha, 10, 4);
  1417  0073D4  0E83               	movlw	low main@txtFecha
  1418  0073D6  6E12               	movwf	LCDNokia5110_putStr@dataStr^0,c
  1419  0073D8  0E00               	movlw	high main@txtFecha
  1420  0073DA  6E13               	movwf	(LCDNokia5110_putStr@dataStr+1)^0,c
  1421  0073DC  0E0A               	movlw	10
  1422  0073DE  6E14               	movwf	LCDNokia5110_putStr@x^0,c
  1423  0073E0  0E04               	movlw	4
  1424  0073E2  6E15               	movwf	LCDNokia5110_putStr@y^0,c
  1425  0073E4  EC14  F034         	call	_LCDNokia5110_putStr	;wreg free
  1426                           
  1427                           ;main.c: 52:         } else {
  1428  0073E8  EF14  F03A         	goto	l2732
  1429  0073EC                     l2730:
  1430                           
  1431                           ;main.c: 54:             LCDNokia5110_putStr("RTC Error!! ", 0, 1);
  1432  0073EC  0EB2               	movlw	low STR_5
  1433  0073EE  6E12               	movwf	LCDNokia5110_putStr@dataStr^0,c
  1434  0073F0  0E7F               	movlw	high STR_5
  1435  0073F2  6E13               	movwf	(LCDNokia5110_putStr@dataStr+1)^0,c
  1436  0073F4  0E00               	movlw	0
  1437  0073F6  6E14               	movwf	LCDNokia5110_putStr@x^0,c
  1438  0073F8  0E01               	movlw	1
  1439  0073FA  6E15               	movwf	LCDNokia5110_putStr@y^0,c
  1440  0073FC  EC14  F034         	call	_LCDNokia5110_putStr	;wreg free
  1441                           
  1442                           ;main.c: 55:             LCDNokia5110_putStr("Check       ", 0, 3);
  1443  007400  0EA5               	movlw	low STR_6
  1444  007402  6E12               	movwf	LCDNokia5110_putStr@dataStr^0,c
  1445  007404  0E7F               	movlw	high STR_6
  1446  007406  6E13               	movwf	(LCDNokia5110_putStr@dataStr+1)^0,c
  1447  007408  0E00               	movlw	0
  1448  00740A  6E14               	movwf	LCDNokia5110_putStr@x^0,c
  1449  00740C  0E03               	movlw	3
  1450  00740E  6E15               	movwf	LCDNokia5110_putStr@y^0,c
  1451  007410  EC14  F034         	call	_LCDNokia5110_putStr	;wreg free
  1452                           
  1453                           ;main.c: 56:             LCDNokia5110_putStr("    I2C Bus ", 0, 4);
  1454  007414  0EBF               	movlw	low STR_7
  1455  007416  6E12               	movwf	LCDNokia5110_putStr@dataStr^0,c
  1456  007418  0E7F               	movlw	high STR_7
  1457  00741A  6E13               	movwf	(LCDNokia5110_putStr@dataStr+1)^0,c
  1458  00741C  0E00               	movlw	0
  1459  00741E  6E14               	movwf	LCDNokia5110_putStr@x^0,c
  1460  007420  0E04               	movlw	4
  1461  007422  6E15               	movwf	LCDNokia5110_putStr@y^0,c
  1462  007424  EC14  F034         	call	_LCDNokia5110_putStr	;wreg free
  1463  007428                     l2732:
  1464                           
  1465                           ;main.c: 60:         _delay((unsigned long)((200)*(16000000/4000.0)));
  1466  007428  0E05               	movlw	5
  1467  00742A  6E5D               	movwf	(??_main+1)^0,c
  1468  00742C  0E0F               	movlw	15
  1469  00742E  6E5C               	movwf	??_main^0,c
  1470  007430  0EF1               	movlw	241
  1471  007432                     u2587:
  1472  007432  2EE8               	decfsz	wreg,f,c
  1473  007434  D7FE               	bra	u2587
  1474  007436  2E5C               	decfsz	??_main^0,f,c
  1475  007438  D7FC               	bra	u2587
  1476  00743A  2E5D               	decfsz	(??_main+1)^0,f,c
  1477  00743C  D7FA               	bra	u2587
  1478  00743E  F000               	nop	
  1479  007440  EF87  F039         	goto	l2716
  1480  007444  EF00  F000         	goto	start
  1481  007448                     __end_of_main:
  1482                           	callstack 0
  1483                           
  1484 ;; *************** function _sprintf *****************
  1485 ;; Defined at:
  1486 ;;		line 9 in file "C:\Program Files\Microchip\xc8\v2.36\pic\sources\c99\common\nf_sprintf.c"
  1487 ;; Parameters:    Size  Location     Type
  1488 ;;  s               2    0[BANK0 ] PTR unsigned char 
  1489 ;;		 -> main@txtFecha(12), main@txtHora(12), 
  1490 ;;  fmt             2    2[BANK0 ] PTR const unsigned char 
  1491 ;;		 -> STR_2(15), STR_1(15), 
  1492 ;; Auto vars:     Size  Location     Type
  1493 ;;  f              11   12[BANK0 ] struct _IO_FILE
  1494 ;;  ap              2   10[BANK0 ] PTR void [1]
  1495 ;;		 -> ?_sprintf(2), 
  1496 ;;  ret             2    0        int 
  1497 ;; Return value:  Size  Location     Type
  1498 ;;                  2    0[BANK0 ] int 
  1499 ;; Registers used:
  1500 ;;		wreg, fsr1l, fsr1h, fsr2l, fsr2h, status,2, status,0, tblptrl, tblptrh, tblptru, prodl, prodh, cstack
  1501 ;; Tracked objects:
  1502 ;;		On entry : 0/0
  1503 ;;		On exit  : 0/0
  1504 ;;		Unchanged: 0/0
  1505 ;; Data sizes:     COMRAM   BANK0   BANK1   BANK2   BANK3   BANK4   BANK5
  1506 ;;      Params:         0      10       0       0       0       0       0
  1507 ;;      Locals:         0      13       0       0       0       0       0
  1508 ;;      Temps:          0       0       0       0       0       0       0
  1509 ;;      Totals:         0      23       0       0       0       0       0
  1510 ;;Total ram usage:       23 bytes
  1511 ;; Hardware stack levels used: 1
  1512 ;; Hardware stack levels required when called: 7
  1513 ;; This function calls:
  1514 ;;		_vfprintf
  1515 ;; This function is called by:
  1516 ;;		_main
  1517 ;; This function uses a non-reentrant model
  1518 ;;
  1519                           
  1520                           	psect	text1
  1521  00665C                     __ptext1:
  1522                           	callstack 0
  1523  00665C                     _sprintf:
  1524                           	callstack 23
  1525  00665C  0E64               	movlw	low (?_sprintf+4)
  1526  00665E  0100               	movlb	0	; () banked
  1527  006660  6F6A               	movwf	sprintf@ap& (0+255),b
  1528  006662  0E00               	movlw	high (?_sprintf+4)
  1529  006664  6F6B               	movwf	(sprintf@ap+1)& (0+255),b
  1530  006666  C060  F06C         	movff	sprintf@s,sprintf@f
  1531  00666A  C061  F06D         	movff	sprintf@s+1,sprintf@f+1
  1532  00666E                     
  1533                           ; BSR set to: 0
  1534  00666E  0E00               	movlw	0
  1535  006670  6F70               	movwf	(sprintf@f+4)& (0+255),b
  1536  006672  0E00               	movlw	0
  1537  006674  6F6F               	movwf	(sprintf@f+3)& (0+255),b
  1538  006676                     
  1539                           ; BSR set to: 0
  1540  006676  0E00               	movlw	0
  1541  006678  6F76               	movwf	(sprintf@f+10)& (0+255),b
  1542  00667A  0E00               	movlw	0
  1543  00667C  6F75               	movwf	(sprintf@f+9)& (0+255),b
  1544  00667E                     
  1545                           ; BSR set to: 0
  1546  00667E  0E6C               	movlw	low sprintf@f
  1547  006680  6E54               	movwf	vfprintf@fp^0,c
  1548  006682  0E00               	movlw	high sprintf@f
  1549  006684  6E55               	movwf	(vfprintf@fp+1)^0,c
  1550  006686  C062  F056         	movff	sprintf@fmt,vfprintf@fmt
  1551  00668A  C063  F057         	movff	sprintf@fmt+1,vfprintf@fmt+1
  1552  00668E  0E6A               	movlw	low sprintf@ap
  1553  006690  6E58               	movwf	vfprintf@ap^0,c
  1554  006692  0E00               	movlw	high sprintf@ap
  1555  006694  6E59               	movwf	(vfprintf@ap+1)^0,c
  1556  006696  ECE3  F033         	call	_vfprintf	;wreg free
  1557  00669A  0100               	movlb	0	; () banked
  1558  00669C  516F               	movf	(sprintf@f+3)& (0+255),w,b
  1559  00669E  2560               	addwf	sprintf@s& (0+255),w,b
  1560  0066A0  6ED9               	movwf	fsr2l,c
  1561  0066A2  5170               	movf	(sprintf@f+4)& (0+255),w,b
  1562  0066A4  2161               	addwfc	(sprintf@s+1)& (0+255),w,b
  1563  0066A6  6EDA               	movwf	fsr2h,c
  1564  0066A8  0E00               	movlw	0
  1565  0066AA  6EDF               	movwf	indf2,c
  1566  0066AC                     
  1567                           ; BSR set to: 0
  1568  0066AC  0012               	return		;funcret
  1569  0066AE                     __end_of_sprintf:
  1570                           	callstack 0
  1571                           
  1572 ;; *************** function _vfprintf *****************
  1573 ;; Defined at:
  1574 ;;		line 1390 in file "C:\Program Files\Microchip\xc8\v2.36\pic\sources\c99\common\doprnt.c"
  1575 ;; Parameters:    Size  Location     Type
  1576 ;;  fp              2   83[COMRAM] PTR struct _IO_FILE
  1577 ;;		 -> sprintf@f(11), 
  1578 ;;  fmt             2   85[COMRAM] PTR const unsigned char 
  1579 ;;		 -> STR_2(15), STR_1(15), 
  1580 ;;  ap              2   87[COMRAM] PTR PTR void 
  1581 ;;		 -> sprintf@ap(2), 
  1582 ;; Auto vars:     Size  Location     Type
  1583 ;;  cfmt            2   89[COMRAM] PTR unsigned char 
  1584 ;;		 -> STR_2(15), STR_1(15), 
  1585 ;; Return value:  Size  Location     Type
  1586 ;;                  2   83[COMRAM] int 
  1587 ;; Registers used:
  1588 ;;		wreg, fsr1l, fsr1h, fsr2l, fsr2h, status,2, status,0, tblptrl, tblptrh, tblptru, prodl, prodh, cstack
  1589 ;; Tracked objects:
  1590 ;;		On entry : 0/0
  1591 ;;		On exit  : 0/0
  1592 ;;		Unchanged: 0/0
  1593 ;; Data sizes:     COMRAM   BANK0   BANK1   BANK2   BANK3   BANK4   BANK5
  1594 ;;      Params:         6       0       0       0       0       0       0
  1595 ;;      Locals:         2       0       0       0       0       0       0
  1596 ;;      Temps:          0       0       0       0       0       0       0
  1597 ;;      Totals:         8       0       0       0       0       0       0
  1598 ;;Total ram usage:        8 bytes
  1599 ;; Hardware stack levels used: 1
  1600 ;; Hardware stack levels required when called: 6
  1601 ;; This function calls:
  1602 ;;		_vfpfcnvrt
  1603 ;; This function is called by:
  1604 ;;		_sprintf
  1605 ;; This function uses a non-reentrant model
  1606 ;;
  1607                           
  1608                           	psect	text2
  1609  0067C6                     __ptext2:
  1610                           	callstack 0
  1611  0067C6                     _vfprintf:
  1612                           	callstack 23
  1613  0067C6                     
  1614                           ;C:\Program Files\Microchip\xc8\v2.36\pic\sources\c99\common\doprnt.c: 1390: int vfprint
      +                          f(FILE *fp, const char *fmt, va_list ap);C:\Program Files\Microchip\xc8\v2.36\pic\source
      +                          s\c99\common\doprnt.c: 1391: {;C:\Program Files\Microchip\xc8\v2.36\pic\sources\c99\comm
      +                          on\doprnt.c: 1393:     char *cfmt;;C:\Program Files\Microchip\xc8\v2.36\pic\sources\c99\
      +                          common\doprnt.c: 1395:     cfmt = (char *)fmt;
  1615  0067C6  C056  F05A         	movff	vfprintf@fmt,vfprintf@cfmt
  1616  0067CA  C057  F05B         	movff	vfprintf@fmt+1,vfprintf@cfmt+1
  1617  0067CE                     
  1618                           ;C:\Program Files\Microchip\xc8\v2.36\pic\sources\c99\common\doprnt.c: 1396:     nout = 
      +                          0;
  1619  0067CE  0E00               	movlw	0
  1620  0067D0  0100               	movlb	0	; () banked
  1621  0067D2  6FA2               	movwf	(_nout+1)& (0+255),b
  1622  0067D4  0E00               	movlw	0
  1623  0067D6  6FA1               	movwf	_nout& (0+255),b
  1624                           
  1625                           ;C:\Program Files\Microchip\xc8\v2.36\pic\sources\c99\common\doprnt.c: 1397:     while (
      +                          *cfmt) {
  1626  0067D8  EF01  F034         	goto	l2570
  1627  0067DC                     l2568:
  1628                           
  1629                           ; BSR set to: 0
  1630                           ;C:\Program Files\Microchip\xc8\v2.36\pic\sources\c99\common\doprnt.c: 1398:         nou
      +                          t += vfpfcnvrt(fp, &cfmt, ap);
  1631  0067DC  C054  F040         	movff	vfprintf@fp,vfpfcnvrt@fp
  1632  0067E0  C055  F041         	movff	vfprintf@fp+1,vfpfcnvrt@fp+1
  1633  0067E4  0E5A               	movlw	low vfprintf@cfmt
  1634  0067E6  6E42               	movwf	vfpfcnvrt@fmt^0,c
  1635  0067E8  0E00               	movlw	high vfprintf@cfmt
  1636  0067EA  6E43               	movwf	(vfpfcnvrt@fmt+1)^0,c
  1637  0067EC  C058  F044         	movff	vfprintf@ap,vfpfcnvrt@ap
  1638  0067F0  C059  F045         	movff	vfprintf@ap+1,vfpfcnvrt@ap+1
  1639  0067F4  EC25  F03D         	call	_vfpfcnvrt	;wreg free
  1640  0067F8  5040               	movf	?_vfpfcnvrt^0,w,c
  1641  0067FA  0100               	movlb	0	; () banked
  1642  0067FC  27A1               	addwf	_nout& (0+255),f,b
  1643  0067FE  5041               	movf	(?_vfpfcnvrt+1)^0,w,c
  1644  006800  23A2               	addwfc	(_nout+1)& (0+255),f,b
  1645  006802                     l2570:
  1646                           
  1647                           ; BSR set to: 0
  1648                           ;C:\Program Files\Microchip\xc8\v2.36\pic\sources\c99\common\doprnt.c: 1397:     while (
      +                          *cfmt) {
  1649  006802  C05A  FFF6         	movff	vfprintf@cfmt,tblptrl
  1650  006806  C05B  FFF7         	movff	vfprintf@cfmt+1,tblptrh
  1651  00680A                     	if	0	;tblptru may be non-zero
  1652  00680A                     	endif
  1653  00680A                     	if	0	;tblptru may be non-zero
  1654  00680A                     	endif
  1655  00680A  0008               	tblrd		*
  1656  00680C  50F5               	movf	tablat,w,c
  1657  00680E  0900               	iorlw	0
  1658  006810  A4D8               	btfss	status,2,c
  1659  006812  EF0D  F034         	goto	u2311
  1660  006816  EF0F  F034         	goto	u2310
  1661  00681A                     u2311:
  1662  00681A  EFEE  F033         	goto	l2568
  1663  00681E                     u2310:
  1664  00681E                     
  1665                           ; BSR set to: 0
  1666                           ;C:\Program Files\Microchip\xc8\v2.36\pic\sources\c99\common\doprnt.c: 1400:     return 
      +                          nout;
  1667  00681E  C0A1  F054         	movff	_nout,?_vfprintf
  1668  006822  C0A2  F055         	movff	_nout+1,?_vfprintf+1
  1669  006826                     
  1670                           ; BSR set to: 0
  1671  006826  0012               	return		;funcret
  1672  006828                     __end_of_vfprintf:
  1673                           	callstack 0
  1674                           
  1675 ;; *************** function _vfpfcnvrt *****************
  1676 ;; Defined at:
  1677 ;;		line 692 in file "C:\Program Files\Microchip\xc8\v2.36\pic\sources\c99\common\doprnt.c"
  1678 ;; Parameters:    Size  Location     Type
  1679 ;;  fp              2   63[COMRAM] PTR struct _IO_FILE
  1680 ;;		 -> sprintf@f(11), 
  1681 ;;  fmt             2   65[COMRAM] PTR PTR unsigned char 
  1682 ;;		 -> vfprintf@cfmt(2), 
  1683 ;;  ap              2   67[COMRAM] PTR PTR void 
  1684 ;;		 -> sprintf@ap(2), 
  1685 ;; Auto vars:     Size  Location     Type
  1686 ;;  ll              8   73[COMRAM] long long 
  1687 ;;  llu             8    0        unsigned long long 
  1688 ;;  f               4    0        unsigned long long 
  1689 ;;  vp              3    0        PTR void 
  1690 ;;  ct              3    0        unsigned char [3]
  1691 ;;  cp              3    0        PTR unsigned char 
  1692 ;;  done            2   81[COMRAM] int 
  1693 ;;  i               2    0        int 
  1694 ;;  c               1    0        unsigned char 
  1695 ;; Return value:  Size  Location     Type
  1696 ;;                  2   63[COMRAM] int 
  1697 ;; Registers used:
  1698 ;;		wreg, fsr1l, fsr1h, fsr2l, fsr2h, status,2, status,0, tblptrl, tblptrh, tblptru, prodl, prodh, cstack
  1699 ;; Tracked objects:
  1700 ;;		On entry : 0/0
  1701 ;;		On exit  : 0/0
  1702 ;;		Unchanged: 0/0
  1703 ;; Data sizes:     COMRAM   BANK0   BANK1   BANK2   BANK3   BANK4   BANK5
  1704 ;;      Params:         6       0       0       0       0       0       0
  1705 ;;      Locals:        10       0       0       0       0       0       0
  1706 ;;      Temps:          4       0       0       0       0       0       0
  1707 ;;      Totals:        20       0       0       0       0       0       0
  1708 ;;Total ram usage:       20 bytes
  1709 ;; Hardware stack levels used: 1
  1710 ;; Hardware stack levels required when called: 5
  1711 ;; This function calls:
  1712 ;;		_atoi
  1713 ;;		_dtoa
  1714 ;;		_fputc
  1715 ;;		_isdigit
  1716 ;; This function is called by:
  1717 ;;		_vfprintf
  1718 ;; This function uses a non-reentrant model
  1719 ;;
  1720                           
  1721                           	psect	text3
  1722  007A4A                     __ptext3:
  1723                           	callstack 0
  1724  007A4A                     _vfpfcnvrt:
  1725                           	callstack 23
  1726  007A4A                     
  1727                           ;C:\Program Files\Microchip\xc8\v2.36\pic\sources\c99\common\doprnt.c: 692: static int v
      +                          fpfcnvrt(FILE *fp, char *fmt[], va_list ap);C:\Program Files\Microchip\xc8\v2.36\pic\sou
      +                          rces\c99\common\doprnt.c: 693: {;C:\Program Files\Microchip\xc8\v2.36\pic\sources\c99\co
      +                          mmon\doprnt.c: 694:     char c, *cp, ct[3];;C:\Program Files\Microchip\xc8\v2.36\pic\sou
      +                          rces\c99\common\doprnt.c: 695:     int done, i;;C:\Program Files\Microchip\xc8\v2.36\pic
      +                          \sources\c99\common\doprnt.c: 696:     long long ll;;C:\Program Files\Microchip\xc8\v2.3
      +                          6\pic\sources\c99\common\doprnt.c: 697:     unsigned long long llu;
  1728  007A4A  C042  FFD9         	movff	vfpfcnvrt@fmt,fsr2l
  1729  007A4E  C043  FFDA         	movff	vfpfcnvrt@fmt+1,fsr2h
  1730  007A52  CFDE FFF6          	movff	postinc2,tblptrl
  1731  007A56  CFDD FFF7          	movff	postdec2,tblptrh
  1732  007A5A                     	if	0	;tblptru may be non-zero
  1733  007A5A                     	endif
  1734  007A5A                     	if	0	;tblptru may be non-zero
  1735  007A5A                     	endif
  1736  007A5A  0008               	tblrd		*
  1737  007A5C  50F5               	movf	tablat,w,c
  1738  007A5E  0A25               	xorlw	37
  1739  007A60  A4D8               	btfss	status,2,c
  1740  007A62  EF35  F03D         	goto	u2031
  1741  007A66  EF37  F03D         	goto	u2030
  1742  007A6A                     u2031:
  1743  007A6A  EFB7  F03E         	goto	l2438
  1744  007A6E                     u2030:
  1745  007A6E                     
  1746                           ;C:\Program Files\Microchip\xc8\v2.36\pic\sources\c99\common\doprnt.c: 703:         ++*f
      +                          mt;
  1747  007A6E  C042  FFD9         	movff	vfpfcnvrt@fmt,fsr2l
  1748  007A72  C043  FFDA         	movff	vfpfcnvrt@fmt+1,fsr2h
  1749  007A76  2ADE               	incf	postinc2,f,c
  1750  007A78  0E00               	movlw	0
  1751  007A7A  22DD               	addwfc	postdec2,f,c
  1752  007A7C                     
  1753                           ;C:\Program Files\Microchip\xc8\v2.36\pic\sources\c99\common\doprnt.c: 705:         flag
      +                          s = width = 0;
  1754  007A7C  0E00               	movlw	0
  1755  007A7E  0100               	movlb	0	; () banked
  1756  007A80  6FA4               	movwf	(_width+1)& (0+255),b
  1757  007A82  0E00               	movlw	0
  1758  007A84  6FA3               	movwf	_width& (0+255),b
  1759  007A86  C0A3  F0A7         	movff	_width,_flags
  1760  007A8A  C0A4  F0A8         	movff	_width+1,_flags+1
  1761  007A8E                     
  1762                           ; BSR set to: 0
  1763                           ;C:\Program Files\Microchip\xc8\v2.36\pic\sources\c99\common\doprnt.c: 706:         prec
      +                           = -1;
  1764  007A8E  69A5               	setf	_prec& (0+255),b
  1765  007A90  69A6               	setf	(_prec+1)& (0+255),b
  1766  007A92                     
  1767                           ; BSR set to: 0
  1768                           ;C:\Program Files\Microchip\xc8\v2.36\pic\sources\c99\common\doprnt.c: 710:         done
      +                           = 0;
  1769  007A92  0E00               	movlw	0
  1770  007A94  6E53               	movwf	(vfpfcnvrt@done+1)^0,c
  1771  007A96  0E00               	movlw	0
  1772  007A98  6E52               	movwf	vfpfcnvrt@done^0,c
  1773                           
  1774                           ;C:\Program Files\Microchip\xc8\v2.36\pic\sources\c99\common\doprnt.c: 711:         whil
      +                          e (!done) {
  1775  007A9A  EF9A  F03D         	goto	l2392
  1776  007A9E                     l2366:
  1777                           
  1778                           ;C:\Program Files\Microchip\xc8\v2.36\pic\sources\c99\common\doprnt.c: 714:             
      +                                  flags |= (1 << 0);
  1779  007A9E  0100               	movlb	0	; () banked
  1780  007AA0  81A7               	bsf	_flags& (0+255),0,b
  1781  007AA2                     l2368:
  1782                           
  1783                           ; BSR set to: 0
  1784                           ;C:\Program Files\Microchip\xc8\v2.36\pic\sources\c99\common\doprnt.c: 715:             
      +                                  ++*fmt;
  1785  007AA2  C042  FFD9         	movff	vfpfcnvrt@fmt,fsr2l
  1786  007AA6  C043  FFDA         	movff	vfpfcnvrt@fmt+1,fsr2h
  1787  007AAA  2ADE               	incf	postinc2,f,c
  1788  007AAC  0E00               	movlw	0
  1789  007AAE  22DD               	addwfc	postdec2,f,c
  1790                           
  1791                           ;C:\Program Files\Microchip\xc8\v2.36\pic\sources\c99\common\doprnt.c: 716:             
      +                                  break;
  1792  007AB0  EF9A  F03D         	goto	l2392
  1793  007AB4                     l2370:
  1794                           
  1795                           ;C:\Program Files\Microchip\xc8\v2.36\pic\sources\c99\common\doprnt.c: 718:             
      +                                  flags |= (1 << 1);
  1796  007AB4  0100               	movlb	0	; () banked
  1797  007AB6  83A7               	bsf	_flags& (0+255),1,b
  1798  007AB8  EF51  F03D         	goto	l2368
  1799  007ABC                     l2374:
  1800                           
  1801                           ;C:\Program Files\Microchip\xc8\v2.36\pic\sources\c99\common\doprnt.c: 722:             
      +                                  flags |= (1 << 2);
  1802  007ABC  0100               	movlb	0	; () banked
  1803  007ABE  85A7               	bsf	_flags& (0+255),2,b
  1804  007AC0  EF51  F03D         	goto	l2368
  1805  007AC4                     l2378:
  1806                           
  1807                           ;C:\Program Files\Microchip\xc8\v2.36\pic\sources\c99\common\doprnt.c: 726:             
      +                                  flags |= (1 << 3);
  1808  007AC4  0100               	movlb	0	; () banked
  1809  007AC6  87A7               	bsf	_flags& (0+255),3,b
  1810  007AC8  EF51  F03D         	goto	l2368
  1811  007ACC                     l2382:
  1812                           
  1813                           ;C:\Program Files\Microchip\xc8\v2.36\pic\sources\c99\common\doprnt.c: 730:             
      +                                  flags |= (1 << 4);
  1814  007ACC  0100               	movlb	0	; () banked
  1815  007ACE  89A7               	bsf	_flags& (0+255),4,b
  1816  007AD0  EF51  F03D         	goto	l2368
  1817  007AD4                     l2386:
  1818                           
  1819                           ;C:\Program Files\Microchip\xc8\v2.36\pic\sources\c99\common\doprnt.c: 734:             
      +                                  done = 1;
  1820  007AD4  0E00               	movlw	0
  1821  007AD6  6E53               	movwf	(vfpfcnvrt@done+1)^0,c
  1822  007AD8  0E01               	movlw	1
  1823  007ADA  6E52               	movwf	vfpfcnvrt@done^0,c
  1824                           
  1825                           ;C:\Program Files\Microchip\xc8\v2.36\pic\sources\c99\common\doprnt.c: 735:             
      +                                  break;
  1826  007ADC  EF9A  F03D         	goto	l2392
  1827  007AE0                     l2390:
  1828  007AE0  C042  FFD9         	movff	vfpfcnvrt@fmt,fsr2l
  1829  007AE4  C043  FFDA         	movff	vfpfcnvrt@fmt+1,fsr2h
  1830  007AE8  CFDE FFF6          	movff	postinc2,tblptrl
  1831  007AEC  CFDD FFF7          	movff	postdec2,tblptrh
  1832  007AF0                     	if	0	;tblptru may be non-zero
  1833  007AF0                     	endif
  1834  007AF0                     	if	0	;tblptru may be non-zero
  1835  007AF0                     	endif
  1836  007AF0  0008               	tblrd		*
  1837  007AF2  50F5               	movf	tablat,w,c
  1838  007AF4  6E46               	movwf	??_vfpfcnvrt^0,c
  1839  007AF6  6A47               	clrf	(??_vfpfcnvrt+1)^0,c
  1840                           
  1841                           ; Switch on 2 bytes has been partitioned into a top level switch of size 1, and 1 sub-sw
      +                          itches
  1842                           ; Switch size 1, requested type "simple"
  1843                           ; Number of cases is 1, Range of values is 0 to 0
  1844                           ; switch strategies available:
  1845                           ; Name         Instructions Cycles
  1846                           ; simple_byte            4     3 (average)
  1847                           ;	Chosen strategy is simple_byte
  1848  007AF8  5047               	movf	(??_vfpfcnvrt+1)^0,w,c
  1849  007AFA  0A00               	xorlw	0	; case 0
  1850  007AFC  B4D8               	btfsc	status,2,c
  1851  007AFE  EF83  F03D         	goto	l2814
  1852  007B02  EF6A  F03D         	goto	l2386
  1853  007B06                     l2814:
  1854                           
  1855                           ; Switch size 1, requested type "simple"
  1856                           ; Number of cases is 5, Range of values is 32 to 48
  1857                           ; switch strategies available:
  1858                           ; Name         Instructions Cycles
  1859                           ; simple_byte           16     9 (average)
  1860                           ;	Chosen strategy is simple_byte
  1861  007B06  5046               	movf	??_vfpfcnvrt^0,w,c
  1862  007B08  0A20               	xorlw	32	; case 32
  1863  007B0A  B4D8               	btfsc	status,2,c
  1864  007B0C  EF62  F03D         	goto	l2378
  1865  007B10  0A03               	xorlw	3	; case 35
  1866  007B12  B4D8               	btfsc	status,2,c
  1867  007B14  EF66  F03D         	goto	l2382
  1868  007B18  0A08               	xorlw	8	; case 43
  1869  007B1A  B4D8               	btfsc	status,2,c
  1870  007B1C  EF5E  F03D         	goto	l2374
  1871  007B20  0A06               	xorlw	6	; case 45
  1872  007B22  B4D8               	btfsc	status,2,c
  1873  007B24  EF4F  F03D         	goto	l2366
  1874  007B28  0A1D               	xorlw	29	; case 48
  1875  007B2A  B4D8               	btfsc	status,2,c
  1876  007B2C  EF5A  F03D         	goto	l2370
  1877  007B30  EF6A  F03D         	goto	l2386
  1878  007B34                     l2392:
  1879                           
  1880                           ;C:\Program Files\Microchip\xc8\v2.36\pic\sources\c99\common\doprnt.c: 711:         whil
      +                          e (!done) {
  1881  007B34  5052               	movf	vfpfcnvrt@done^0,w,c
  1882  007B36  1053               	iorwf	(vfpfcnvrt@done+1)^0,w,c
  1883  007B38  B4D8               	btfsc	status,2,c
  1884  007B3A  EFA1  F03D         	goto	u2041
  1885  007B3E  EFA3  F03D         	goto	u2040
  1886  007B42                     u2041:
  1887  007B42  EF70  F03D         	goto	l2390
  1888  007B46                     u2040:
  1889  007B46                     
  1890                           ;C:\Program Files\Microchip\xc8\v2.36\pic\sources\c99\common\doprnt.c: 738:         if (
      +                          flags & (1 << 0)) {
  1891  007B46  0100               	movlb	0	; () banked
  1892  007B48  A1A7               	btfss	_flags& (0+255),0,b
  1893  007B4A  EFA9  F03D         	goto	u2051
  1894  007B4E  EFAB  F03D         	goto	u2050
  1895  007B52                     u2051:
  1896  007B52  EFAC  F03D         	goto	l2396
  1897  007B56                     u2050:
  1898  007B56                     
  1899                           ; BSR set to: 0
  1900                           ;C:\Program Files\Microchip\xc8\v2.36\pic\sources\c99\common\doprnt.c: 739:             
      +                          flags &= ~(1 << 1);
  1901  007B56  93A7               	bcf	_flags& (0+255),1,b
  1902  007B58                     l2396:
  1903                           
  1904                           ; BSR set to: 0
  1905                           ;C:\Program Files\Microchip\xc8\v2.36\pic\sources\c99\common\doprnt.c: 745:         if (
      +                          (*fmt)[0] == '*') {
  1906  007B58  C042  FFD9         	movff	vfpfcnvrt@fmt,fsr2l
  1907  007B5C  C043  FFDA         	movff	vfpfcnvrt@fmt+1,fsr2h
  1908  007B60  CFDE FFF6          	movff	postinc2,tblptrl
  1909  007B64  CFDD FFF7          	movff	postdec2,tblptrh
  1910  007B68                     	if	0	;tblptru may be non-zero
  1911  007B68                     	endif
  1912  007B68                     	if	0	;tblptru may be non-zero
  1913  007B68                     	endif
  1914  007B68  0008               	tblrd		*
  1915  007B6A  50F5               	movf	tablat,w,c
  1916  007B6C  0A2A               	xorlw	42
  1917  007B6E  A4D8               	btfss	status,2,c
  1918  007B70  EFBC  F03D         	goto	u2061
  1919  007B74  EFBE  F03D         	goto	u2060
  1920  007B78                     u2061:
  1921  007B78  EFE7  F03D         	goto	l2404
  1922  007B7C                     u2060:
  1923  007B7C                     
  1924                           ; BSR set to: 0
  1925                           ;C:\Program Files\Microchip\xc8\v2.36\pic\sources\c99\common\doprnt.c: 746:             
      +                          ++*fmt;
  1926  007B7C  C042  FFD9         	movff	vfpfcnvrt@fmt,fsr2l
  1927  007B80  C043  FFDA         	movff	vfpfcnvrt@fmt+1,fsr2h
  1928  007B84  2ADE               	incf	postinc2,f,c
  1929  007B86  0E00               	movlw	0
  1930  007B88  22DD               	addwfc	postdec2,f,c
  1931                           
  1932                           ;C:\Program Files\Microchip\xc8\v2.36\pic\sources\c99\common\doprnt.c: 747:             
      +                          width = (*(int *)__va_arg(*(int **)ap, (int)0));
  1933  007B8A  C044  FFD9         	movff	vfpfcnvrt@ap,fsr2l
  1934  007B8E  C045  FFDA         	movff	vfpfcnvrt@ap+1,fsr2h
  1935  007B92  CFDF F046          	movff	indf2,??_vfpfcnvrt
  1936  007B96  0E02               	movlw	2
  1937  007B98  26DE               	addwf	postinc2,f,c
  1938  007B9A  CFDF F047          	movff	indf2,??_vfpfcnvrt+1
  1939  007B9E  0E00               	movlw	0
  1940  007BA0  22DD               	addwfc	postdec2,f,c
  1941  007BA2  C046  FFD9         	movff	??_vfpfcnvrt,fsr2l
  1942  007BA6  C047  FFDA         	movff	??_vfpfcnvrt+1,fsr2h
  1943  007BAA  CFDE F0A3          	movff	postinc2,_width
  1944  007BAE  CFDD F0A4          	movff	postdec2,_width+1
  1945  007BB2                     
  1946                           ; BSR set to: 0
  1947                           ;C:\Program Files\Microchip\xc8\v2.36\pic\sources\c99\common\doprnt.c: 748:             
      +                          if (width < 0) {
  1948  007BB2  BFA4               	btfsc	(_width+1)& (0+255),7,b
  1949  007BB4  EFE0  F03D         	goto	u2070
  1950  007BB8  EFDE  F03D         	goto	u2071
  1951  007BBC                     u2071:
  1952  007BBC  EF1D  F03E         	goto	l2412
  1953  007BC0                     u2070:
  1954  007BC0                     
  1955                           ; BSR set to: 0
  1956                           ;C:\Program Files\Microchip\xc8\v2.36\pic\sources\c99\common\doprnt.c: 749:             
      +                              flags |= (1 << 0);
  1957  007BC0  81A7               	bsf	_flags& (0+255),0,b
  1958                           
  1959                           ;C:\Program Files\Microchip\xc8\v2.36\pic\sources\c99\common\doprnt.c: 750:             
      +                              width = -width;
  1960  007BC2  6DA3               	negf	_width& (0+255),b
  1961  007BC4  1FA4               	comf	(_width+1)& (0+255),f,b
  1962  007BC6  B0D8               	btfsc	status,0,c
  1963  007BC8  2BA4               	incf	(_width+1)& (0+255),f,b
  1964  007BCA  EF1D  F03E         	goto	l2412
  1965  007BCE                     l2404:
  1966                           
  1967                           ; BSR set to: 0
  1968                           ;C:\Program Files\Microchip\xc8\v2.36\pic\sources\c99\common\doprnt.c: 753:             
      +                          width = atoi(*fmt);
  1969  007BCE  C042  FFD9         	movff	vfpfcnvrt@fmt,fsr2l
  1970  007BD2  C043  FFDA         	movff	vfpfcnvrt@fmt+1,fsr2h
  1971  007BD6  CFDE F008          	movff	postinc2,atoi@s
  1972  007BDA  CFDD F009          	movff	postdec2,atoi@s+1
  1973  007BDE  EC12  F038         	call	_atoi	;wreg free
  1974  007BE2  C008  F0A3         	movff	?_atoi,_width
  1975  007BE6  C009  F0A4         	movff	?_atoi+1,_width+1
  1976                           
  1977                           ;C:\Program Files\Microchip\xc8\v2.36\pic\sources\c99\common\doprnt.c: 754:             
      +                          while ((0 && isdigit((*fmt)[0]), ((unsigned)((*fmt)[0])-'0') < 10)) {
  1978  007BEA  EFFE  F03D         	goto	l2410
  1979  007BEE                     l2406:
  1980                           
  1981                           ;C:\Program Files\Microchip\xc8\v2.36\pic\sources\c99\common\doprnt.c: 755:             
      +                              ++*fmt;
  1982  007BEE  C042  FFD9         	movff	vfpfcnvrt@fmt,fsr2l
  1983  007BF2  C043  FFDA         	movff	vfpfcnvrt@fmt+1,fsr2h
  1984  007BF6  2ADE               	incf	postinc2,f,c
  1985  007BF8  0E00               	movlw	0
  1986  007BFA  22DD               	addwfc	postdec2,f,c
  1987  007BFC                     l2410:
  1988  007BFC  0ED0               	movlw	208
  1989  007BFE  6E46               	movwf	??_vfpfcnvrt^0,c
  1990  007C00  0EFF               	movlw	255
  1991  007C02  6E47               	movwf	(??_vfpfcnvrt+1)^0,c
  1992  007C04  C042  FFD9         	movff	vfpfcnvrt@fmt,fsr2l
  1993  007C08  C043  FFDA         	movff	vfpfcnvrt@fmt+1,fsr2h
  1994  007C0C  CFDE FFF6          	movff	postinc2,tblptrl
  1995  007C10  CFDD FFF7          	movff	postdec2,tblptrh
  1996  007C14                     	if	0	;tblptru may be non-zero
  1997  007C14                     	endif
  1998  007C14                     	if	0	;tblptru may be non-zero
  1999  007C14                     	endif
  2000  007C14  0008               	tblrd		*
  2001  007C16  50F5               	movf	tablat,w,c
  2002  007C18  6E48               	movwf	(??_vfpfcnvrt+2)^0,c
  2003  007C1A  6A49               	clrf	(??_vfpfcnvrt+3)^0,c
  2004  007C1C  5046               	movf	??_vfpfcnvrt^0,w,c
  2005  007C1E  2648               	addwf	(??_vfpfcnvrt+2)^0,f,c
  2006  007C20  5047               	movf	(??_vfpfcnvrt+1)^0,w,c
  2007  007C22  2249               	addwfc	(??_vfpfcnvrt+3)^0,f,c
  2008  007C24  5049               	movf	(??_vfpfcnvrt+3)^0,w,c
  2009  007C26  E109               	bnz	u2080
  2010  007C28  0E0A               	movlw	10
  2011  007C2A  5C48               	subwf	(??_vfpfcnvrt+2)^0,w,c
  2012  007C2C  A0D8               	btfss	status,0,c
  2013  007C2E  EF1B  F03E         	goto	u2081
  2014  007C32  EF1D  F03E         	goto	u2080
  2015  007C36                     u2081:
  2016  007C36  EFF7  F03D         	goto	l2406
  2017  007C3A                     u2080:
  2018  007C3A                     l2412:
  2019                           
  2020                           ;C:\Program Files\Microchip\xc8\v2.36\pic\sources\c99\common\doprnt.c: 847:         if (
      +                          (*fmt[0] == 'd') || (*fmt[0] == 'i')) {
  2021  007C3A  C042  FFD9         	movff	vfpfcnvrt@fmt,fsr2l
  2022  007C3E  C043  FFDA         	movff	vfpfcnvrt@fmt+1,fsr2h
  2023  007C42  CFDE FFF6          	movff	postinc2,tblptrl
  2024  007C46  CFDD FFF7          	movff	postdec2,tblptrh
  2025  007C4A                     	if	0	;tblptru may be non-zero
  2026  007C4A                     	endif
  2027  007C4A                     	if	0	;tblptru may be non-zero
  2028  007C4A                     	endif
  2029  007C4A  0008               	tblrd		*
  2030  007C4C  50F5               	movf	tablat,w,c
  2031  007C4E  0A64               	xorlw	100
  2032  007C50  B4D8               	btfsc	status,2,c
  2033  007C52  EF2D  F03E         	goto	u2091
  2034  007C56  EF2F  F03E         	goto	u2090
  2035  007C5A                     u2091:
  2036  007C5A  EF41  F03E         	goto	l2416
  2037  007C5E                     u2090:
  2038  007C5E  C042  FFD9         	movff	vfpfcnvrt@fmt,fsr2l
  2039  007C62  C043  FFDA         	movff	vfpfcnvrt@fmt+1,fsr2h
  2040  007C66  CFDE FFF6          	movff	postinc2,tblptrl
  2041  007C6A  CFDD FFF7          	movff	postdec2,tblptrh
  2042  007C6E                     	if	0	;tblptru may be non-zero
  2043  007C6E                     	endif
  2044  007C6E                     	if	0	;tblptru may be non-zero
  2045  007C6E                     	endif
  2046  007C6E  0008               	tblrd		*
  2047  007C70  50F5               	movf	tablat,w,c
  2048  007C72  0A69               	xorlw	105
  2049  007C74  A4D8               	btfss	status,2,c
  2050  007C76  EF3F  F03E         	goto	u2101
  2051  007C7A  EF41  F03E         	goto	u2100
  2052  007C7E                     u2101:
  2053  007C7E  EF81  F03E         	goto	l2422
  2054  007C82                     u2100:
  2055  007C82                     l2416:
  2056                           
  2057                           ;C:\Program Files\Microchip\xc8\v2.36\pic\sources\c99\common\doprnt.c: 849:             
      +                          ++*fmt;
  2058  007C82  C042  FFD9         	movff	vfpfcnvrt@fmt,fsr2l
  2059  007C86  C043  FFDA         	movff	vfpfcnvrt@fmt+1,fsr2h
  2060  007C8A  2ADE               	incf	postinc2,f,c
  2061  007C8C  0E00               	movlw	0
  2062  007C8E  22DD               	addwfc	postdec2,f,c
  2063                           
  2064                           ;C:\Program Files\Microchip\xc8\v2.36\pic\sources\c99\common\doprnt.c: 850:             
      +                          ll = (long long)(*(int *)__va_arg(*(int **)ap, (int)0));
  2065  007C90  C044  FFD9         	movff	vfpfcnvrt@ap,fsr2l
  2066  007C94  C045  FFDA         	movff	vfpfcnvrt@ap+1,fsr2h
  2067  007C98  CFDF F046          	movff	indf2,??_vfpfcnvrt
  2068  007C9C  0E02               	movlw	2
  2069  007C9E  26DE               	addwf	postinc2,f,c
  2070  007CA0  CFDF F047          	movff	indf2,??_vfpfcnvrt+1
  2071  007CA4  0E00               	movlw	0
  2072  007CA6  22DD               	addwfc	postdec2,f,c
  2073  007CA8  C046  FFD9         	movff	??_vfpfcnvrt,fsr2l
  2074  007CAC  C047  FFDA         	movff	??_vfpfcnvrt+1,fsr2h
  2075  007CB0  CFDE F04A          	movff	postinc2,vfpfcnvrt@ll
  2076  007CB4  CFDD F04B          	movff	postdec2,vfpfcnvrt@ll+1
  2077  007CB8  0E00               	movlw	0
  2078  007CBA  BE4B               	btfsc	(vfpfcnvrt@ll+1)^0,7,c
  2079  007CBC  0EFF               	movlw	-1
  2080  007CBE  6E4C               	movwf	(vfpfcnvrt@ll+2)^0,c
  2081  007CC0  6E4D               	movwf	(vfpfcnvrt@ll+3)^0,c
  2082  007CC2  6E4E               	movwf	(vfpfcnvrt@ll+4)^0,c
  2083  007CC4  6E4F               	movwf	(vfpfcnvrt@ll+5)^0,c
  2084  007CC6  6E50               	movwf	(vfpfcnvrt@ll+6)^0,c
  2085  007CC8  6E51               	movwf	(vfpfcnvrt@ll+7)^0,c
  2086  007CCA                     
  2087                           ;C:\Program Files\Microchip\xc8\v2.36\pic\sources\c99\common\doprnt.c: 852:             
      +                          return dtoa(fp, ll);
  2088  007CCA  C040  F01C         	movff	vfpfcnvrt@fp,dtoa@fp
  2089  007CCE  C041  F01D         	movff	vfpfcnvrt@fp+1,dtoa@fp+1
  2090  007CD2  C04A  F01E         	movff	vfpfcnvrt@ll,dtoa@d
  2091  007CD6  C04B  F01F         	movff	vfpfcnvrt@ll+1,dtoa@d+1
  2092  007CDA  C04C  F020         	movff	vfpfcnvrt@ll+2,dtoa@d+2
  2093  007CDE  C04D  F021         	movff	vfpfcnvrt@ll+3,dtoa@d+3
  2094  007CE2  C04E  F022         	movff	vfpfcnvrt@ll+4,dtoa@d+4
  2095  007CE6  C04F  F023         	movff	vfpfcnvrt@ll+5,dtoa@d+5
  2096  007CEA  C050  F024         	movff	vfpfcnvrt@ll+6,dtoa@d+6
  2097  007CEE  C051  F025         	movff	vfpfcnvrt@ll+7,dtoa@d+7
  2098  007CF2  ECB4  F03B         	call	_dtoa	;wreg free
  2099  007CF6  C01C  F040         	movff	?_dtoa,?_vfpfcnvrt
  2100  007CFA  C01D  F041         	movff	?_dtoa+1,?_vfpfcnvrt+1
  2101  007CFE  EFD2  F03E         	goto	l1056
  2102  007D02                     l2422:
  2103                           
  2104                           ;C:\Program Files\Microchip\xc8\v2.36\pic\sources\c99\common\doprnt.c: 1372:         if 
      +                          ((*fmt)[0] == '%') {
  2105  007D02  C042  FFD9         	movff	vfpfcnvrt@fmt,fsr2l
  2106  007D06  C043  FFDA         	movff	vfpfcnvrt@fmt+1,fsr2h
  2107  007D0A  CFDE FFF6          	movff	postinc2,tblptrl
  2108  007D0E  CFDD FFF7          	movff	postdec2,tblptrh
  2109  007D12                     	if	0	;tblptru may be non-zero
  2110  007D12                     	endif
  2111  007D12                     	if	0	;tblptru may be non-zero
  2112  007D12                     	endif
  2113  007D12  0008               	tblrd		*
  2114  007D14  50F5               	movf	tablat,w,c
  2115  007D16  0A25               	xorlw	37
  2116  007D18  A4D8               	btfss	status,2,c
  2117  007D1A  EF91  F03E         	goto	u2111
  2118  007D1E  EF93  F03E         	goto	u2110
  2119  007D22                     u2111:
  2120  007D22  EFAA  F03E         	goto	l2432
  2121  007D26                     u2110:
  2122  007D26                     
  2123                           ;C:\Program Files\Microchip\xc8\v2.36\pic\sources\c99\common\doprnt.c: 1373:            
      +                           ++*fmt;
  2124  007D26  C042  FFD9         	movff	vfpfcnvrt@fmt,fsr2l
  2125  007D2A  C043  FFDA         	movff	vfpfcnvrt@fmt+1,fsr2h
  2126  007D2E  2ADE               	incf	postinc2,f,c
  2127  007D30  0E00               	movlw	0
  2128  007D32  22DD               	addwfc	postdec2,f,c
  2129  007D34                     
  2130                           ;C:\Program Files\Microchip\xc8\v2.36\pic\sources\c99\common\doprnt.c: 1374:            
      +                           fputc((int)'%', fp);
  2131  007D34  0E00               	movlw	0
  2132  007D36  6E02               	movwf	(fputc@c+1)^0,c
  2133  007D38  0E25               	movlw	37
  2134  007D3A  6E01               	movwf	fputc@c^0,c
  2135  007D3C  C040  F003         	movff	vfpfcnvrt@fp,fputc@fp
  2136  007D40  C041  F004         	movff	vfpfcnvrt@fp+1,fputc@fp+1
  2137  007D44  EC2E  F036         	call	_fputc	;wreg free
  2138  007D48                     l2428:
  2139                           
  2140                           ;C:\Program Files\Microchip\xc8\v2.36\pic\sources\c99\common\doprnt.c: 1375:            
      +                           return 1;
  2141  007D48  0E00               	movlw	0
  2142  007D4A  6E41               	movwf	(?_vfpfcnvrt+1)^0,c
  2143  007D4C  0E01               	movlw	1
  2144  007D4E  6E40               	movwf	?_vfpfcnvrt^0,c
  2145  007D50  EFD2  F03E         	goto	l1056
  2146  007D54                     l2432:
  2147                           
  2148                           ;C:\Program Files\Microchip\xc8\v2.36\pic\sources\c99\common\doprnt.c: 1379:         ++*
      +                          fmt;
  2149  007D54  C042  FFD9         	movff	vfpfcnvrt@fmt,fsr2l
  2150  007D58  C043  FFDA         	movff	vfpfcnvrt@fmt+1,fsr2h
  2151  007D5C  2ADE               	incf	postinc2,f,c
  2152  007D5E  0E00               	movlw	0
  2153  007D60  22DD               	addwfc	postdec2,f,c
  2154  007D62                     
  2155                           ;C:\Program Files\Microchip\xc8\v2.36\pic\sources\c99\common\doprnt.c: 1380:         ret
      +                          urn 0;
  2156  007D62  0E00               	movlw	0
  2157  007D64  6E41               	movwf	(?_vfpfcnvrt+1)^0,c
  2158  007D66  0E00               	movlw	0
  2159  007D68  6E40               	movwf	?_vfpfcnvrt^0,c
  2160  007D6A  EFD2  F03E         	goto	l1056
  2161  007D6E                     l2438:
  2162                           
  2163                           ;C:\Program Files\Microchip\xc8\v2.36\pic\sources\c99\common\doprnt.c: 1384:     fputc((
      +                          int)(*fmt)[0], fp);
  2164  007D6E  C042  FFD9         	movff	vfpfcnvrt@fmt,fsr2l
  2165  007D72  C043  FFDA         	movff	vfpfcnvrt@fmt+1,fsr2h
  2166  007D76  CFDE FFF6          	movff	postinc2,tblptrl
  2167  007D7A  CFDD FFF7          	movff	postdec2,tblptrh
  2168  007D7E                     	if	0	;tblptru may be non-zero
  2169  007D7E                     	endif
  2170  007D7E                     	if	0	;tblptru may be non-zero
  2171  007D7E                     	endif
  2172  007D7E  0008               	tblrd		*
  2173  007D80  50F5               	movf	tablat,w,c
  2174  007D82  6E01               	movwf	fputc@c^0,c
  2175  007D84  6A02               	clrf	(fputc@c+1)^0,c
  2176  007D86  C040  F003         	movff	vfpfcnvrt@fp,fputc@fp
  2177  007D8A  C041  F004         	movff	vfpfcnvrt@fp+1,fputc@fp+1
  2178  007D8E  EC2E  F036         	call	_fputc	;wreg free
  2179  007D92                     
  2180                           ;C:\Program Files\Microchip\xc8\v2.36\pic\sources\c99\common\doprnt.c: 1385:     ++*fmt;
  2181  007D92  C042  FFD9         	movff	vfpfcnvrt@fmt,fsr2l
  2182  007D96  C043  FFDA         	movff	vfpfcnvrt@fmt+1,fsr2h
  2183  007D9A  2ADE               	incf	postinc2,f,c
  2184  007D9C  0E00               	movlw	0
  2185  007D9E  22DD               	addwfc	postdec2,f,c
  2186  007DA0  EFA4  F03E         	goto	l2428
  2187  007DA4                     l1056:
  2188  007DA4  0012               	return		;funcret
  2189  007DA6                     __end_of_vfpfcnvrt:
  2190                           	callstack 0
  2191                           
  2192 ;; *************** function _dtoa *****************
  2193 ;; Defined at:
  2194 ;;		line 287 in file "C:\Program Files\Microchip\xc8\v2.36\pic\sources\c99\common\doprnt.c"
  2195 ;; Parameters:    Size  Location     Type
  2196 ;;  fp              2   27[COMRAM] PTR struct _IO_FILE
  2197 ;;		 -> sprintf@f(11), 
  2198 ;;  d               8   29[COMRAM] long long 
  2199 ;; Auto vars:     Size  Location     Type
  2200 ;;  n               8   53[COMRAM] long long 
  2201 ;;  i               2   61[COMRAM] int 
  2202 ;;  s               2   51[COMRAM] int 
  2203 ;;  w               2   49[COMRAM] int 
  2204 ;;  p               2   47[COMRAM] int 
  2205 ;; Return value:  Size  Location     Type
  2206 ;;                  2   27[COMRAM] int 
  2207 ;; Registers used:
  2208 ;;		wreg, fsr1l, fsr1h, fsr2l, fsr2h, status,2, status,0, cstack
  2209 ;; Tracked objects:
  2210 ;;		On entry : 0/0
  2211 ;;		On exit  : 0/0
  2212 ;;		Unchanged: 0/0
  2213 ;; Data sizes:     COMRAM   BANK0   BANK1   BANK2   BANK3   BANK4   BANK5
  2214 ;;      Params:        10       0       0       0       0       0       0
  2215 ;;      Locals:        18       0       0       0       0       0       0
  2216 ;;      Temps:          8       0       0       0       0       0       0
  2217 ;;      Totals:        36       0       0       0       0       0       0
  2218 ;;Total ram usage:       36 bytes
  2219 ;; Hardware stack levels used: 1
  2220 ;; Hardware stack levels required when called: 4
  2221 ;; This function calls:
  2222 ;;		___aodiv
  2223 ;;		___aomod
  2224 ;;		_abs
  2225 ;;		_pad
  2226 ;; This function is called by:
  2227 ;;		_vfpfcnvrt
  2228 ;; This function uses a non-reentrant model
  2229 ;;
  2230                           
  2231                           	psect	text4
  2232  007768                     __ptext4:
  2233                           	callstack 0
  2234  007768                     _dtoa:
  2235                           	callstack 23
  2236  007768                     
  2237                           ;C:\Program Files\Microchip\xc8\v2.36\pic\sources\c99\common\doprnt.c: 287: static int d
      +                          toa(FILE *fp, long long d);C:\Program Files\Microchip\xc8\v2.36\pic\sources\c99\common\d
      +                          oprnt.c: 288: {;C:\Program Files\Microchip\xc8\v2.36\pic\sources\c99\common\doprnt.c: 28
      +                          9:     int i, p, s, w;;C:\Program Files\Microchip\xc8\v2.36\pic\sources\c99\common\doprn
      +                          t.c: 290:     long long n;;C:\Program Files\Microchip\xc8\v2.36\pic\sources\c99\common\d
      +                          oprnt.c: 293:     n = d;
  2238  007768  C01E  F036         	movff	dtoa@d,dtoa@n
  2239  00776C  C01F  F037         	movff	dtoa@d+1,dtoa@n+1
  2240  007770  C020  F038         	movff	dtoa@d+2,dtoa@n+2
  2241  007774  C021  F039         	movff	dtoa@d+3,dtoa@n+3
  2242  007778  C022  F03A         	movff	dtoa@d+4,dtoa@n+4
  2243  00777C  C023  F03B         	movff	dtoa@d+5,dtoa@n+5
  2244  007780  C024  F03C         	movff	dtoa@d+6,dtoa@n+6
  2245  007784  C025  F03D         	movff	dtoa@d+7,dtoa@n+7
  2246  007788                     
  2247                           ;C:\Program Files\Microchip\xc8\v2.36\pic\sources\c99\common\doprnt.c: 294:     s = n < 
      +                          0 ? 1 : 0;
  2248  007788  BE3D               	btfsc	(dtoa@n+7)^0,7,c
  2249  00778A  EFC9  F03B         	goto	u1791
  2250  00778E  EFCC  F03B         	goto	u1790
  2251  007792                     u1791:
  2252  007792  0E01               	movlw	1
  2253  007794  EFCD  F03B         	goto	u1800
  2254  007798                     u1790:
  2255  007798  0E00               	movlw	0
  2256  00779A                     u1800:
  2257  00779A  6E34               	movwf	dtoa@s^0,c
  2258  00779C  6A35               	clrf	(dtoa@s+1)^0,c
  2259                           
  2260                           ;C:\Program Files\Microchip\xc8\v2.36\pic\sources\c99\common\doprnt.c: 295:     if (s) {
  2261  00779E  5034               	movf	dtoa@s^0,w,c
  2262  0077A0  1035               	iorwf	(dtoa@s+1)^0,w,c
  2263  0077A2  B4D8               	btfsc	status,2,c
  2264  0077A4  EFD6  F03B         	goto	u1811
  2265  0077A8  EFD8  F03B         	goto	u1810
  2266  0077AC                     u1811:
  2267  0077AC  EFE8  F03B         	goto	l2226
  2268  0077B0                     u1810:
  2269  0077B0                     
  2270                           ;C:\Program Files\Microchip\xc8\v2.36\pic\sources\c99\common\doprnt.c: 296:         n = 
      +                          -n;
  2271  0077B0  1E3D               	comf	(dtoa@n+7)^0,f,c
  2272  0077B2  1E3C               	comf	(dtoa@n+6)^0,f,c
  2273  0077B4  1E3B               	comf	(dtoa@n+5)^0,f,c
  2274  0077B6  1E3A               	comf	(dtoa@n+4)^0,f,c
  2275  0077B8  1E39               	comf	(dtoa@n+3)^0,f,c
  2276  0077BA  1E38               	comf	(dtoa@n+2)^0,f,c
  2277  0077BC  1E37               	comf	(dtoa@n+1)^0,f,c
  2278  0077BE  6C36               	negf	dtoa@n^0,c
  2279  0077C0  0E00               	movlw	0
  2280  0077C2  2237               	addwfc	(dtoa@n+1)^0,f,c
  2281  0077C4  2238               	addwfc	(dtoa@n+2)^0,f,c
  2282  0077C6  2239               	addwfc	(dtoa@n+3)^0,f,c
  2283  0077C8  223A               	addwfc	(dtoa@n+4)^0,f,c
  2284  0077CA  223B               	addwfc	(dtoa@n+5)^0,f,c
  2285  0077CC  223C               	addwfc	(dtoa@n+6)^0,f,c
  2286  0077CE  223D               	addwfc	(dtoa@n+7)^0,f,c
  2287  0077D0                     l2226:
  2288                           
  2289                           ;C:\Program Files\Microchip\xc8\v2.36\pic\sources\c99\common\doprnt.c: 300:     if (!(pr
      +                          ec < 0)) {
  2290  0077D0  0100               	movlb	0	; () banked
  2291  0077D2  BFA6               	btfsc	(_prec+1)& (0+255),7,b
  2292  0077D4  EFEE  F03B         	goto	u1821
  2293  0077D8  EFF0  F03B         	goto	u1820
  2294  0077DC                     u1821:
  2295  0077DC  EFF1  F03B         	goto	l2230
  2296  0077E0                     u1820:
  2297  0077E0                     
  2298                           ; BSR set to: 0
  2299                           ;C:\Program Files\Microchip\xc8\v2.36\pic\sources\c99\common\doprnt.c: 301:         flag
      +                          s &= ~(1 << 1);
  2300  0077E0  93A7               	bcf	_flags& (0+255),1,b
  2301  0077E2                     l2230:
  2302                           
  2303                           ; BSR set to: 0
  2304                           ;C:\Program Files\Microchip\xc8\v2.36\pic\sources\c99\common\doprnt.c: 303:     p = (0 <
      +                           prec) ? prec : 1;
  2305  0077E2  BFA6               	btfsc	(_prec+1)& (0+255),7,b
  2306  0077E4  EFFE  F03B         	goto	u1830
  2307  0077E8  51A6               	movf	(_prec+1)& (0+255),w,b
  2308  0077EA  E106               	bnz	u1831
  2309  0077EC  05A5               	decf	_prec& (0+255),w,b
  2310  0077EE  B0D8               	btfsc	status,0,c
  2311  0077F0  EFFC  F03B         	goto	u1831
  2312  0077F4  EFFE  F03B         	goto	u1830
  2313  0077F8                     u1831:
  2314  0077F8  EF04  F03C         	goto	l1009
  2315  0077FC                     u1830:
  2316  0077FC                     
  2317                           ; BSR set to: 0
  2318  0077FC  0E00               	movlw	0
  2319  0077FE  6E31               	movwf	(dtoa@p+1)^0,c
  2320  007800  0E01               	movlw	1
  2321  007802  6E30               	movwf	dtoa@p^0,c
  2322  007804  EF08  F03C         	goto	l1011
  2323  007808                     l1009:
  2324                           
  2325                           ; BSR set to: 0
  2326  007808  C0A5  F030         	movff	_prec,dtoa@p
  2327  00780C  C0A6  F031         	movff	_prec+1,dtoa@p+1
  2328  007810                     l1011:
  2329                           
  2330                           ; BSR set to: 0
  2331                           ;C:\Program Files\Microchip\xc8\v2.36\pic\sources\c99\common\doprnt.c: 304:     w = widt
      +                          h;
  2332  007810  C0A3  F032         	movff	_width,dtoa@w
  2333  007814  C0A4  F033         	movff	_width+1,dtoa@w+1
  2334  007818                     
  2335                           ; BSR set to: 0
  2336                           ;C:\Program Files\Microchip\xc8\v2.36\pic\sources\c99\common\doprnt.c: 305:     if (s ||
      +                           (flags & (1 << 2))) {
  2337  007818  5034               	movf	dtoa@s^0,w,c
  2338  00781A  1035               	iorwf	(dtoa@s+1)^0,w,c
  2339  00781C  A4D8               	btfss	status,2,c
  2340  00781E  EF13  F03C         	goto	u1841
  2341  007822  EF15  F03C         	goto	u1840
  2342  007826                     u1841:
  2343  007826  EF1C  F03C         	goto	l2238
  2344  00782A                     u1840:
  2345  00782A                     
  2346                           ; BSR set to: 0
  2347  00782A  A5A7               	btfss	_flags& (0+255),2,b
  2348  00782C  EF1A  F03C         	goto	u1851
  2349  007830  EF1C  F03C         	goto	u1850
  2350  007834                     u1851:
  2351  007834  EF1F  F03C         	goto	l2240
  2352  007838                     u1850:
  2353  007838                     l2238:
  2354                           
  2355                           ; BSR set to: 0
  2356                           ;C:\Program Files\Microchip\xc8\v2.36\pic\sources\c99\common\doprnt.c: 306:         --w;
  2357  007838  0632               	decf	dtoa@w^0,f,c
  2358  00783A  A0D8               	btfss	status,0,c
  2359  00783C  0633               	decf	(dtoa@w+1)^0,f,c
  2360  00783E                     l2240:
  2361                           
  2362                           ; BSR set to: 0
  2363                           ;C:\Program Files\Microchip\xc8\v2.36\pic\sources\c99\common\doprnt.c: 310:     i = size
      +                          of(dbuf) - 1;
  2364  00783E  0E00               	movlw	0
  2365  007840  6E3F               	movwf	(dtoa@i+1)^0,c
  2366  007842  0E1F               	movlw	31
  2367  007844  6E3E               	movwf	dtoa@i^0,c
  2368  007846                     
  2369                           ; BSR set to: 0
  2370                           ;C:\Program Files\Microchip\xc8\v2.36\pic\sources\c99\common\doprnt.c: 311:     dbuf[i] 
      +                          = '\0';
  2371  007846  0E00               	movlw	0
  2372  007848  6FC8               	movwf	(_dbuf+31)& (0+255),b
  2373                           
  2374                           ;C:\Program Files\Microchip\xc8\v2.36\pic\sources\c99\common\doprnt.c: 312:     while (!
      +                          (i < 1) && (n || (0 < p) || ((0 < w) && (flags & (1 << 1))))) {
  2375  00784A  EFA3  F03C         	goto	l2254
  2376  00784E                     l2244:
  2377                           
  2378                           ;C:\Program Files\Microchip\xc8\v2.36\pic\sources\c99\common\doprnt.c: 313:         --i;
  2379  00784E  063E               	decf	dtoa@i^0,f,c
  2380  007850  A0D8               	btfss	status,0,c
  2381  007852  063F               	decf	(dtoa@i+1)^0,f,c
  2382  007854                     
  2383                           ;C:\Program Files\Microchip\xc8\v2.36\pic\sources\c99\common\doprnt.c: 314:         dbuf
      +                          [i] = (char)((int)'0' + abs(n % 10));
  2384  007854  0EA9               	movlw	low _dbuf
  2385  007856  243E               	addwf	dtoa@i^0,w,c
  2386  007858  6ED9               	movwf	fsr2l,c
  2387  00785A  0E00               	movlw	high _dbuf
  2388  00785C  203F               	addwfc	(dtoa@i+1)^0,w,c
  2389  00785E  6EDA               	movwf	fsr2h,c
  2390  007860  C036  F001         	movff	dtoa@n,___aomod@dividend
  2391  007864  C037  F002         	movff	dtoa@n+1,___aomod@dividend+1
  2392  007868  C038  F003         	movff	dtoa@n+2,___aomod@dividend+2
  2393  00786C  C039  F004         	movff	dtoa@n+3,___aomod@dividend+3
  2394  007870  C03A  F005         	movff	dtoa@n+4,___aomod@dividend+4
  2395  007874  C03B  F006         	movff	dtoa@n+5,___aomod@dividend+5
  2396  007878  C03C  F007         	movff	dtoa@n+6,___aomod@dividend+6
  2397  00787C  C03D  F008         	movff	dtoa@n+7,___aomod@dividend+7
  2398  007880  0E0A               	movlw	10
  2399  007882  6E09               	movwf	___aomod@divisor^0,c
  2400  007884  0E00               	movlw	0
  2401  007886  6E0A               	movwf	(___aomod@divisor+1)^0,c
  2402  007888  0E00               	movlw	0
  2403  00788A  6E0B               	movwf	(___aomod@divisor+2)^0,c
  2404  00788C  0E00               	movlw	0
  2405  00788E  6E0C               	movwf	(___aomod@divisor+3)^0,c
  2406  007890  0E00               	movlw	0
  2407  007892  6E0D               	movwf	(___aomod@divisor+4)^0,c
  2408  007894  0E00               	movlw	0
  2409  007896  6E0E               	movwf	(___aomod@divisor+5)^0,c
  2410  007898  0E00               	movlw	0
  2411  00789A  6E0F               	movwf	(___aomod@divisor+6)^0,c
  2412  00789C  0E00               	movlw	0
  2413  00789E  6E10               	movwf	(___aomod@divisor+7)^0,c
  2414  0078A0  ECBD  F038         	call	___aomod	;wreg free
  2415  0078A4  C001  F026         	movff	?___aomod,??_dtoa
  2416  0078A8  C002  F027         	movff	?___aomod+1,??_dtoa+1
  2417  0078AC  C003  F028         	movff	?___aomod+2,??_dtoa+2
  2418  0078B0  C004  F029         	movff	?___aomod+3,??_dtoa+3
  2419  0078B4  C005  F02A         	movff	?___aomod+4,??_dtoa+4
  2420  0078B8  C006  F02B         	movff	?___aomod+5,??_dtoa+5
  2421  0078BC  C007  F02C         	movff	?___aomod+6,??_dtoa+6
  2422  0078C0  C008  F02D         	movff	?___aomod+7,??_dtoa+7
  2423  0078C4  C026  F013         	movff	??_dtoa,abs@a
  2424  0078C8  C028  F014         	movff	??_dtoa+2,abs@a+1
  2425  0078CC  ECC3  F032         	call	_abs	;wreg free
  2426  0078D0  5013               	movf	?_abs^0,w,c
  2427  0078D2  0F30               	addlw	48
  2428  0078D4  6EDF               	movwf	indf2,c
  2429  0078D6                     
  2430                           ;C:\Program Files\Microchip\xc8\v2.36\pic\sources\c99\common\doprnt.c: 315:         --p;
  2431  0078D6  0630               	decf	dtoa@p^0,f,c
  2432  0078D8  A0D8               	btfss	status,0,c
  2433  0078DA  0631               	decf	(dtoa@p+1)^0,f,c
  2434  0078DC                     
  2435                           ;C:\Program Files\Microchip\xc8\v2.36\pic\sources\c99\common\doprnt.c: 316:         --w;
  2436  0078DC  0632               	decf	dtoa@w^0,f,c
  2437  0078DE  A0D8               	btfss	status,0,c
  2438  0078E0  0633               	decf	(dtoa@w+1)^0,f,c
  2439  0078E2                     
  2440                           ;C:\Program Files\Microchip\xc8\v2.36\pic\sources\c99\common\doprnt.c: 317:         n = 
      +                          n / 10;
  2441  0078E2  C036  F001         	movff	dtoa@n,___aodiv@dividend
  2442  0078E6  C037  F002         	movff	dtoa@n+1,___aodiv@dividend+1
  2443  0078EA  C038  F003         	movff	dtoa@n+2,___aodiv@dividend+2
  2444  0078EE  C039  F004         	movff	dtoa@n+3,___aodiv@dividend+3
  2445  0078F2  C03A  F005         	movff	dtoa@n+4,___aodiv@dividend+4
  2446  0078F6  C03B  F006         	movff	dtoa@n+5,___aodiv@dividend+5
  2447  0078FA  C03C  F007         	movff	dtoa@n+6,___aodiv@dividend+6
  2448  0078FE  C03D  F008         	movff	dtoa@n+7,___aodiv@dividend+7
  2449  007902  0E0A               	movlw	10
  2450  007904  6E09               	movwf	___aodiv@divisor^0,c
  2451  007906  0E00               	movlw	0
  2452  007908  6E0A               	movwf	(___aodiv@divisor+1)^0,c
  2453  00790A  0E00               	movlw	0
  2454  00790C  6E0B               	movwf	(___aodiv@divisor+2)^0,c
  2455  00790E  0E00               	movlw	0
  2456  007910  6E0C               	movwf	(___aodiv@divisor+3)^0,c
  2457  007912  0E00               	movlw	0
  2458  007914  6E0D               	movwf	(___aodiv@divisor+4)^0,c
  2459  007916  0E00               	movlw	0
  2460  007918  6E0E               	movwf	(___aodiv@divisor+5)^0,c
  2461  00791A  0E00               	movlw	0
  2462  00791C  6E0F               	movwf	(___aodiv@divisor+6)^0,c
  2463  00791E  0E00               	movlw	0
  2464  007920  6E10               	movwf	(___aodiv@divisor+7)^0,c
  2465  007922  EC24  F03A         	call	___aodiv	;wreg free
  2466  007926  C001  F036         	movff	?___aodiv,dtoa@n
  2467  00792A  C002  F037         	movff	?___aodiv+1,dtoa@n+1
  2468  00792E  C003  F038         	movff	?___aodiv+2,dtoa@n+2
  2469  007932  C004  F039         	movff	?___aodiv+3,dtoa@n+3
  2470  007936  C005  F03A         	movff	?___aodiv+4,dtoa@n+4
  2471  00793A  C006  F03B         	movff	?___aodiv+5,dtoa@n+5
  2472  00793E  C007  F03C         	movff	?___aodiv+6,dtoa@n+6
  2473  007942  C008  F03D         	movff	?___aodiv+7,dtoa@n+7
  2474  007946                     l2254:
  2475                           
  2476                           ;C:\Program Files\Microchip\xc8\v2.36\pic\sources\c99\common\doprnt.c: 312:     while (!
      +                          (i < 1) && (n || (0 < p) || ((0 < w) && (flags & (1 << 1))))) {
  2477  007946  BE3F               	btfsc	(dtoa@i+1)^0,7,c
  2478  007948  EFAE  F03C         	goto	u1861
  2479  00794C  503F               	movf	(dtoa@i+1)^0,w,c
  2480  00794E  E108               	bnz	u1860
  2481  007950  043E               	decf	dtoa@i^0,w,c
  2482  007952  A0D8               	btfss	status,0,c
  2483  007954  EFAE  F03C         	goto	u1861
  2484  007958  EFB0  F03C         	goto	u1860
  2485  00795C                     u1861:
  2486  00795C  EFE1  F03C         	goto	l2264
  2487  007960                     u1860:
  2488  007960  5036               	movf	dtoa@n^0,w,c
  2489  007962  1037               	iorwf	(dtoa@n+1)^0,w,c
  2490  007964  1038               	iorwf	(dtoa@n+2)^0,w,c
  2491  007966  1039               	iorwf	(dtoa@n+3)^0,w,c
  2492  007968  103A               	iorwf	(dtoa@n+4)^0,w,c
  2493  00796A  103B               	iorwf	(dtoa@n+5)^0,w,c
  2494  00796C  103C               	iorwf	(dtoa@n+6)^0,w,c
  2495  00796E  103D               	iorwf	(dtoa@n+7)^0,w,c
  2496  007970  A4D8               	btfss	status,2,c
  2497  007972  EFBD  F03C         	goto	u1871
  2498  007976  EFBF  F03C         	goto	u1870
  2499  00797A                     u1871:
  2500  00797A  EF27  F03C         	goto	l2244
  2501  00797E                     u1870:
  2502  00797E  BE31               	btfsc	(dtoa@p+1)^0,7,c
  2503  007980  EFCC  F03C         	goto	u1880
  2504  007984  5031               	movf	(dtoa@p+1)^0,w,c
  2505  007986  E106               	bnz	u1881
  2506  007988  0430               	decf	dtoa@p^0,w,c
  2507  00798A  B0D8               	btfsc	status,0,c
  2508  00798C  EFCA  F03C         	goto	u1881
  2509  007990  EFCC  F03C         	goto	u1880
  2510  007994                     u1881:
  2511  007994  EF27  F03C         	goto	l2244
  2512  007998                     u1880:
  2513  007998  BE33               	btfsc	(dtoa@w+1)^0,7,c
  2514  00799A  EFD7  F03C         	goto	u1891
  2515  00799E  5033               	movf	(dtoa@w+1)^0,w,c
  2516  0079A0  E108               	bnz	u1890
  2517  0079A2  0432               	decf	dtoa@w^0,w,c
  2518  0079A4  A0D8               	btfss	status,0,c
  2519  0079A6  EFD7  F03C         	goto	u1891
  2520  0079AA  EFD9  F03C         	goto	u1890
  2521  0079AE                     u1891:
  2522  0079AE  EFE1  F03C         	goto	l2264
  2523  0079B2                     u1890:
  2524  0079B2  0100               	movlb	0	; () banked
  2525  0079B4  B3A7               	btfsc	_flags& (0+255),1,b
  2526  0079B6  EFDF  F03C         	goto	u1901
  2527  0079BA  EFE1  F03C         	goto	u1900
  2528  0079BE                     u1901:
  2529  0079BE  EF27  F03C         	goto	l2244
  2530  0079C2                     u1900:
  2531  0079C2                     l2264:
  2532                           
  2533                           ;C:\Program Files\Microchip\xc8\v2.36\pic\sources\c99\common\doprnt.c: 321:     if (s ||
      +                           (flags & (1 << 2))) {
  2534  0079C2  5034               	movf	dtoa@s^0,w,c
  2535  0079C4  1035               	iorwf	(dtoa@s+1)^0,w,c
  2536  0079C6  A4D8               	btfss	status,2,c
  2537  0079C8  EFE8  F03C         	goto	u1911
  2538  0079CC  EFEA  F03C         	goto	u1910
  2539  0079D0                     u1911:
  2540  0079D0  EFF2  F03C         	goto	l2268
  2541  0079D4                     u1910:
  2542  0079D4  0100               	movlb	0	; () banked
  2543  0079D6  A5A7               	btfss	_flags& (0+255),2,b
  2544  0079D8  EFF0  F03C         	goto	u1921
  2545  0079DC  EFF2  F03C         	goto	u1920
  2546  0079E0                     u1921:
  2547  0079E0  EF10  F03D         	goto	l2278
  2548  0079E4                     u1920:
  2549  0079E4                     l2268:
  2550                           
  2551                           ;C:\Program Files\Microchip\xc8\v2.36\pic\sources\c99\common\doprnt.c: 322:         --i;
  2552  0079E4  063E               	decf	dtoa@i^0,f,c
  2553  0079E6  A0D8               	btfss	status,0,c
  2554  0079E8  063F               	decf	(dtoa@i+1)^0,f,c
  2555  0079EA                     
  2556                           ;C:\Program Files\Microchip\xc8\v2.36\pic\sources\c99\common\doprnt.c: 323:         dbuf
      +                          [i] = s ? '-' : '+';
  2557  0079EA  5034               	movf	dtoa@s^0,w,c
  2558  0079EC  1035               	iorwf	(dtoa@s+1)^0,w,c
  2559  0079EE  A4D8               	btfss	status,2,c
  2560  0079F0  EFFC  F03C         	goto	u1931
  2561  0079F4  EFFE  F03C         	goto	u1930
  2562  0079F8                     u1931:
  2563  0079F8  EF04  F03D         	goto	l2274
  2564  0079FC                     u1930:
  2565  0079FC  0E00               	movlw	0
  2566  0079FE  6E2F               	movwf	(_dtoa$1081+1)^0,c
  2567  007A00  0E2B               	movlw	43
  2568  007A02  6E2E               	movwf	_dtoa$1081^0,c
  2569  007A04  EF08  F03D         	goto	l2276
  2570  007A08                     l2274:
  2571  007A08  0E00               	movlw	0
  2572  007A0A  6E2F               	movwf	(_dtoa$1081+1)^0,c
  2573  007A0C  0E2D               	movlw	45
  2574  007A0E  6E2E               	movwf	_dtoa$1081^0,c
  2575  007A10                     l2276:
  2576  007A10  0EA9               	movlw	low _dbuf
  2577  007A12  243E               	addwf	dtoa@i^0,w,c
  2578  007A14  6ED9               	movwf	fsr2l,c
  2579  007A16  0E00               	movlw	high _dbuf
  2580  007A18  203F               	addwfc	(dtoa@i+1)^0,w,c
  2581  007A1A  6EDA               	movwf	fsr2h,c
  2582  007A1C  C02E  FFDF         	movff	_dtoa$1081,indf2
  2583  007A20                     l2278:
  2584                           
  2585                           ;C:\Program Files\Microchip\xc8\v2.36\pic\sources\c99\common\doprnt.c: 327:     return p
      +                          ad(fp, &dbuf[i], w);
  2586  007A20  C01C  F011         	movff	dtoa@fp,pad@fp
  2587  007A24  C01D  F012         	movff	dtoa@fp+1,pad@fp+1
  2588  007A28  0EA9               	movlw	low _dbuf
  2589  007A2A  243E               	addwf	dtoa@i^0,w,c
  2590  007A2C  6E13               	movwf	pad@buf^0,c
  2591  007A2E  0E00               	movlw	high _dbuf
  2592  007A30  203F               	addwfc	(dtoa@i+1)^0,w,c
  2593  007A32  6E14               	movwf	(pad@buf+1)^0,c
  2594  007A34  C032  F015         	movff	dtoa@w,pad@p
  2595  007A38  C033  F016         	movff	dtoa@w+1,pad@p+1
  2596  007A3C  ECCB  F035         	call	_pad	;wreg free
  2597  007A40  C011  F01C         	movff	?_pad,?_dtoa
  2598  007A44  C012  F01D         	movff	?_pad+1,?_dtoa+1
  2599  007A48  0012               	return		;funcret
  2600  007A4A                     __end_of_dtoa:
  2601                           	callstack 0
  2602                           
  2603 ;; *************** function _pad *****************
  2604 ;; Defined at:
  2605 ;;		line 72 in file "C:\Program Files\Microchip\xc8\v2.36\pic\sources\c99\common\doprnt.c"
  2606 ;; Parameters:    Size  Location     Type
  2607 ;;  fp              2   16[COMRAM] PTR struct _IO_FILE
  2608 ;;		 -> sprintf@f(11), 
  2609 ;;  buf             2   18[COMRAM] PTR unsigned char 
  2610 ;;		 -> dbuf(32), 
  2611 ;;  p               2   20[COMRAM] int 
  2612 ;; Auto vars:     Size  Location     Type
  2613 ;;  w               2   25[COMRAM] int 
  2614 ;;  i               2   23[COMRAM] int 
  2615 ;; Return value:  Size  Location     Type
  2616 ;;                  2   16[COMRAM] int 
  2617 ;; Registers used:
  2618 ;;		wreg, fsr1l, fsr1h, fsr2l, fsr2h, status,2, status,0, cstack
  2619 ;; Tracked objects:
  2620 ;;		On entry : 0/0
  2621 ;;		On exit  : 0/0
  2622 ;;		Unchanged: 0/0
  2623 ;; Data sizes:     COMRAM   BANK0   BANK1   BANK2   BANK3   BANK4   BANK5
  2624 ;;      Params:         6       0       0       0       0       0       0
  2625 ;;      Locals:         4       0       0       0       0       0       0
  2626 ;;      Temps:          1       0       0       0       0       0       0
  2627 ;;      Totals:        11       0       0       0       0       0       0
  2628 ;;Total ram usage:       11 bytes
  2629 ;; Hardware stack levels used: 1
  2630 ;; Hardware stack levels required when called: 3
  2631 ;; This function calls:
  2632 ;;		_fputc
  2633 ;;		_fputs
  2634 ;;		_strlen
  2635 ;; This function is called by:
  2636 ;;		_dtoa
  2637 ;; This function uses a non-reentrant model
  2638 ;;
  2639                           
  2640                           	psect	text5
  2641  006B96                     __ptext5:
  2642                           	callstack 0
  2643  006B96                     _pad:
  2644                           	callstack 23
  2645  006B96                     
  2646                           ;C:\Program Files\Microchip\xc8\v2.36\pic\sources\c99\common\doprnt.c: 72: static int pa
      +                          d(FILE *fp, char *buf, int p);C:\Program Files\Microchip\xc8\v2.36\pic\sources\c99\commo
      +                          n\doprnt.c: 73: {;C:\Program Files\Microchip\xc8\v2.36\pic\sources\c99\common\doprnt.c: 
      +                          74:     int i, w;;C:\Program Files\Microchip\xc8\v2.36\pic\sources\c99\common\doprnt.c: 
      +                          77:     if (flags & (1 << 0)) {
  2647  006B96  0100               	movlb	0	; () banked
  2648  006B98  A1A7               	btfss	_flags& (0+255),0,b
  2649  006B9A  EFD1  F035         	goto	u1631
  2650  006B9E  EFD3  F035         	goto	u1630
  2651  006BA2                     u1631:
  2652  006BA2  EFDD  F035         	goto	l2148
  2653  006BA6                     u1630:
  2654  006BA6                     
  2655                           ; BSR set to: 0
  2656                           ;C:\Program Files\Microchip\xc8\v2.36\pic\sources\c99\common\doprnt.c: 78:         fputs
      +                          ((const char *)buf, fp);
  2657  006BA6  C013  F00A         	movff	pad@buf,fputs@s
  2658  006BAA  C014  F00B         	movff	pad@buf+1,fputs@s+1
  2659  006BAE  C011  F00C         	movff	pad@fp,fputs@fp
  2660  006BB2  C012  F00D         	movff	pad@fp+1,fputs@fp+1
  2661  006BB6  ECE3  F032         	call	_fputs	;wreg free
  2662  006BBA                     l2148:
  2663                           
  2664                           ;C:\Program Files\Microchip\xc8\v2.36\pic\sources\c99\common\doprnt.c: 82:     w = (p < 
      +                          0) ? 0 : p;
  2665  006BBA  BE16               	btfsc	(pad@p+1)^0,7,c
  2666  006BBC  EFE2  F035         	goto	u1641
  2667  006BC0  EFE4  F035         	goto	u1640
  2668  006BC4                     u1641:
  2669  006BC4  EFEA  F035         	goto	l2152
  2670  006BC8                     u1640:
  2671  006BC8  C015  F01A         	movff	pad@p,pad@w
  2672  006BCC  C016  F01B         	movff	pad@p+1,pad@w+1
  2673  006BD0  EFEE  F035         	goto	l998
  2674  006BD4                     l2152:
  2675  006BD4  0E00               	movlw	0
  2676  006BD6  6E1B               	movwf	(pad@w+1)^0,c
  2677  006BD8  0E00               	movlw	0
  2678  006BDA  6E1A               	movwf	pad@w^0,c
  2679  006BDC                     l998:
  2680                           
  2681                           ;C:\Program Files\Microchip\xc8\v2.36\pic\sources\c99\common\doprnt.c: 83:     i = 0;
  2682  006BDC  0E00               	movlw	0
  2683  006BDE  6E19               	movwf	(pad@i+1)^0,c
  2684  006BE0  0E00               	movlw	0
  2685  006BE2  6E18               	movwf	pad@i^0,c
  2686                           
  2687                           ;C:\Program Files\Microchip\xc8\v2.36\pic\sources\c99\common\doprnt.c: 84:     while (i 
      +                          < w) {
  2688  006BE4  EF00  F036         	goto	l2158
  2689  006BE8                     l2154:
  2690                           
  2691                           ;C:\Program Files\Microchip\xc8\v2.36\pic\sources\c99\common\doprnt.c: 85:         fputc
      +                          (' ', fp);
  2692  006BE8  0E00               	movlw	0
  2693  006BEA  6E02               	movwf	(fputc@c+1)^0,c
  2694  006BEC  0E20               	movlw	32
  2695  006BEE  6E01               	movwf	fputc@c^0,c
  2696  006BF0  C011  F003         	movff	pad@fp,fputc@fp
  2697  006BF4  C012  F004         	movff	pad@fp+1,fputc@fp+1
  2698  006BF8  EC2E  F036         	call	_fputc	;wreg free
  2699  006BFC                     
  2700                           ;C:\Program Files\Microchip\xc8\v2.36\pic\sources\c99\common\doprnt.c: 86:         ++i;
  2701  006BFC  4A18               	infsnz	pad@i^0,f,c
  2702  006BFE  2A19               	incf	(pad@i+1)^0,f,c
  2703  006C00                     l2158:
  2704                           
  2705                           ;C:\Program Files\Microchip\xc8\v2.36\pic\sources\c99\common\doprnt.c: 84:     while (i 
      +                          < w) {
  2706  006C00  501A               	movf	pad@w^0,w,c
  2707  006C02  5C18               	subwf	pad@i^0,w,c
  2708  006C04  5019               	movf	(pad@i+1)^0,w,c
  2709  006C06  0A80               	xorlw	128
  2710  006C08  6E17               	movwf	??_pad^0,c
  2711  006C0A  501B               	movf	(pad@w+1)^0,w,c
  2712  006C0C  0A80               	xorlw	128
  2713  006C0E  5817               	subwfb	??_pad^0,w,c
  2714  006C10  A0D8               	btfss	status,0,c
  2715  006C12  EF0D  F036         	goto	u1651
  2716  006C16  EF0F  F036         	goto	u1650
  2717  006C1A                     u1651:
  2718  006C1A  EFF4  F035         	goto	l2154
  2719  006C1E                     u1650:
  2720  006C1E                     
  2721                           ;C:\Program Files\Microchip\xc8\v2.36\pic\sources\c99\common\doprnt.c: 90:     if (!(fla
      +                          gs & (1 << 0))) {
  2722  006C1E  0100               	movlb	0	; () banked
  2723  006C20  B1A7               	btfsc	_flags& (0+255),0,b
  2724  006C22  EF15  F036         	goto	u1661
  2725  006C26  EF17  F036         	goto	u1660
  2726  006C2A                     u1661:
  2727  006C2A  EF21  F036         	goto	l2162
  2728  006C2E                     u1660:
  2729  006C2E                     
  2730                           ; BSR set to: 0
  2731                           ;C:\Program Files\Microchip\xc8\v2.36\pic\sources\c99\common\doprnt.c: 91:         fputs
      +                          ((const char *)buf, fp);
  2732  006C2E  C013  F00A         	movff	pad@buf,fputs@s
  2733  006C32  C014  F00B         	movff	pad@buf+1,fputs@s+1
  2734  006C36  C011  F00C         	movff	pad@fp,fputs@fp
  2735  006C3A  C012  F00D         	movff	pad@fp+1,fputs@fp+1
  2736  006C3E  ECE3  F032         	call	_fputs	;wreg free
  2737  006C42                     l2162:
  2738                           
  2739                           ;C:\Program Files\Microchip\xc8\v2.36\pic\sources\c99\common\doprnt.c: 94:     return (i
      +                          nt)(strlen(buf) + (size_t)w);
  2740  006C42  C013  F001         	movff	pad@buf,strlen@s
  2741  006C46  C014  F002         	movff	pad@buf+1,strlen@s+1
  2742  006C4A  EC16  F032         	call	_strlen	;wreg free
  2743  006C4E  501A               	movf	pad@w^0,w,c
  2744  006C50  2401               	addwf	?_strlen^0,w,c
  2745  006C52  6E11               	movwf	?_pad^0,c
  2746  006C54  501B               	movf	(pad@w+1)^0,w,c
  2747  006C56  2002               	addwfc	(?_strlen+1)^0,w,c
  2748  006C58  6E12               	movwf	(?_pad+1)^0,c
  2749  006C5A  0012               	return		;funcret
  2750  006C5C                     __end_of_pad:
  2751                           	callstack 0
  2752                           
  2753 ;; *************** function _strlen *****************
  2754 ;; Defined at:
  2755 ;;		line 5 in file "C:\Program Files\Microchip\xc8\v2.36\pic\sources\c99\common\strlen.c"
  2756 ;; Parameters:    Size  Location     Type
  2757 ;;  s               2    0[COMRAM] PTR const unsigned char 
  2758 ;;		 -> dbuf(32), 
  2759 ;; Auto vars:     Size  Location     Type
  2760 ;;  a               2    2[COMRAM] PTR const unsigned char 
  2761 ;;		 -> dbuf(32), 
  2762 ;; Return value:  Size  Location     Type
  2763 ;;                  2    0[COMRAM] unsigned int 
  2764 ;; Registers used:
  2765 ;;		wreg, fsr2l, fsr2h, status,2, status,0
  2766 ;; Tracked objects:
  2767 ;;		On entry : 0/0
  2768 ;;		On exit  : 0/0
  2769 ;;		Unchanged: 0/0
  2770 ;; Data sizes:     COMRAM   BANK0   BANK1   BANK2   BANK3   BANK4   BANK5
  2771 ;;      Params:         2       0       0       0       0       0       0
  2772 ;;      Locals:         2       0       0       0       0       0       0
  2773 ;;      Temps:          0       0       0       0       0       0       0
  2774 ;;      Totals:         4       0       0       0       0       0       0
  2775 ;;Total ram usage:        4 bytes
  2776 ;; Hardware stack levels used: 1
  2777 ;; This function calls:
  2778 ;;		Nothing
  2779 ;; This function is called by:
  2780 ;;		_pad
  2781 ;; This function uses a non-reentrant model
  2782 ;;
  2783                           
  2784                           	psect	text6
  2785  00642C                     __ptext6:
  2786                           	callstack 0
  2787  00642C                     _strlen:
  2788                           	callstack 25
  2789  00642C  C001  F003         	movff	strlen@s,strlen@a
  2790  006430  C002  F004         	movff	strlen@s+1,strlen@a+1
  2791  006434  EF1E  F032         	goto	l2002
  2792  006438                     l2000:
  2793  006438  4A01               	infsnz	strlen@s^0,f,c
  2794  00643A  2A02               	incf	(strlen@s+1)^0,f,c
  2795  00643C                     l2002:
  2796  00643C  C001  FFD9         	movff	strlen@s,fsr2l
  2797  006440  C002  FFDA         	movff	strlen@s+1,fsr2h
  2798  006444  50DF               	movf	indf2,w,c
  2799  006446  A4D8               	btfss	status,2,c
  2800  006448  EF28  F032         	goto	u1391
  2801  00644C  EF2A  F032         	goto	u1390
  2802  006450                     u1391:
  2803  006450  EF1C  F032         	goto	l2000
  2804  006454                     u1390:
  2805  006454  5003               	movf	strlen@a^0,w,c
  2806  006456  5C01               	subwf	strlen@s^0,w,c
  2807  006458  6E01               	movwf	?_strlen^0,c
  2808  00645A  5004               	movf	(strlen@a+1)^0,w,c
  2809  00645C  5802               	subwfb	(strlen@s+1)^0,w,c
  2810  00645E  6E02               	movwf	(?_strlen+1)^0,c
  2811  006460  0012               	return		;funcret
  2812  006462                     __end_of_strlen:
  2813                           	callstack 0
  2814                           
  2815 ;; *************** function _fputs *****************
  2816 ;; Defined at:
  2817 ;;		line 8 in file "C:\Program Files\Microchip\xc8\v2.36\pic\sources\c99\common\nf_fputs.c"
  2818 ;; Parameters:    Size  Location     Type
  2819 ;;  s               2    9[COMRAM] PTR const unsigned char 
  2820 ;;		 -> dbuf(32), 
  2821 ;;  fp              2   11[COMRAM] PTR struct _IO_FILE
  2822 ;;		 -> sprintf@f(11), 
  2823 ;; Auto vars:     Size  Location     Type
  2824 ;;  i               2   14[COMRAM] int 
  2825 ;;  c               1   13[COMRAM] unsigned char 
  2826 ;; Return value:  Size  Location     Type
  2827 ;;                  2    9[COMRAM] int 
  2828 ;; Registers used:
  2829 ;;		wreg, fsr1l, fsr1h, fsr2l, fsr2h, status,2, status,0, cstack
  2830 ;; Tracked objects:
  2831 ;;		On entry : 0/0
  2832 ;;		On exit  : 0/0
  2833 ;;		Unchanged: 0/0
  2834 ;; Data sizes:     COMRAM   BANK0   BANK1   BANK2   BANK3   BANK4   BANK5
  2835 ;;      Params:         4       0       0       0       0       0       0
  2836 ;;      Locals:         3       0       0       0       0       0       0
  2837 ;;      Temps:          0       0       0       0       0       0       0
  2838 ;;      Totals:         7       0       0       0       0       0       0
  2839 ;;Total ram usage:        7 bytes
  2840 ;; Hardware stack levels used: 1
  2841 ;; Hardware stack levels required when called: 2
  2842 ;; This function calls:
  2843 ;;		_fputc
  2844 ;; This function is called by:
  2845 ;;		_pad
  2846 ;; This function uses a non-reentrant model
  2847 ;;
  2848                           
  2849                           	psect	text7
  2850  0065C6                     __ptext7:
  2851                           	callstack 0
  2852  0065C6                     _fputs:
  2853                           	callstack 23
  2854  0065C6  0E00               	movlw	0
  2855  0065C8  6E10               	movwf	(fputs@i+1)^0,c
  2856  0065CA  0E00               	movlw	0
  2857  0065CC  6E0F               	movwf	fputs@i^0,c
  2858  0065CE  EFF4  F032         	goto	l1996
  2859  0065D2                     l1992:
  2860  0065D2  C00E  F001         	movff	fputs@c,fputc@c
  2861  0065D6  6A02               	clrf	(fputc@c+1)^0,c
  2862  0065D8  C00C  F003         	movff	fputs@fp,fputc@fp
  2863  0065DC  C00D  F004         	movff	fputs@fp+1,fputc@fp+1
  2864  0065E0  EC2E  F036         	call	_fputc	;wreg free
  2865  0065E4  4A0F               	infsnz	fputs@i^0,f,c
  2866  0065E6  2A10               	incf	(fputs@i+1)^0,f,c
  2867  0065E8                     l1996:
  2868  0065E8  500F               	movf	fputs@i^0,w,c
  2869  0065EA  240A               	addwf	fputs@s^0,w,c
  2870  0065EC  6ED9               	movwf	fsr2l,c
  2871  0065EE  5010               	movf	(fputs@i+1)^0,w,c
  2872  0065F0  200B               	addwfc	(fputs@s+1)^0,w,c
  2873  0065F2  6EDA               	movwf	fsr2h,c
  2874  0065F4  50DF               	movf	indf2,w,c
  2875  0065F6  6E0E               	movwf	fputs@c^0,c
  2876  0065F8  500E               	movf	fputs@c^0,w,c
  2877  0065FA  A4D8               	btfss	status,2,c
  2878  0065FC  EF02  F033         	goto	u1381
  2879  006600  EF04  F033         	goto	u1380
  2880  006604                     u1381:
  2881  006604  EFE9  F032         	goto	l1992
  2882  006608                     u1380:
  2883  006608  0012               	return		;funcret
  2884  00660A                     __end_of_fputs:
  2885                           	callstack 0
  2886                           
  2887 ;; *************** function _fputc *****************
  2888 ;; Defined at:
  2889 ;;		line 8 in file "C:\Program Files\Microchip\xc8\v2.36\pic\sources\c99\common\nf_fputc.c"
  2890 ;; Parameters:    Size  Location     Type
  2891 ;;  c               2    0[COMRAM] int 
  2892 ;;  fp              2    2[COMRAM] PTR struct _IO_FILE
  2893 ;;		 -> sprintf@f(11), 
  2894 ;; Auto vars:     Size  Location     Type
  2895 ;;		None
  2896 ;; Return value:  Size  Location     Type
  2897 ;;                  2    0[COMRAM] int 
  2898 ;; Registers used:
  2899 ;;		wreg, fsr1l, fsr1h, fsr2l, fsr2h, status,2, status,0, cstack
  2900 ;; Tracked objects:
  2901 ;;		On entry : 0/0
  2902 ;;		On exit  : 0/0
  2903 ;;		Unchanged: 0/0
  2904 ;; Data sizes:     COMRAM   BANK0   BANK1   BANK2   BANK3   BANK4   BANK5
  2905 ;;      Params:         4       0       0       0       0       0       0
  2906 ;;      Locals:         0       0       0       0       0       0       0
  2907 ;;      Temps:          5       0       0       0       0       0       0
  2908 ;;      Totals:         9       0       0       0       0       0       0
  2909 ;;Total ram usage:        9 bytes
  2910 ;; Hardware stack levels used: 1
  2911 ;; Hardware stack levels required when called: 1
  2912 ;; This function calls:
  2913 ;;		_putch
  2914 ;; This function is called by:
  2915 ;;		_pad
  2916 ;;		_vfpfcnvrt
  2917 ;;		_fputs
  2918 ;; This function uses a non-reentrant model
  2919 ;;
  2920                           
  2921                           	psect	text8
  2922  006C5C                     __ptext8:
  2923                           	callstack 0
  2924  006C5C                     _fputc:
  2925                           	callstack 26
  2926  006C5C  5003               	movf	fputc@fp^0,w,c
  2927  006C5E  1004               	iorwf	(fputc@fp+1)^0,w,c
  2928  006C60  B4D8               	btfsc	status,2,c
  2929  006C62  EF35  F036         	goto	u1301
  2930  006C66  EF37  F036         	goto	u1300
  2931  006C6A                     u1301:
  2932  006C6A  EF40  F036         	goto	l1974
  2933  006C6E                     u1300:
  2934  006C6E  5003               	movf	fputc@fp^0,w,c
  2935  006C70  1004               	iorwf	(fputc@fp+1)^0,w,c
  2936  006C72  A4D8               	btfss	status,2,c
  2937  006C74  EF3E  F036         	goto	u1311
  2938  006C78  EF40  F036         	goto	u1310
  2939  006C7C                     u1311:
  2940  006C7C  EF45  F036         	goto	l1976
  2941  006C80                     u1310:
  2942  006C80                     l1974:
  2943  006C80  5001               	movf	fputc@c^0,w,c
  2944  006C82  EC77  F031         	call	_putch
  2945  006C86  EF92  F036         	goto	l1121
  2946  006C8A                     l1976:
  2947  006C8A  EE20 F009          	lfsr	2,9
  2948  006C8E  5003               	movf	fputc@fp^0,w,c
  2949  006C90  26D9               	addwf	fsr2l,f,c
  2950  006C92  5004               	movf	(fputc@fp+1)^0,w,c
  2951  006C94  22DA               	addwfc	fsr2h,f,c
  2952  006C96  50DE               	movf	postinc2,w,c
  2953  006C98  10DE               	iorwf	postinc2,w,c
  2954  006C9A  B4D8               	btfsc	status,2,c
  2955  006C9C  EF52  F036         	goto	u1321
  2956  006CA0  EF54  F036         	goto	u1320
  2957  006CA4                     u1321:
  2958  006CA4  EF6F  F036         	goto	l1980
  2959  006CA8                     u1320:
  2960  006CA8  EE20 F009          	lfsr	2,9
  2961  006CAC  5003               	movf	fputc@fp^0,w,c
  2962  006CAE  26D9               	addwf	fsr2l,f,c
  2963  006CB0  5004               	movf	(fputc@fp+1)^0,w,c
  2964  006CB2  22DA               	addwfc	fsr2h,f,c
  2965  006CB4  EE10 F003          	lfsr	1,3
  2966  006CB8  5003               	movf	fputc@fp^0,w,c
  2967  006CBA  26E1               	addwf	fsr1l,f,c
  2968  006CBC  5004               	movf	(fputc@fp+1)^0,w,c
  2969  006CBE  22E2               	addwfc	fsr1h,f,c
  2970  006CC0  50DE               	movf	postinc2,w,c
  2971  006CC2  5CE6               	subwf	postinc1,w,c
  2972  006CC4  50E6               	movf	postinc1,w,c
  2973  006CC6  0A80               	xorlw	128
  2974  006CC8  6E09               	movwf	(??_fputc+4)^0,c
  2975  006CCA  50DE               	movf	postinc2,w,c
  2976  006CCC  0A80               	xorlw	128
  2977  006CCE  5809               	subwfb	(??_fputc+4)^0,w,c
  2978  006CD0  B0D8               	btfsc	status,0,c
  2979  006CD2  EF6D  F036         	goto	u1331
  2980  006CD6  EF6F  F036         	goto	u1330
  2981  006CDA                     u1331:
  2982  006CDA  EF92  F036         	goto	l1121
  2983  006CDE                     u1330:
  2984  006CDE                     l1980:
  2985  006CDE  EE20 F003          	lfsr	2,3
  2986  006CE2  5003               	movf	fputc@fp^0,w,c
  2987  006CE4  26D9               	addwf	fsr2l,f,c
  2988  006CE6  5004               	movf	(fputc@fp+1)^0,w,c
  2989  006CE8  22DA               	addwfc	fsr2h,f,c
  2990  006CEA  CFDE F005          	movff	postinc2,??_fputc
  2991  006CEE  CFDD F006          	movff	postdec2,??_fputc+1
  2992  006CF2  C003  FFD9         	movff	fputc@fp,fsr2l
  2993  006CF6  C004  FFDA         	movff	fputc@fp+1,fsr2h
  2994  006CFA  CFDE F007          	movff	postinc2,??_fputc+2
  2995  006CFE  CFDD F008          	movff	postdec2,??_fputc+3
  2996  006D02  5005               	movf	??_fputc^0,w,c
  2997  006D04  2407               	addwf	(??_fputc+2)^0,w,c
  2998  006D06  6ED9               	movwf	fsr2l,c
  2999  006D08  5006               	movf	(??_fputc+1)^0,w,c
  3000  006D0A  2008               	addwfc	(??_fputc+3)^0,w,c
  3001  006D0C  6EDA               	movwf	fsr2h,c
  3002  006D0E  C001  FFDF         	movff	fputc@c,indf2
  3003  006D12  EE20 F003          	lfsr	2,3
  3004  006D16  5003               	movf	fputc@fp^0,w,c
  3005  006D18  26D9               	addwf	fsr2l,f,c
  3006  006D1A  5004               	movf	(fputc@fp+1)^0,w,c
  3007  006D1C  22DA               	addwfc	fsr2h,f,c
  3008  006D1E  2ADE               	incf	postinc2,f,c
  3009  006D20  0E00               	movlw	0
  3010  006D22  22DD               	addwfc	postdec2,f,c
  3011  006D24                     l1121:
  3012  006D24  0012               	return		;funcret
  3013  006D26                     __end_of_fputc:
  3014                           	callstack 0
  3015                           
  3016 ;; *************** function _putch *****************
  3017 ;; Defined at:
  3018 ;;		line 7 in file "C:\Program Files\Microchip\xc8\v2.36\pic\sources\c99\common\putch.c"
  3019 ;; Parameters:    Size  Location     Type
  3020 ;;  c               1    wreg     unsigned char 
  3021 ;; Auto vars:     Size  Location     Type
  3022 ;;  c               1    0[COMRAM] unsigned char 
  3023 ;; Return value:  Size  Location     Type
  3024 ;;                  1    wreg      void 
  3025 ;; Registers used:
  3026 ;;		wreg
  3027 ;; Tracked objects:
  3028 ;;		On entry : 0/0
  3029 ;;		On exit  : 0/0
  3030 ;;		Unchanged: 0/0
  3031 ;; Data sizes:     COMRAM   BANK0   BANK1   BANK2   BANK3   BANK4   BANK5
  3032 ;;      Params:         0       0       0       0       0       0       0
  3033 ;;      Locals:         0       0       0       0       0       0       0
  3034 ;;      Temps:          0       0       0       0       0       0       0
  3035 ;;      Totals:         0       0       0       0       0       0       0
  3036 ;;Total ram usage:        0 bytes
  3037 ;; Hardware stack levels used: 1
  3038 ;; This function calls:
  3039 ;;		Nothing
  3040 ;; This function is called by:
  3041 ;;		_fputc
  3042 ;; This function uses a non-reentrant model
  3043 ;;
  3044                           
  3045                           	psect	text9
  3046  0062EE                     __ptext9:
  3047                           	callstack 0
  3048  0062EE                     _putch:
  3049                           	callstack 26
  3050  0062EE  0012               	return		;funcret
  3051  0062F0                     __end_of_putch:
  3052                           	callstack 0
  3053                           
  3054 ;; *************** function _abs *****************
  3055 ;; Defined at:
  3056 ;;		line 1 in file "C:\Program Files\Microchip\xc8\v2.36\pic\sources\c99\common\abs.c"
  3057 ;; Parameters:    Size  Location     Type
  3058 ;;  a               2   18[COMRAM] int 
  3059 ;; Auto vars:     Size  Location     Type
  3060 ;;		None
  3061 ;; Return value:  Size  Location     Type
  3062 ;;                  2   18[COMRAM] int 
  3063 ;; Registers used:
  3064 ;;		wreg, status,2, status,0
  3065 ;; Tracked objects:
  3066 ;;		On entry : 0/0
  3067 ;;		On exit  : 0/0
  3068 ;;		Unchanged: 0/0
  3069 ;; Data sizes:     COMRAM   BANK0   BANK1   BANK2   BANK3   BANK4   BANK5
  3070 ;;      Params:         2       0       0       0       0       0       0
  3071 ;;      Locals:         0       0       0       0       0       0       0
  3072 ;;      Temps:          2       0       0       0       0       0       0
  3073 ;;      Totals:         4       0       0       0       0       0       0
  3074 ;;Total ram usage:        4 bytes
  3075 ;; Hardware stack levels used: 1
  3076 ;; This function calls:
  3077 ;;		Nothing
  3078 ;; This function is called by:
  3079 ;;		_dtoa
  3080 ;; This function uses a non-reentrant model
  3081 ;;
  3082                           
  3083                           	psect	text10
  3084  006586                     __ptext10:
  3085                           	callstack 0
  3086  006586                     _abs:
  3087                           	callstack 26
  3088  006586  BE14               	btfsc	(abs@a+1)^0,7,c
  3089  006588  EFD0  F032         	goto	u1670
  3090  00658C  5014               	movf	(abs@a+1)^0,w,c
  3091  00658E  E106               	bnz	u1671
  3092  006590  0413               	decf	abs@a^0,w,c
  3093  006592  B0D8               	btfsc	status,0,c
  3094  006594  EFCE  F032         	goto	u1671
  3095  006598  EFD0  F032         	goto	u1670
  3096  00659C                     u1671:
  3097  00659C  EFDE  F032         	goto	l1067
  3098  0065A0                     u1670:
  3099  0065A0  C013  F015         	movff	abs@a,??_abs
  3100  0065A4  C014  F016         	movff	abs@a+1,??_abs+1
  3101  0065A8  1E15               	comf	??_abs^0,f,c
  3102  0065AA  1E16               	comf	(??_abs+1)^0,f,c
  3103  0065AC  4A15               	infsnz	??_abs^0,f,c
  3104  0065AE  2A16               	incf	(??_abs+1)^0,f,c
  3105  0065B0  C015  F013         	movff	??_abs,?_abs
  3106  0065B4  C016  F014         	movff	??_abs+1,?_abs+1
  3107  0065B8  EFE2  F032         	goto	l1070
  3108  0065BC                     l1067:
  3109  0065BC  C013  F013         	movff	abs@a,?_abs
  3110  0065C0  C014  F014         	movff	abs@a+1,?_abs+1
  3111  0065C4                     l1070:
  3112  0065C4  0012               	return		;funcret
  3113  0065C6                     __end_of_abs:
  3114                           	callstack 0
  3115                           
  3116 ;; *************** function ___aomod *****************
  3117 ;; Defined at:
  3118 ;;		line 9 in file "C:\Program Files\Microchip\xc8\v2.36\pic\sources\c99\common\aomod.c"
  3119 ;; Parameters:    Size  Location     Type
  3120 ;;  dividend        8    0[COMRAM] long long 
  3121 ;;  divisor         8    8[COMRAM] long long 
  3122 ;; Auto vars:     Size  Location     Type
  3123 ;;  sign            1   17[COMRAM] unsigned char 
  3124 ;;  counter         1   16[COMRAM] unsigned char 
  3125 ;; Return value:  Size  Location     Type
  3126 ;;                  8    0[COMRAM] long long 
  3127 ;; Registers used:
  3128 ;;		wreg, status,2, status,0
  3129 ;; Tracked objects:
  3130 ;;		On entry : 0/0
  3131 ;;		On exit  : 0/0
  3132 ;;		Unchanged: 0/0
  3133 ;; Data sizes:     COMRAM   BANK0   BANK1   BANK2   BANK3   BANK4   BANK5
  3134 ;;      Params:        16       0       0       0       0       0       0
  3135 ;;      Locals:         2       0       0       0       0       0       0
  3136 ;;      Temps:          0       0       0       0       0       0       0
  3137 ;;      Totals:        18       0       0       0       0       0       0
  3138 ;;Total ram usage:       18 bytes
  3139 ;; Hardware stack levels used: 1
  3140 ;; This function calls:
  3141 ;;		Nothing
  3142 ;; This function is called by:
  3143 ;;		_dtoa
  3144 ;; This function uses a non-reentrant model
  3145 ;;
  3146                           
  3147                           	psect	text11
  3148  00717A                     __ptext11:
  3149                           	callstack 0
  3150  00717A                     ___aomod:
  3151                           	callstack 26
  3152  00717A  0E00               	movlw	0
  3153  00717C  6E12               	movwf	___aomod@sign^0,c
  3154  00717E  BE08               	btfsc	(___aomod@dividend+7)^0,7,c
  3155  007180  EFC6  F038         	goto	u1570
  3156  007184  EFC4  F038         	goto	u1571
  3157  007188                     u1571:
  3158  007188  EFD8  F038         	goto	l2116
  3159  00718C                     u1570:
  3160  00718C  1E08               	comf	(___aomod@dividend+7)^0,f,c
  3161  00718E  1E07               	comf	(___aomod@dividend+6)^0,f,c
  3162  007190  1E06               	comf	(___aomod@dividend+5)^0,f,c
  3163  007192  1E05               	comf	(___aomod@dividend+4)^0,f,c
  3164  007194  1E04               	comf	(___aomod@dividend+3)^0,f,c
  3165  007196  1E03               	comf	(___aomod@dividend+2)^0,f,c
  3166  007198  1E02               	comf	(___aomod@dividend+1)^0,f,c
  3167  00719A  6C01               	negf	___aomod@dividend^0,c
  3168  00719C  0E00               	movlw	0
  3169  00719E  2202               	addwfc	(___aomod@dividend+1)^0,f,c
  3170  0071A0  2203               	addwfc	(___aomod@dividend+2)^0,f,c
  3171  0071A2  2204               	addwfc	(___aomod@dividend+3)^0,f,c
  3172  0071A4  2205               	addwfc	(___aomod@dividend+4)^0,f,c
  3173  0071A6  2206               	addwfc	(___aomod@dividend+5)^0,f,c
  3174  0071A8  2207               	addwfc	(___aomod@dividend+6)^0,f,c
  3175  0071AA  2208               	addwfc	(___aomod@dividend+7)^0,f,c
  3176  0071AC  0E01               	movlw	1
  3177  0071AE  6E12               	movwf	___aomod@sign^0,c
  3178  0071B0                     l2116:
  3179  0071B0  BE10               	btfsc	(___aomod@divisor+7)^0,7,c
  3180  0071B2  EFDF  F038         	goto	u1580
  3181  0071B6  EFDD  F038         	goto	u1581
  3182  0071BA                     u1581:
  3183  0071BA  EFEF  F038         	goto	l2120
  3184  0071BE                     u1580:
  3185  0071BE  1E10               	comf	(___aomod@divisor+7)^0,f,c
  3186  0071C0  1E0F               	comf	(___aomod@divisor+6)^0,f,c
  3187  0071C2  1E0E               	comf	(___aomod@divisor+5)^0,f,c
  3188  0071C4  1E0D               	comf	(___aomod@divisor+4)^0,f,c
  3189  0071C6  1E0C               	comf	(___aomod@divisor+3)^0,f,c
  3190  0071C8  1E0B               	comf	(___aomod@divisor+2)^0,f,c
  3191  0071CA  1E0A               	comf	(___aomod@divisor+1)^0,f,c
  3192  0071CC  6C09               	negf	___aomod@divisor^0,c
  3193  0071CE  0E00               	movlw	0
  3194  0071D0  220A               	addwfc	(___aomod@divisor+1)^0,f,c
  3195  0071D2  220B               	addwfc	(___aomod@divisor+2)^0,f,c
  3196  0071D4  220C               	addwfc	(___aomod@divisor+3)^0,f,c
  3197  0071D6  220D               	addwfc	(___aomod@divisor+4)^0,f,c
  3198  0071D8  220E               	addwfc	(___aomod@divisor+5)^0,f,c
  3199  0071DA  220F               	addwfc	(___aomod@divisor+6)^0,f,c
  3200  0071DC  2210               	addwfc	(___aomod@divisor+7)^0,f,c
  3201  0071DE                     l2120:
  3202  0071DE  5009               	movf	___aomod@divisor^0,w,c
  3203  0071E0  100A               	iorwf	(___aomod@divisor+1)^0,w,c
  3204  0071E2  100B               	iorwf	(___aomod@divisor+2)^0,w,c
  3205  0071E4  100C               	iorwf	(___aomod@divisor+3)^0,w,c
  3206  0071E6  100D               	iorwf	(___aomod@divisor+4)^0,w,c
  3207  0071E8  100E               	iorwf	(___aomod@divisor+5)^0,w,c
  3208  0071EA  100F               	iorwf	(___aomod@divisor+6)^0,w,c
  3209  0071EC  1010               	iorwf	(___aomod@divisor+7)^0,w,c
  3210  0071EE  B4D8               	btfsc	status,2,c
  3211  0071F0  EFFC  F038         	goto	u1591
  3212  0071F4  EFFE  F038         	goto	u1590
  3213  0071F8                     u1591:
  3214  0071F8  EF46  F039         	goto	l2136
  3215  0071FC                     u1590:
  3216  0071FC  0E01               	movlw	1
  3217  0071FE  6E11               	movwf	___aomod@counter^0,c
  3218  007200  EF0C  F039         	goto	l2126
  3219  007204                     l2124:
  3220  007204  90D8               	bcf	status,0,c
  3221  007206  3609               	rlcf	___aomod@divisor^0,f,c
  3222  007208  360A               	rlcf	(___aomod@divisor+1)^0,f,c
  3223  00720A  360B               	rlcf	(___aomod@divisor+2)^0,f,c
  3224  00720C  360C               	rlcf	(___aomod@divisor+3)^0,f,c
  3225  00720E  360D               	rlcf	(___aomod@divisor+4)^0,f,c
  3226  007210  360E               	rlcf	(___aomod@divisor+5)^0,f,c
  3227  007212  360F               	rlcf	(___aomod@divisor+6)^0,f,c
  3228  007214  3610               	rlcf	(___aomod@divisor+7)^0,f,c
  3229  007216  2A11               	incf	___aomod@counter^0,f,c
  3230  007218                     l2126:
  3231  007218  AE10               	btfss	(___aomod@divisor+7)^0,7,c
  3232  00721A  EF11  F039         	goto	u1601
  3233  00721E  EF13  F039         	goto	u1600
  3234  007222                     u1601:
  3235  007222  EF02  F039         	goto	l2124
  3236  007226                     u1600:
  3237  007226                     l2128:
  3238  007226  5009               	movf	___aomod@divisor^0,w,c
  3239  007228  5C01               	subwf	___aomod@dividend^0,w,c
  3240  00722A  500A               	movf	(___aomod@divisor+1)^0,w,c
  3241  00722C  5802               	subwfb	(___aomod@dividend+1)^0,w,c
  3242  00722E  500B               	movf	(___aomod@divisor+2)^0,w,c
  3243  007230  5803               	subwfb	(___aomod@dividend+2)^0,w,c
  3244  007232  500C               	movf	(___aomod@divisor+3)^0,w,c
  3245  007234  5804               	subwfb	(___aomod@dividend+3)^0,w,c
  3246  007236  500D               	movf	(___aomod@divisor+4)^0,w,c
  3247  007238  5805               	subwfb	(___aomod@dividend+4)^0,w,c
  3248  00723A  500E               	movf	(___aomod@divisor+5)^0,w,c
  3249  00723C  5806               	subwfb	(___aomod@dividend+5)^0,w,c
  3250  00723E  500F               	movf	(___aomod@divisor+6)^0,w,c
  3251  007240  5807               	subwfb	(___aomod@dividend+6)^0,w,c
  3252  007242  5010               	movf	(___aomod@divisor+7)^0,w,c
  3253  007244  5808               	subwfb	(___aomod@dividend+7)^0,w,c
  3254  007246  A0D8               	btfss	status,0,c
  3255  007248  EF28  F039         	goto	u1611
  3256  00724C  EF2A  F039         	goto	u1610
  3257  007250                     u1611:
  3258  007250  EF3A  F039         	goto	l2132
  3259  007254                     u1610:
  3260  007254  5009               	movf	___aomod@divisor^0,w,c
  3261  007256  5E01               	subwf	___aomod@dividend^0,f,c
  3262  007258  500A               	movf	(___aomod@divisor+1)^0,w,c
  3263  00725A  5A02               	subwfb	(___aomod@dividend+1)^0,f,c
  3264  00725C  500B               	movf	(___aomod@divisor+2)^0,w,c
  3265  00725E  5A03               	subwfb	(___aomod@dividend+2)^0,f,c
  3266  007260  500C               	movf	(___aomod@divisor+3)^0,w,c
  3267  007262  5A04               	subwfb	(___aomod@dividend+3)^0,f,c
  3268  007264  500D               	movf	(___aomod@divisor+4)^0,w,c
  3269  007266  5A05               	subwfb	(___aomod@dividend+4)^0,f,c
  3270  007268  500E               	movf	(___aomod@divisor+5)^0,w,c
  3271  00726A  5A06               	subwfb	(___aomod@dividend+5)^0,f,c
  3272  00726C  500F               	movf	(___aomod@divisor+6)^0,w,c
  3273  00726E  5A07               	subwfb	(___aomod@dividend+6)^0,f,c
  3274  007270  5010               	movf	(___aomod@divisor+7)^0,w,c
  3275  007272  5A08               	subwfb	(___aomod@dividend+7)^0,f,c
  3276  007274                     l2132:
  3277  007274  90D8               	bcf	status,0,c
  3278  007276  3210               	rrcf	(___aomod@divisor+7)^0,f,c
  3279  007278  320F               	rrcf	(___aomod@divisor+6)^0,f,c
  3280  00727A  320E               	rrcf	(___aomod@divisor+5)^0,f,c
  3281  00727C  320D               	rrcf	(___aomod@divisor+4)^0,f,c
  3282  00727E  320C               	rrcf	(___aomod@divisor+3)^0,f,c
  3283  007280  320B               	rrcf	(___aomod@divisor+2)^0,f,c
  3284  007282  320A               	rrcf	(___aomod@divisor+1)^0,f,c
  3285  007284  3209               	rrcf	___aomod@divisor^0,f,c
  3286  007286  2E11               	decfsz	___aomod@counter^0,f,c
  3287  007288  EF13  F039         	goto	l2128
  3288  00728C                     l2136:
  3289  00728C  5012               	movf	___aomod@sign^0,w,c
  3290  00728E  B4D8               	btfsc	status,2,c
  3291  007290  EF4C  F039         	goto	u1621
  3292  007294  EF4E  F039         	goto	u1620
  3293  007298                     u1621:
  3294  007298  EF5E  F039         	goto	l2140
  3295  00729C                     u1620:
  3296  00729C  1E08               	comf	(___aomod@dividend+7)^0,f,c
  3297  00729E  1E07               	comf	(___aomod@dividend+6)^0,f,c
  3298  0072A0  1E06               	comf	(___aomod@dividend+5)^0,f,c
  3299  0072A2  1E05               	comf	(___aomod@dividend+4)^0,f,c
  3300  0072A4  1E04               	comf	(___aomod@dividend+3)^0,f,c
  3301  0072A6  1E03               	comf	(___aomod@dividend+2)^0,f,c
  3302  0072A8  1E02               	comf	(___aomod@dividend+1)^0,f,c
  3303  0072AA  6C01               	negf	___aomod@dividend^0,c
  3304  0072AC  0E00               	movlw	0
  3305  0072AE  2202               	addwfc	(___aomod@dividend+1)^0,f,c
  3306  0072B0  2203               	addwfc	(___aomod@dividend+2)^0,f,c
  3307  0072B2  2204               	addwfc	(___aomod@dividend+3)^0,f,c
  3308  0072B4  2205               	addwfc	(___aomod@dividend+4)^0,f,c
  3309  0072B6  2206               	addwfc	(___aomod@dividend+5)^0,f,c
  3310  0072B8  2207               	addwfc	(___aomod@dividend+6)^0,f,c
  3311  0072BA  2208               	addwfc	(___aomod@dividend+7)^0,f,c
  3312  0072BC                     l2140:
  3313  0072BC  C001  F001         	movff	___aomod@dividend,?___aomod
  3314  0072C0  C002  F002         	movff	___aomod@dividend+1,?___aomod+1
  3315  0072C4  C003  F003         	movff	___aomod@dividend+2,?___aomod+2
  3316  0072C8  C004  F004         	movff	___aomod@dividend+3,?___aomod+3
  3317  0072CC  C005  F005         	movff	___aomod@dividend+4,?___aomod+4
  3318  0072D0  C006  F006         	movff	___aomod@dividend+5,?___aomod+5
  3319  0072D4  C007  F007         	movff	___aomod@dividend+6,?___aomod+6
  3320  0072D8  C008  F008         	movff	___aomod@dividend+7,?___aomod+7
  3321  0072DC  0012               	return		;funcret
  3322  0072DE                     __end_of___aomod:
  3323                           	callstack 0
  3324                           
  3325 ;; *************** function ___aodiv *****************
  3326 ;; Defined at:
  3327 ;;		line 9 in file "C:\Program Files\Microchip\xc8\v2.36\pic\sources\c99\common\aodiv.c"
  3328 ;; Parameters:    Size  Location     Type
  3329 ;;  dividend        8    0[COMRAM] long long 
  3330 ;;  divisor         8    8[COMRAM] long long 
  3331 ;; Auto vars:     Size  Location     Type
  3332 ;;  quotient        8   18[COMRAM] long long 
  3333 ;;  sign            1   17[COMRAM] unsigned char 
  3334 ;;  counter         1   16[COMRAM] unsigned char 
  3335 ;; Return value:  Size  Location     Type
  3336 ;;                  8    0[COMRAM] long long 
  3337 ;; Registers used:
  3338 ;;		wreg, fsr2l, fsr2h, status,2, status,0
  3339 ;; Tracked objects:
  3340 ;;		On entry : 0/0
  3341 ;;		On exit  : 0/0
  3342 ;;		Unchanged: 0/0
  3343 ;; Data sizes:     COMRAM   BANK0   BANK1   BANK2   BANK3   BANK4   BANK5
  3344 ;;      Params:        16       0       0       0       0       0       0
  3345 ;;      Locals:        10       0       0       0       0       0       0
  3346 ;;      Temps:          0       0       0       0       0       0       0
  3347 ;;      Totals:        26       0       0       0       0       0       0
  3348 ;;Total ram usage:       26 bytes
  3349 ;; Hardware stack levels used: 1
  3350 ;; This function calls:
  3351 ;;		Nothing
  3352 ;; This function is called by:
  3353 ;;		_dtoa
  3354 ;; This function uses a non-reentrant model
  3355 ;;
  3356                           
  3357                           	psect	text12
  3358  007448                     __ptext12:
  3359                           	callstack 0
  3360  007448                     ___aodiv:
  3361                           	callstack 26
  3362  007448  0E00               	movlw	0
  3363  00744A  6E12               	movwf	___aodiv@sign^0,c
  3364  00744C  BE10               	btfsc	(___aodiv@divisor+7)^0,7,c
  3365  00744E  EF2D  F03A         	goto	u1500
  3366  007452  EF2B  F03A         	goto	u1501
  3367  007456                     u1501:
  3368  007456  EF3F  F03A         	goto	l2072
  3369  00745A                     u1500:
  3370  00745A  1E10               	comf	(___aodiv@divisor+7)^0,f,c
  3371  00745C  1E0F               	comf	(___aodiv@divisor+6)^0,f,c
  3372  00745E  1E0E               	comf	(___aodiv@divisor+5)^0,f,c
  3373  007460  1E0D               	comf	(___aodiv@divisor+4)^0,f,c
  3374  007462  1E0C               	comf	(___aodiv@divisor+3)^0,f,c
  3375  007464  1E0B               	comf	(___aodiv@divisor+2)^0,f,c
  3376  007466  1E0A               	comf	(___aodiv@divisor+1)^0,f,c
  3377  007468  6C09               	negf	___aodiv@divisor^0,c
  3378  00746A  0E00               	movlw	0
  3379  00746C  220A               	addwfc	(___aodiv@divisor+1)^0,f,c
  3380  00746E  220B               	addwfc	(___aodiv@divisor+2)^0,f,c
  3381  007470  220C               	addwfc	(___aodiv@divisor+3)^0,f,c
  3382  007472  220D               	addwfc	(___aodiv@divisor+4)^0,f,c
  3383  007474  220E               	addwfc	(___aodiv@divisor+5)^0,f,c
  3384  007476  220F               	addwfc	(___aodiv@divisor+6)^0,f,c
  3385  007478  2210               	addwfc	(___aodiv@divisor+7)^0,f,c
  3386  00747A  0E01               	movlw	1
  3387  00747C  6E12               	movwf	___aodiv@sign^0,c
  3388  00747E                     l2072:
  3389  00747E  BE08               	btfsc	(___aodiv@dividend+7)^0,7,c
  3390  007480  EF46  F03A         	goto	u1510
  3391  007484  EF44  F03A         	goto	u1511
  3392  007488                     u1511:
  3393  007488  EF58  F03A         	goto	l2078
  3394  00748C                     u1510:
  3395  00748C  1E08               	comf	(___aodiv@dividend+7)^0,f,c
  3396  00748E  1E07               	comf	(___aodiv@dividend+6)^0,f,c
  3397  007490  1E06               	comf	(___aodiv@dividend+5)^0,f,c
  3398  007492  1E05               	comf	(___aodiv@dividend+4)^0,f,c
  3399  007494  1E04               	comf	(___aodiv@dividend+3)^0,f,c
  3400  007496  1E03               	comf	(___aodiv@dividend+2)^0,f,c
  3401  007498  1E02               	comf	(___aodiv@dividend+1)^0,f,c
  3402  00749A  6C01               	negf	___aodiv@dividend^0,c
  3403  00749C  0E00               	movlw	0
  3404  00749E  2202               	addwfc	(___aodiv@dividend+1)^0,f,c
  3405  0074A0  2203               	addwfc	(___aodiv@dividend+2)^0,f,c
  3406  0074A2  2204               	addwfc	(___aodiv@dividend+3)^0,f,c
  3407  0074A4  2205               	addwfc	(___aodiv@dividend+4)^0,f,c
  3408  0074A6  2206               	addwfc	(___aodiv@dividend+5)^0,f,c
  3409  0074A8  2207               	addwfc	(___aodiv@dividend+6)^0,f,c
  3410  0074AA  2208               	addwfc	(___aodiv@dividend+7)^0,f,c
  3411  0074AC  0E01               	movlw	1
  3412  0074AE  1A12               	xorwf	___aodiv@sign^0,f,c
  3413  0074B0                     l2078:
  3414  0074B0  EE20  F013         	lfsr	2,___aodiv@quotient
  3415  0074B4  0E07               	movlw	7
  3416  0074B6                     u1521:
  3417  0074B6  6ADE               	clrf	postinc2,c
  3418  0074B8  06E8               	decf	wreg,f,c
  3419  0074BA  E2FD               	bc	u1521
  3420  0074BC  5009               	movf	___aodiv@divisor^0,w,c
  3421  0074BE  100A               	iorwf	(___aodiv@divisor+1)^0,w,c
  3422  0074C0  100B               	iorwf	(___aodiv@divisor+2)^0,w,c
  3423  0074C2  100C               	iorwf	(___aodiv@divisor+3)^0,w,c
  3424  0074C4  100D               	iorwf	(___aodiv@divisor+4)^0,w,c
  3425  0074C6  100E               	iorwf	(___aodiv@divisor+5)^0,w,c
  3426  0074C8  100F               	iorwf	(___aodiv@divisor+6)^0,w,c
  3427  0074CA  1010               	iorwf	(___aodiv@divisor+7)^0,w,c
  3428  0074CC  B4D8               	btfsc	status,2,c
  3429  0074CE  EF6B  F03A         	goto	u1531
  3430  0074D2  EF6D  F03A         	goto	u1530
  3431  0074D6                     u1531:
  3432  0074D6  EFBF  F03A         	goto	l2100
  3433  0074DA                     u1530:
  3434  0074DA  0E01               	movlw	1
  3435  0074DC  6E11               	movwf	___aodiv@counter^0,c
  3436  0074DE  EF7B  F03A         	goto	l2086
  3437  0074E2                     l2084:
  3438  0074E2  90D8               	bcf	status,0,c
  3439  0074E4  3609               	rlcf	___aodiv@divisor^0,f,c
  3440  0074E6  360A               	rlcf	(___aodiv@divisor+1)^0,f,c
  3441  0074E8  360B               	rlcf	(___aodiv@divisor+2)^0,f,c
  3442  0074EA  360C               	rlcf	(___aodiv@divisor+3)^0,f,c
  3443  0074EC  360D               	rlcf	(___aodiv@divisor+4)^0,f,c
  3444  0074EE  360E               	rlcf	(___aodiv@divisor+5)^0,f,c
  3445  0074F0  360F               	rlcf	(___aodiv@divisor+6)^0,f,c
  3446  0074F2  3610               	rlcf	(___aodiv@divisor+7)^0,f,c
  3447  0074F4  2A11               	incf	___aodiv@counter^0,f,c
  3448  0074F6                     l2086:
  3449  0074F6  AE10               	btfss	(___aodiv@divisor+7)^0,7,c
  3450  0074F8  EF80  F03A         	goto	u1541
  3451  0074FC  EF82  F03A         	goto	u1540
  3452  007500                     u1541:
  3453  007500  EF71  F03A         	goto	l2084
  3454  007504                     u1540:
  3455  007504                     l2088:
  3456  007504  90D8               	bcf	status,0,c
  3457  007506  3613               	rlcf	___aodiv@quotient^0,f,c
  3458  007508  3614               	rlcf	(___aodiv@quotient+1)^0,f,c
  3459  00750A  3615               	rlcf	(___aodiv@quotient+2)^0,f,c
  3460  00750C  3616               	rlcf	(___aodiv@quotient+3)^0,f,c
  3461  00750E  3617               	rlcf	(___aodiv@quotient+4)^0,f,c
  3462  007510  3618               	rlcf	(___aodiv@quotient+5)^0,f,c
  3463  007512  3619               	rlcf	(___aodiv@quotient+6)^0,f,c
  3464  007514  361A               	rlcf	(___aodiv@quotient+7)^0,f,c
  3465  007516  5009               	movf	___aodiv@divisor^0,w,c
  3466  007518  5C01               	subwf	___aodiv@dividend^0,w,c
  3467  00751A  500A               	movf	(___aodiv@divisor+1)^0,w,c
  3468  00751C  5802               	subwfb	(___aodiv@dividend+1)^0,w,c
  3469  00751E  500B               	movf	(___aodiv@divisor+2)^0,w,c
  3470  007520  5803               	subwfb	(___aodiv@dividend+2)^0,w,c
  3471  007522  500C               	movf	(___aodiv@divisor+3)^0,w,c
  3472  007524  5804               	subwfb	(___aodiv@dividend+3)^0,w,c
  3473  007526  500D               	movf	(___aodiv@divisor+4)^0,w,c
  3474  007528  5805               	subwfb	(___aodiv@dividend+4)^0,w,c
  3475  00752A  500E               	movf	(___aodiv@divisor+5)^0,w,c
  3476  00752C  5806               	subwfb	(___aodiv@dividend+5)^0,w,c
  3477  00752E  500F               	movf	(___aodiv@divisor+6)^0,w,c
  3478  007530  5807               	subwfb	(___aodiv@dividend+6)^0,w,c
  3479  007532  5010               	movf	(___aodiv@divisor+7)^0,w,c
  3480  007534  5808               	subwfb	(___aodiv@dividend+7)^0,w,c
  3481  007536  A0D8               	btfss	status,0,c
  3482  007538  EFA0  F03A         	goto	u1551
  3483  00753C  EFA2  F03A         	goto	u1550
  3484  007540                     u1551:
  3485  007540  EFB3  F03A         	goto	l2096
  3486  007544                     u1550:
  3487  007544  5009               	movf	___aodiv@divisor^0,w,c
  3488  007546  5E01               	subwf	___aodiv@dividend^0,f,c
  3489  007548  500A               	movf	(___aodiv@divisor+1)^0,w,c
  3490  00754A  5A02               	subwfb	(___aodiv@dividend+1)^0,f,c
  3491  00754C  500B               	movf	(___aodiv@divisor+2)^0,w,c
  3492  00754E  5A03               	subwfb	(___aodiv@dividend+2)^0,f,c
  3493  007550  500C               	movf	(___aodiv@divisor+3)^0,w,c
  3494  007552  5A04               	subwfb	(___aodiv@dividend+3)^0,f,c
  3495  007554  500D               	movf	(___aodiv@divisor+4)^0,w,c
  3496  007556  5A05               	subwfb	(___aodiv@dividend+4)^0,f,c
  3497  007558  500E               	movf	(___aodiv@divisor+5)^0,w,c
  3498  00755A  5A06               	subwfb	(___aodiv@dividend+5)^0,f,c
  3499  00755C  500F               	movf	(___aodiv@divisor+6)^0,w,c
  3500  00755E  5A07               	subwfb	(___aodiv@dividend+6)^0,f,c
  3501  007560  5010               	movf	(___aodiv@divisor+7)^0,w,c
  3502  007562  5A08               	subwfb	(___aodiv@dividend+7)^0,f,c
  3503  007564  8013               	bsf	___aodiv@quotient^0,0,c
  3504  007566                     l2096:
  3505  007566  90D8               	bcf	status,0,c
  3506  007568  3210               	rrcf	(___aodiv@divisor+7)^0,f,c
  3507  00756A  320F               	rrcf	(___aodiv@divisor+6)^0,f,c
  3508  00756C  320E               	rrcf	(___aodiv@divisor+5)^0,f,c
  3509  00756E  320D               	rrcf	(___aodiv@divisor+4)^0,f,c
  3510  007570  320C               	rrcf	(___aodiv@divisor+3)^0,f,c
  3511  007572  320B               	rrcf	(___aodiv@divisor+2)^0,f,c
  3512  007574  320A               	rrcf	(___aodiv@divisor+1)^0,f,c
  3513  007576  3209               	rrcf	___aodiv@divisor^0,f,c
  3514  007578  2E11               	decfsz	___aodiv@counter^0,f,c
  3515  00757A  EF82  F03A         	goto	l2088
  3516  00757E                     l2100:
  3517  00757E  5012               	movf	___aodiv@sign^0,w,c
  3518  007580  B4D8               	btfsc	status,2,c
  3519  007582  EFC5  F03A         	goto	u1561
  3520  007586  EFC7  F03A         	goto	u1560
  3521  00758A                     u1561:
  3522  00758A  EFD7  F03A         	goto	l2104
  3523  00758E                     u1560:
  3524  00758E  1E1A               	comf	(___aodiv@quotient+7)^0,f,c
  3525  007590  1E19               	comf	(___aodiv@quotient+6)^0,f,c
  3526  007592  1E18               	comf	(___aodiv@quotient+5)^0,f,c
  3527  007594  1E17               	comf	(___aodiv@quotient+4)^0,f,c
  3528  007596  1E16               	comf	(___aodiv@quotient+3)^0,f,c
  3529  007598  1E15               	comf	(___aodiv@quotient+2)^0,f,c
  3530  00759A  1E14               	comf	(___aodiv@quotient+1)^0,f,c
  3531  00759C  6C13               	negf	___aodiv@quotient^0,c
  3532  00759E  0E00               	movlw	0
  3533  0075A0  2214               	addwfc	(___aodiv@quotient+1)^0,f,c
  3534  0075A2  2215               	addwfc	(___aodiv@quotient+2)^0,f,c
  3535  0075A4  2216               	addwfc	(___aodiv@quotient+3)^0,f,c
  3536  0075A6  2217               	addwfc	(___aodiv@quotient+4)^0,f,c
  3537  0075A8  2218               	addwfc	(___aodiv@quotient+5)^0,f,c
  3538  0075AA  2219               	addwfc	(___aodiv@quotient+6)^0,f,c
  3539  0075AC  221A               	addwfc	(___aodiv@quotient+7)^0,f,c
  3540  0075AE                     l2104:
  3541  0075AE  C013  F001         	movff	___aodiv@quotient,?___aodiv
  3542  0075B2  C014  F002         	movff	___aodiv@quotient+1,?___aodiv+1
  3543  0075B6  C015  F003         	movff	___aodiv@quotient+2,?___aodiv+2
  3544  0075BA  C016  F004         	movff	___aodiv@quotient+3,?___aodiv+3
  3545  0075BE  C017  F005         	movff	___aodiv@quotient+4,?___aodiv+4
  3546  0075C2  C018  F006         	movff	___aodiv@quotient+5,?___aodiv+5
  3547  0075C6  C019  F007         	movff	___aodiv@quotient+6,?___aodiv+6
  3548  0075CA  C01A  F008         	movff	___aodiv@quotient+7,?___aodiv+7
  3549  0075CE  0012               	return		;funcret
  3550  0075D0                     __end_of___aodiv:
  3551                           	callstack 0
  3552                           
  3553 ;; *************** function _atoi *****************
  3554 ;; Defined at:
  3555 ;;		line 4 in file "C:\Program Files\Microchip\xc8\v2.36\pic\sources\c99\common\atoi.c"
  3556 ;; Parameters:    Size  Location     Type
  3557 ;;  s               2    7[COMRAM] PTR const unsigned char 
  3558 ;;		 -> STR_2(15), STR_1(15), 
  3559 ;; Auto vars:     Size  Location     Type
  3560 ;;  n               2   15[COMRAM] int 
  3561 ;;  neg             2   13[COMRAM] int 
  3562 ;; Return value:  Size  Location     Type
  3563 ;;                  2    7[COMRAM] int 
  3564 ;; Registers used:
  3565 ;;		wreg, status,2, status,0, tblptrl, tblptrh, tblptru, prodl, prodh, cstack
  3566 ;; Tracked objects:
  3567 ;;		On entry : 0/0
  3568 ;;		On exit  : 0/0
  3569 ;;		Unchanged: 0/0
  3570 ;; Data sizes:     COMRAM   BANK0   BANK1   BANK2   BANK3   BANK4   BANK5
  3571 ;;      Params:         2       0       0       0       0       0       0
  3572 ;;      Locals:         4       0       0       0       0       0       0
  3573 ;;      Temps:          4       0       0       0       0       0       0
  3574 ;;      Totals:        10       0       0       0       0       0       0
  3575 ;;Total ram usage:       10 bytes
  3576 ;; Hardware stack levels used: 1
  3577 ;; Hardware stack levels required when called: 1
  3578 ;; This function calls:
  3579 ;;		___wmul
  3580 ;;		_isdigit
  3581 ;;		_isspace
  3582 ;; This function is called by:
  3583 ;;		_vfpfcnvrt
  3584 ;; This function uses a non-reentrant model
  3585 ;;
  3586                           
  3587                           	psect	text13
  3588  007024                     __ptext13:
  3589                           	callstack 0
  3590  007024                     _atoi:
  3591                           	callstack 26
  3592  007024  0E00               	movlw	0
  3593  007026  6E11               	movwf	(atoi@n+1)^0,c
  3594  007028  0E00               	movlw	0
  3595  00702A  6E10               	movwf	atoi@n^0,c
  3596  00702C  0E00               	movlw	0
  3597  00702E  6E0F               	movwf	(atoi@neg+1)^0,c
  3598  007030  0E00               	movlw	0
  3599  007032  6E0E               	movwf	atoi@neg^0,c
  3600  007034  EF1E  F038         	goto	l2288
  3601  007038                     l2284:
  3602  007038  4A08               	infsnz	atoi@s^0,f,c
  3603  00703A  2A09               	incf	(atoi@s+1)^0,f,c
  3604  00703C                     l2288:
  3605  00703C  C008  FFF6         	movff	atoi@s,tblptrl
  3606  007040  C009  FFF7         	movff	atoi@s+1,tblptrh
  3607  007044                     	if	0	;tblptru may be non-zero
  3608  007044                     	endif
  3609  007044                     	if	0	;tblptru may be non-zero
  3610  007044                     	endif
  3611  007044  0008               	tblrd		*
  3612  007046  50F5               	movf	tablat,w,c
  3613  007048  0A20               	xorlw	32
  3614  00704A  B4D8               	btfsc	status,2,c
  3615  00704C  EF2A  F038         	goto	u1941
  3616  007050  EF2C  F038         	goto	u1940
  3617  007054                     u1941:
  3618  007054  EF1C  F038         	goto	l2284
  3619  007058                     u1940:
  3620  007058  0EF7               	movlw	247
  3621  00705A  6E0A               	movwf	??_atoi^0,c
  3622  00705C  0EFF               	movlw	255
  3623  00705E  6E0B               	movwf	(??_atoi+1)^0,c
  3624  007060  C008  FFF6         	movff	atoi@s,tblptrl
  3625  007064  C009  FFF7         	movff	atoi@s+1,tblptrh
  3626  007068                     	if	0	;tblptru may be non-zero
  3627  007068                     	endif
  3628  007068                     	if	0	;tblptru may be non-zero
  3629  007068                     	endif
  3630  007068  0008               	tblrd		*
  3631  00706A  50F5               	movf	tablat,w,c
  3632  00706C  6E0C               	movwf	(??_atoi+2)^0,c
  3633  00706E  6A0D               	clrf	(??_atoi+3)^0,c
  3634  007070  500A               	movf	??_atoi^0,w,c
  3635  007072  260C               	addwf	(??_atoi+2)^0,f,c
  3636  007074  500B               	movf	(??_atoi+1)^0,w,c
  3637  007076  220D               	addwfc	(??_atoi+3)^0,f,c
  3638  007078  500D               	movf	(??_atoi+3)^0,w,c
  3639  00707A  E109               	bnz	u1950
  3640  00707C  0E05               	movlw	5
  3641  00707E  5C0C               	subwf	(??_atoi+2)^0,w,c
  3642  007080  A0D8               	btfss	status,0,c
  3643  007082  EF45  F038         	goto	u1951
  3644  007086  EF47  F038         	goto	u1950
  3645  00708A                     u1951:
  3646  00708A  EF1C  F038         	goto	l2284
  3647  00708E                     u1950:
  3648  00708E  EF51  F038         	goto	l2296
  3649  007092                     l2292:
  3650  007092  0E00               	movlw	0
  3651  007094  6E0F               	movwf	(atoi@neg+1)^0,c
  3652  007096  0E01               	movlw	1
  3653  007098  6E0E               	movwf	atoi@neg^0,c
  3654  00709A                     l2294:
  3655  00709A  4A08               	infsnz	atoi@s^0,f,c
  3656  00709C  2A09               	incf	(atoi@s+1)^0,f,c
  3657  00709E  EF86  F038         	goto	l2304
  3658  0070A2                     l2296:
  3659  0070A2  C008  FFF6         	movff	atoi@s,tblptrl
  3660  0070A6  C009  FFF7         	movff	atoi@s+1,tblptrh
  3661  0070AA                     	if	0	;tblptru may be non-zero
  3662  0070AA                     	endif
  3663  0070AA                     	if	0	;tblptru may be non-zero
  3664  0070AA                     	endif
  3665  0070AA  0008               	tblrd		*
  3666  0070AC  50F5               	movf	tablat,w,c
  3667  0070AE  6E0A               	movwf	??_atoi^0,c
  3668  0070B0  6A0B               	clrf	(??_atoi+1)^0,c
  3669                           
  3670                           ; Switch on 2 bytes has been partitioned into a top level switch of size 1, and 1 sub-sw
      +                          itches
  3671                           ; Switch size 1, requested type "simple"
  3672                           ; Number of cases is 1, Range of values is 0 to 0
  3673                           ; switch strategies available:
  3674                           ; Name         Instructions Cycles
  3675                           ; simple_byte            4     3 (average)
  3676                           ;	Chosen strategy is simple_byte
  3677  0070B2  500B               	movf	(??_atoi+1)^0,w,c
  3678  0070B4  0A00               	xorlw	0	; case 0
  3679  0070B6  B4D8               	btfsc	status,2,c
  3680  0070B8  EF60  F038         	goto	l2816
  3681  0070BC  EF86  F038         	goto	l2304
  3682  0070C0                     l2816:
  3683                           
  3684                           ; Switch size 1, requested type "simple"
  3685                           ; Number of cases is 2, Range of values is 43 to 45
  3686                           ; switch strategies available:
  3687                           ; Name         Instructions Cycles
  3688                           ; simple_byte            7     4 (average)
  3689                           ;	Chosen strategy is simple_byte
  3690  0070C0  500A               	movf	??_atoi^0,w,c
  3691  0070C2  0A2B               	xorlw	43	; case 43
  3692  0070C4  B4D8               	btfsc	status,2,c
  3693  0070C6  EF4D  F038         	goto	l2294
  3694  0070CA  0A06               	xorlw	6	; case 45
  3695  0070CC  B4D8               	btfsc	status,2,c
  3696  0070CE  EF49  F038         	goto	l2292
  3697  0070D2  EF86  F038         	goto	l2304
  3698  0070D6                     l2298:
  3699  0070D6  C010  F001         	movff	atoi@n,___wmul@multiplier
  3700  0070DA  C011  F002         	movff	atoi@n+1,___wmul@multiplier+1
  3701  0070DE  0E00               	movlw	0
  3702  0070E0  6E04               	movwf	(___wmul@multiplicand+1)^0,c
  3703  0070E2  0E0A               	movlw	10
  3704  0070E4  6E03               	movwf	___wmul@multiplicand^0,c
  3705  0070E6  ECDA  F031         	call	___wmul	;wreg free
  3706  0070EA  C008  FFF6         	movff	atoi@s,tblptrl
  3707  0070EE  C009  FFF7         	movff	atoi@s+1,tblptrh
  3708  0070F2                     	if	0	;tblptru may be non-zero
  3709  0070F2                     	endif
  3710  0070F2                     	if	0	;tblptru may be non-zero
  3711  0070F2                     	endif
  3712  0070F2  0008               	tblrd		*
  3713  0070F4  50F5               	movf	tablat,w,c
  3714  0070F6  5E01               	subwf	?___wmul^0,f,c
  3715  0070F8  0E00               	movlw	0
  3716  0070FA  5A02               	subwfb	(?___wmul+1)^0,f,c
  3717  0070FC  0E30               	movlw	48
  3718  0070FE  2401               	addwf	?___wmul^0,w,c
  3719  007100  6E10               	movwf	atoi@n^0,c
  3720  007102  0E00               	movlw	0
  3721  007104  2002               	addwfc	(?___wmul+1)^0,w,c
  3722  007106  6E11               	movwf	(atoi@n+1)^0,c
  3723  007108  EF4D  F038         	goto	l2294
  3724  00710C                     l2304:
  3725  00710C  0ED0               	movlw	208
  3726  00710E  6E0A               	movwf	??_atoi^0,c
  3727  007110  0EFF               	movlw	255
  3728  007112  6E0B               	movwf	(??_atoi+1)^0,c
  3729  007114  C008  FFF6         	movff	atoi@s,tblptrl
  3730  007118  C009  FFF7         	movff	atoi@s+1,tblptrh
  3731  00711C                     	if	0	;tblptru may be non-zero
  3732  00711C                     	endif
  3733  00711C                     	if	0	;tblptru may be non-zero
  3734  00711C                     	endif
  3735  00711C  0008               	tblrd		*
  3736  00711E  50F5               	movf	tablat,w,c
  3737  007120  6E0C               	movwf	(??_atoi+2)^0,c
  3738  007122  6A0D               	clrf	(??_atoi+3)^0,c
  3739  007124  500A               	movf	??_atoi^0,w,c
  3740  007126  260C               	addwf	(??_atoi+2)^0,f,c
  3741  007128  500B               	movf	(??_atoi+1)^0,w,c
  3742  00712A  220D               	addwfc	(??_atoi+3)^0,f,c
  3743  00712C  500D               	movf	(??_atoi+3)^0,w,c
  3744  00712E  E109               	bnz	u1960
  3745  007130  0E0A               	movlw	10
  3746  007132  5C0C               	subwf	(??_atoi+2)^0,w,c
  3747  007134  A0D8               	btfss	status,0,c
  3748  007136  EF9F  F038         	goto	u1961
  3749  00713A  EFA1  F038         	goto	u1960
  3750  00713E                     u1961:
  3751  00713E  EF6B  F038         	goto	l2298
  3752  007142                     u1960:
  3753  007142  500E               	movf	atoi@neg^0,w,c
  3754  007144  100F               	iorwf	(atoi@neg+1)^0,w,c
  3755  007146  A4D8               	btfss	status,2,c
  3756  007148  EFA8  F038         	goto	u1971
  3757  00714C  EFAA  F038         	goto	u1970
  3758  007150                     u1971:
  3759  007150  EFB8  F038         	goto	l1092
  3760  007154                     u1970:
  3761  007154  C010  F00A         	movff	atoi@n,??_atoi
  3762  007158  C011  F00B         	movff	atoi@n+1,??_atoi+1
  3763  00715C  1E0A               	comf	??_atoi^0,f,c
  3764  00715E  1E0B               	comf	(??_atoi+1)^0,f,c
  3765  007160  4A0A               	infsnz	??_atoi^0,f,c
  3766  007162  2A0B               	incf	(??_atoi+1)^0,f,c
  3767  007164  C00A  F008         	movff	??_atoi,?_atoi
  3768  007168  C00B  F009         	movff	??_atoi+1,?_atoi+1
  3769  00716C  EFBC  F038         	goto	l1095
  3770  007170                     l1092:
  3771  007170  C010  F008         	movff	atoi@n,?_atoi
  3772  007174  C011  F009         	movff	atoi@n+1,?_atoi+1
  3773  007178                     l1095:
  3774  007178  0012               	return		;funcret
  3775  00717A                     __end_of_atoi:
  3776                           	callstack 0
  3777                           
  3778 ;; *************** function _isspace *****************
  3779 ;; Defined at:
  3780 ;;		line 5 in file "C:\Program Files\Microchip\xc8\v2.36\pic\sources\c99\common\isspace.c"
  3781 ;; Parameters:    Size  Location     Type
  3782 ;;  c               2    0[COMRAM] int 
  3783 ;; Auto vars:     Size  Location     Type
  3784 ;;		None
  3785 ;; Return value:  Size  Location     Type
  3786 ;;                  2    0[COMRAM] int 
  3787 ;; Registers used:
  3788 ;;		wreg, status,2, status,0
  3789 ;; Tracked objects:
  3790 ;;		On entry : 0/0
  3791 ;;		On exit  : 0/0
  3792 ;;		Unchanged: 0/0
  3793 ;; Data sizes:     COMRAM   BANK0   BANK1   BANK2   BANK3   BANK4   BANK5
  3794 ;;      Params:         2       0       0       0       0       0       0
  3795 ;;      Locals:         1       0       0       0       0       0       0
  3796 ;;      Temps:          4       0       0       0       0       0       0
  3797 ;;      Totals:         7       0       0       0       0       0       0
  3798 ;;Total ram usage:        7 bytes
  3799 ;; Hardware stack levels used: 1
  3800 ;; This function calls:
  3801 ;;		Nothing
  3802 ;; This function is called by:
  3803 ;;		_atoi
  3804 ;; This function uses a non-reentrant model
  3805 ;;
  3806                           
  3807                           	psect	text14
  3808  00660A                     __ptext14:
  3809                           	callstack 0
  3810  00660A                     _isspace:
  3811                           	callstack 26
  3812  00660A  0E01               	movlw	1
  3813  00660C  6E07               	movwf	_isspace$1130^0,c
  3814  00660E  0E20               	movlw	32
  3815  006610  1801               	xorwf	isspace@c^0,w,c
  3816  006612  1002               	iorwf	(isspace@c+1)^0,w,c
  3817  006614  B4D8               	btfsc	status,2,c
  3818  006616  EF0F  F033         	goto	u1701
  3819  00661A  EF11  F033         	goto	u1700
  3820  00661E                     u1701:
  3821  00661E  EF2A  F033         	goto	l2182
  3822  006622                     u1700:
  3823  006622  0EF7               	movlw	247
  3824  006624  6E03               	movwf	??_isspace^0,c
  3825  006626  0EFF               	movlw	255
  3826  006628  6E04               	movwf	(??_isspace+1)^0,c
  3827  00662A  C001  F005         	movff	isspace@c,??_isspace+2
  3828  00662E  C002  F006         	movff	isspace@c+1,??_isspace+3
  3829  006632  5003               	movf	??_isspace^0,w,c
  3830  006634  2605               	addwf	(??_isspace+2)^0,f,c
  3831  006636  5004               	movf	(??_isspace+1)^0,w,c
  3832  006638  2206               	addwfc	(??_isspace+3)^0,f,c
  3833  00663A  5006               	movf	(??_isspace+3)^0,w,c
  3834  00663C  E109               	bnz	u1710
  3835  00663E  0E05               	movlw	5
  3836  006640  5C05               	subwf	(??_isspace+2)^0,w,c
  3837  006642  A0D8               	btfss	status,0,c
  3838  006644  EF26  F033         	goto	u1711
  3839  006648  EF28  F033         	goto	u1710
  3840  00664C                     u1711:
  3841  00664C  EF2A  F033         	goto	l2182
  3842  006650                     u1710:
  3843  006650  0E00               	movlw	0
  3844  006652  6E07               	movwf	_isspace$1130^0,c
  3845  006654                     l2182:
  3846  006654  C007  F001         	movff	_isspace$1130,?_isspace
  3847  006658  6A02               	clrf	(?_isspace+1)^0,c
  3848  00665A  0012               	return		;funcret
  3849  00665C                     __end_of_isspace:
  3850                           	callstack 0
  3851                           
  3852 ;; *************** function _isdigit *****************
  3853 ;; Defined at:
  3854 ;;		line 5 in file "C:\Program Files\Microchip\xc8\v2.36\pic\sources\c99\common\isdigit.c"
  3855 ;; Parameters:    Size  Location     Type
  3856 ;;  c               2    0[COMRAM] int 
  3857 ;; Auto vars:     Size  Location     Type
  3858 ;;		None
  3859 ;; Return value:  Size  Location     Type
  3860 ;;                  2    0[COMRAM] int 
  3861 ;; Registers used:
  3862 ;;		wreg, status,2, status,0
  3863 ;; Tracked objects:
  3864 ;;		On entry : 0/0
  3865 ;;		On exit  : 0/0
  3866 ;;		Unchanged: 0/0
  3867 ;; Data sizes:     COMRAM   BANK0   BANK1   BANK2   BANK3   BANK4   BANK5
  3868 ;;      Params:         2       0       0       0       0       0       0
  3869 ;;      Locals:         0       0       0       0       0       0       0
  3870 ;;      Temps:          4       0       0       0       0       0       0
  3871 ;;      Totals:         6       0       0       0       0       0       0
  3872 ;;Total ram usage:        6 bytes
  3873 ;; Hardware stack levels used: 1
  3874 ;; This function calls:
  3875 ;;		Nothing
  3876 ;; This function is called by:
  3877 ;;		_vfpfcnvrt
  3878 ;;		_atoi
  3879 ;; This function uses a non-reentrant model
  3880 ;;
  3881                           
  3882                           	psect	text15
  3883  006462                     __ptext15:
  3884                           	callstack 0
  3885  006462                     _isdigit:
  3886                           	callstack 27
  3887  006462  0ED0               	movlw	208
  3888  006464  6E03               	movwf	??_isdigit^0,c
  3889  006466  0EFF               	movlw	255
  3890  006468  6E04               	movwf	(??_isdigit+1)^0,c
  3891  00646A  C001  F005         	movff	isdigit@c,??_isdigit+2
  3892  00646E  C002  F006         	movff	isdigit@c+1,??_isdigit+3
  3893  006472  5003               	movf	??_isdigit^0,w,c
  3894  006474  2605               	addwf	(??_isdigit+2)^0,f,c
  3895  006476  5004               	movf	(??_isdigit+1)^0,w,c
  3896  006478  2206               	addwfc	(??_isdigit+3)^0,f,c
  3897  00647A  5006               	movf	(??_isdigit+3)^0,w,c
  3898  00647C  E10A               	bnz	u1680
  3899  00647E  0E0A               	movlw	10
  3900  006480  5C05               	subwf	(??_isdigit+2)^0,w,c
  3901  006482  A0D8               	btfss	status,0,c
  3902  006484  EF46  F032         	goto	u1681
  3903  006488  EF49  F032         	goto	u1680
  3904  00648C                     u1681:
  3905  00648C  0E01               	movlw	1
  3906  00648E  EF4A  F032         	goto	u1690
  3907  006492                     u1680:
  3908  006492  0E00               	movlw	0
  3909  006494                     u1690:
  3910  006494  6E01               	movwf	?_isdigit^0,c
  3911  006496  6A02               	clrf	(?_isdigit+1)^0,c
  3912  006498  0012               	return		;funcret
  3913  00649A                     __end_of_isdigit:
  3914                           	callstack 0
  3915                           
  3916 ;; *************** function ___wmul *****************
  3917 ;; Defined at:
  3918 ;;		line 15 in file "C:\Program Files\Microchip\xc8\v2.36\pic\sources\c99\common\Umul16.c"
  3919 ;; Parameters:    Size  Location     Type
  3920 ;;  multiplier      2    0[COMRAM] unsigned int 
  3921 ;;  multiplicand    2    2[COMRAM] unsigned int 
  3922 ;; Auto vars:     Size  Location     Type
  3923 ;;  product         2    4[COMRAM] unsigned int 
  3924 ;; Return value:  Size  Location     Type
  3925 ;;                  2    0[COMRAM] unsigned int 
  3926 ;; Registers used:
  3927 ;;		wreg, status,2, status,0, prodl, prodh
  3928 ;; Tracked objects:
  3929 ;;		On entry : 0/0
  3930 ;;		On exit  : 0/0
  3931 ;;		Unchanged: 0/0
  3932 ;; Data sizes:     COMRAM   BANK0   BANK1   BANK2   BANK3   BANK4   BANK5
  3933 ;;      Params:         4       0       0       0       0       0       0
  3934 ;;      Locals:         2       0       0       0       0       0       0
  3935 ;;      Temps:          0       0       0       0       0       0       0
  3936 ;;      Totals:         6       0       0       0       0       0       0
  3937 ;;Total ram usage:        6 bytes
  3938 ;; Hardware stack levels used: 1
  3939 ;; This function calls:
  3940 ;;		Nothing
  3941 ;; This function is called by:
  3942 ;;		_atoi
  3943 ;; This function uses a non-reentrant model
  3944 ;;
  3945                           
  3946                           	psect	text16
  3947  0063B4                     __ptext16:
  3948                           	callstack 0
  3949  0063B4                     ___wmul:
  3950                           	callstack 26
  3951  0063B4  5001               	movf	___wmul@multiplier^0,w,c
  3952  0063B6  0203               	mulwf	___wmul@multiplicand^0,c
  3953  0063B8  CFF3 F005          	movff	prodl,___wmul@product
  3954  0063BC  CFF4 F006          	movff	prodh,___wmul@product+1
  3955  0063C0  5001               	movf	___wmul@multiplier^0,w,c
  3956  0063C2  0204               	mulwf	(___wmul@multiplicand+1)^0,c
  3957  0063C4  50F3               	movf	243,w,c
  3958  0063C6  2606               	addwf	(___wmul@product+1)^0,f,c
  3959  0063C8  5002               	movf	(___wmul@multiplier+1)^0,w,c
  3960  0063CA  0203               	mulwf	___wmul@multiplicand^0,c
  3961  0063CC  50F3               	movf	243,w,c
  3962  0063CE  2606               	addwf	(___wmul@product+1)^0,f,c
  3963  0063D0  C005  F001         	movff	___wmul@product,?___wmul
  3964  0063D4  C006  F002         	movff	___wmul@product+1,?___wmul+1
  3965  0063D8  0012               	return		;funcret
  3966  0063DA                     __end_of___wmul:
  3967                           	callstack 0
  3968                           
  3969 ;; *************** function _RTC_GetTime *****************
  3970 ;; Defined at:
  3971 ;;		line 278 in file "RTCLib.c"
  3972 ;; Parameters:    Size  Location     Type
  3973 ;;  result          2   15[COMRAM] PTR struct .
  3974 ;;		 -> main@horaActual(4), 
  3975 ;; Auto vars:     Size  Location     Type
  3976 ;;  dataBuff        3   18[COMRAM] unsigned char [3]
  3977 ;; Return value:  Size  Location     Type
  3978 ;;                  1    wreg      _Bool 
  3979 ;; Registers used:
  3980 ;;		wreg, fsr2l, fsr2h, status,2, status,0, prodl, prodh, cstack
  3981 ;; Tracked objects:
  3982 ;;		On entry : 0/0
  3983 ;;		On exit  : 0/0
  3984 ;;		Unchanged: 0/0
  3985 ;; Data sizes:     COMRAM   BANK0   BANK1   BANK2   BANK3   BANK4   BANK5
  3986 ;;      Params:         2       0       0       0       0       0       0
  3987 ;;      Locals:         3       0       0       0       0       0       0
  3988 ;;      Temps:          1       0       0       0       0       0       0
  3989 ;;      Totals:         6       0       0       0       0       0       0
  3990 ;;Total ram usage:        6 bytes
  3991 ;; Hardware stack levels used: 1
  3992 ;; Hardware stack levels required when called: 3
  3993 ;; This function calls:
  3994 ;;		_BCD_to_DEC
  3995 ;;		_RTC_ReadBytes
  3996 ;; This function is called by:
  3997 ;;		_main
  3998 ;; This function uses a non-reentrant model
  3999 ;;
  4000                           
  4001                           	psect	text17
  4002  006DF2                     __ptext17:
  4003                           	callstack 0
  4004  006DF2                     _RTC_GetTime:
  4005                           	callstack 27
  4006  006DF2                     
  4007                           ;RTCLib.c: 279:     uint8_t dataBuff[3];;RTCLib.c: 281:     RTC_ReadBytes(0x00, dataBuff
      +                          , 3);
  4008  006DF2  0E13               	movlw	low RTC_GetTime@dataBuff
  4009  006DF4  6E04               	movwf	RTC_ReadBytes@data^0,c
  4010  006DF6  0E00               	movlw	high RTC_GetTime@dataBuff
  4011  006DF8  6E05               	movwf	(RTC_ReadBytes@data+1)^0,c
  4012  006DFA  0E03               	movlw	3
  4013  006DFC  6E06               	movwf	RTC_ReadBytes@len^0,c
  4014  006DFE  0E00               	movlw	0
  4015  006E00  ECCB  F034         	call	_RTC_ReadBytes
  4016  006E04                     
  4017                           ;RTCLib.c: 285:     result->seconds = BCD_to_DEC(dataBuff[0] & 0x7F);
  4018  006E04  EE20 F002          	lfsr	2,2
  4019  006E08  5010               	movf	RTC_GetTime@result^0,w,c
  4020  006E0A  26D9               	addwf	fsr2l,f,c
  4021  006E0C  5011               	movf	(RTC_GetTime@result+1)^0,w,c
  4022  006E0E  22DA               	addwfc	fsr2h,f,c
  4023  006E10  5013               	movf	RTC_GetTime@dataBuff^0,w,c
  4024  006E12  0B7F               	andlw	127
  4025  006E14  ECAB  F031         	call	_BCD_to_DEC
  4026  006E18  6EDF               	movwf	indf2,c
  4027  006E1A                     
  4028                           ;RTCLib.c: 286:     result->minutes = BCD_to_DEC(dataBuff[1]);
  4029  006E1A  EE20 F001          	lfsr	2,1
  4030  006E1E  5010               	movf	RTC_GetTime@result^0,w,c
  4031  006E20  26D9               	addwf	fsr2l,f,c
  4032  006E22  5011               	movf	(RTC_GetTime@result+1)^0,w,c
  4033  006E24  22DA               	addwfc	fsr2h,f,c
  4034  006E26  5014               	movf	(RTC_GetTime@dataBuff+1)^0,w,c
  4035  006E28  ECAB  F031         	call	_BCD_to_DEC
  4036  006E2C  6EDF               	movwf	indf2,c
  4037  006E2E                     
  4038                           ;RTCLib.c: 289:     if (_selectedModel != RTC_MODEL_BQ32000 && (dataBuff[2] & 0x40)) {
  4039  006E2E  505F               	movf	__selectedModel^0,w,c
  4040  006E30  B4D8               	btfsc	status,2,c
  4041  006E32  EF1D  F037         	goto	u2341
  4042  006E36  EF1F  F037         	goto	u2340
  4043  006E3A                     u2341:
  4044  006E3A  EF41  F037         	goto	l2602
  4045  006E3E                     u2340:
  4046  006E3E  AC15               	btfss	(RTC_GetTime@dataBuff+2)^0,6,c
  4047  006E40  EF24  F037         	goto	u2351
  4048  006E44  EF26  F037         	goto	u2350
  4049  006E48                     u2351:
  4050  006E48  EF41  F037         	goto	l2602
  4051  006E4C                     u2350:
  4052  006E4C                     
  4053                           ;RTCLib.c: 291:         result->hours = BCD_to_DEC(dataBuff[2] & 0x1F);
  4054  006E4C  5015               	movf	(RTC_GetTime@dataBuff+2)^0,w,c
  4055  006E4E  0B1F               	andlw	31
  4056  006E50  ECAB  F031         	call	_BCD_to_DEC
  4057  006E54  C010  FFD9         	movff	RTC_GetTime@result,fsr2l
  4058  006E58  C011  FFDA         	movff	RTC_GetTime@result+1,fsr2h
  4059  006E5C  6EDF               	movwf	indf2,c
  4060  006E5E                     
  4061                           ;RTCLib.c: 292:         result->timeMode = (dataBuff[2] & 0x20) ? 1 : 0;
  4062  006E5E  EE20 F003          	lfsr	2,3
  4063  006E62  5010               	movf	RTC_GetTime@result^0,w,c
  4064  006E64  26D9               	addwf	fsr2l,f,c
  4065  006E66  5011               	movf	(RTC_GetTime@result+1)^0,w,c
  4066  006E68  22DA               	addwfc	fsr2h,f,c
  4067  006E6A  BA15               	btfsc	(RTC_GetTime@dataBuff+2)^0,5,c
  4068  006E6C  EF3A  F037         	goto	u2361
  4069  006E70  EF3D  F037         	goto	u2360
  4070  006E74                     u2361:
  4071  006E74  0E01               	movlw	1
  4072  006E76  EF3E  F037         	goto	u2370
  4073  006E7A                     u2360:
  4074  006E7A  0E00               	movlw	0
  4075  006E7C                     u2370:
  4076  006E7C  6EDF               	movwf	indf2,c
  4077                           
  4078                           ;RTCLib.c: 293:     } else {
  4079  006E7E  EF52  F037         	goto	l2606
  4080  006E82                     l2602:
  4081                           
  4082                           ;RTCLib.c: 295:         result->hours = BCD_to_DEC(dataBuff[2] & 0x3F);
  4083  006E82  5015               	movf	(RTC_GetTime@dataBuff+2)^0,w,c
  4084  006E84  0B3F               	andlw	63
  4085  006E86  ECAB  F031         	call	_BCD_to_DEC
  4086  006E8A  C010  FFD9         	movff	RTC_GetTime@result,fsr2l
  4087  006E8E  C011  FFDA         	movff	RTC_GetTime@result+1,fsr2h
  4088  006E92  6EDF               	movwf	indf2,c
  4089  006E94                     
  4090                           ;RTCLib.c: 296:         result->timeMode = 2;
  4091  006E94  EE20 F003          	lfsr	2,3
  4092  006E98  5010               	movf	RTC_GetTime@result^0,w,c
  4093  006E9A  26D9               	addwf	fsr2l,f,c
  4094  006E9C  5011               	movf	(RTC_GetTime@result+1)^0,w,c
  4095  006E9E  22DA               	addwfc	fsr2h,f,c
  4096  006EA0  0E02               	movlw	2
  4097  006EA2  6EDF               	movwf	indf2,c
  4098  006EA4                     l2606:
  4099                           
  4100                           ;RTCLib.c: 299:     if (result->seconds > 59 || result->minutes > 59 || result->hours > 
      +                          23) {
  4101  006EA4  EE20 F002          	lfsr	2,2
  4102  006EA8  5010               	movf	RTC_GetTime@result^0,w,c
  4103  006EAA  26D9               	addwf	fsr2l,f,c
  4104  006EAC  5011               	movf	(RTC_GetTime@result+1)^0,w,c
  4105  006EAE  22DA               	addwfc	fsr2h,f,c
  4106  006EB0  0E3C               	movlw	60
  4107  006EB2  60DF               	cpfslt	indf2,c
  4108  006EB4  EF5E  F037         	goto	u2381
  4109  006EB8  EF60  F037         	goto	u2380
  4110  006EBC                     u2381:
  4111  006EBC  EF7A  F037         	goto	l2612
  4112  006EC0                     u2380:
  4113  006EC0  EE20 F001          	lfsr	2,1
  4114  006EC4  5010               	movf	RTC_GetTime@result^0,w,c
  4115  006EC6  26D9               	addwf	fsr2l,f,c
  4116  006EC8  5011               	movf	(RTC_GetTime@result+1)^0,w,c
  4117  006ECA  22DA               	addwfc	fsr2h,f,c
  4118  006ECC  0E3C               	movlw	60
  4119  006ECE  60DF               	cpfslt	indf2,c
  4120  006ED0  EF6C  F037         	goto	u2391
  4121  006ED4  EF6E  F037         	goto	u2390
  4122  006ED8                     u2391:
  4123  006ED8  EF7A  F037         	goto	l2612
  4124  006EDC                     u2390:
  4125  006EDC  C010  FFD9         	movff	RTC_GetTime@result,fsr2l
  4126  006EE0  C011  FFDA         	movff	RTC_GetTime@result+1,fsr2h
  4127  006EE4  0E17               	movlw	23
  4128  006EE6  64DF               	cpfsgt	indf2,c
  4129  006EE8  EF78  F037         	goto	u2401
  4130  006EEC  EF7A  F037         	goto	u2400
  4131  006EF0                     u2401:
  4132  006EF0  EF7D  F037         	goto	l2616
  4133  006EF4                     u2400:
  4134  006EF4                     l2612:
  4135                           
  4136                           ;RTCLib.c: 300:         return 0;
  4137  006EF4  0E00               	movlw	0
  4138  006EF6  EF7E  F037         	goto	l87
  4139  006EFA                     l2616:
  4140                           
  4141                           ;RTCLib.c: 303:     return 1;
  4142  006EFA  0E01               	movlw	1
  4143  006EFC                     l87:
  4144  006EFC  0012               	return		;funcret
  4145  006EFE                     __end_of_RTC_GetTime:
  4146                           	callstack 0
  4147                           
  4148 ;; *************** function _RTC_GetDate *****************
  4149 ;; Defined at:
  4150 ;;		line 335 in file "RTCLib.c"
  4151 ;; Parameters:    Size  Location     Type
  4152 ;;  result          2   15[COMRAM] PTR struct .
  4153 ;;		 -> main@fechaActual(5), 
  4154 ;; Auto vars:     Size  Location     Type
  4155 ;;  dataBuff        4   21[COMRAM] unsigned char [4]
  4156 ;; Return value:  Size  Location     Type
  4157 ;;                  1    wreg      _Bool 
  4158 ;; Registers used:
  4159 ;;		wreg, fsr2l, fsr2h, status,2, status,0, prodl, prodh, cstack
  4160 ;; Tracked objects:
  4161 ;;		On entry : 0/0
  4162 ;;		On exit  : 0/0
  4163 ;;		Unchanged: 0/0
  4164 ;; Data sizes:     COMRAM   BANK0   BANK1   BANK2   BANK3   BANK4   BANK5
  4165 ;;      Params:         2       0       0       0       0       0       0
  4166 ;;      Locals:         4       0       0       0       0       0       0
  4167 ;;      Temps:          4       0       0       0       0       0       0
  4168 ;;      Totals:        10       0       0       0       0       0       0
  4169 ;;Total ram usage:       10 bytes
  4170 ;; Hardware stack levels used: 1
  4171 ;; Hardware stack levels required when called: 3
  4172 ;; This function calls:
  4173 ;;		_BCD_to_DEC
  4174 ;;		_RTC_ReadBytes
  4175 ;; This function is called by:
  4176 ;;		_main
  4177 ;; This function uses a non-reentrant model
  4178 ;;
  4179                           
  4180                           	psect	text18
  4181  006EFE                     __ptext18:
  4182                           	callstack 0
  4183  006EFE                     _RTC_GetDate:
  4184                           	callstack 27
  4185  006EFE                     
  4186                           ;RTCLib.c: 336:     uint8_t dataBuff[4];;RTCLib.c: 338:     RTC_ReadBytes(0x03, dataBuff
      +                          , 4);
  4187  006EFE  0E16               	movlw	low RTC_GetDate@dataBuff
  4188  006F00  6E04               	movwf	RTC_ReadBytes@data^0,c
  4189  006F02  0E00               	movlw	high RTC_GetDate@dataBuff
  4190  006F04  6E05               	movwf	(RTC_ReadBytes@data+1)^0,c
  4191  006F06  0E04               	movlw	4
  4192  006F08  6E06               	movwf	RTC_ReadBytes@len^0,c
  4193  006F0A  0E03               	movlw	3
  4194  006F0C  ECCB  F034         	call	_RTC_ReadBytes
  4195  006F10                     
  4196                           ;RTCLib.c: 340:     result->weekday = dataBuff[0];
  4197  006F10  EE20 F004          	lfsr	2,4
  4198  006F14  5010               	movf	RTC_GetDate@result^0,w,c
  4199  006F16  26D9               	addwf	fsr2l,f,c
  4200  006F18  5011               	movf	(RTC_GetDate@result+1)^0,w,c
  4201  006F1A  22DA               	addwfc	fsr2h,f,c
  4202  006F1C  C016  FFDF         	movff	RTC_GetDate@dataBuff,indf2
  4203  006F20                     
  4204                           ;RTCLib.c: 341:     result->day = BCD_to_DEC(dataBuff[1]);
  4205  006F20  EE20 F003          	lfsr	2,3
  4206  006F24  5010               	movf	RTC_GetDate@result^0,w,c
  4207  006F26  26D9               	addwf	fsr2l,f,c
  4208  006F28  5011               	movf	(RTC_GetDate@result+1)^0,w,c
  4209  006F2A  22DA               	addwfc	fsr2h,f,c
  4210  006F2C  5017               	movf	(RTC_GetDate@dataBuff+1)^0,w,c
  4211  006F2E  ECAB  F031         	call	_BCD_to_DEC
  4212  006F32  6EDF               	movwf	indf2,c
  4213  006F34                     
  4214                           ;RTCLib.c: 342:     result->month = BCD_to_DEC(dataBuff[2]);
  4215  006F34  EE20 F002          	lfsr	2,2
  4216  006F38  5010               	movf	RTC_GetDate@result^0,w,c
  4217  006F3A  26D9               	addwf	fsr2l,f,c
  4218  006F3C  5011               	movf	(RTC_GetDate@result+1)^0,w,c
  4219  006F3E  22DA               	addwfc	fsr2h,f,c
  4220  006F40  5018               	movf	(RTC_GetDate@dataBuff+2)^0,w,c
  4221  006F42  ECAB  F031         	call	_BCD_to_DEC
  4222  006F46  6EDF               	movwf	indf2,c
  4223  006F48                     
  4224                           ;RTCLib.c: 343:     result->year = BCD_to_DEC(dataBuff[3]) + 2000;
  4225  006F48  0ED0               	movlw	208
  4226  006F4A  6E12               	movwf	??_RTC_GetDate^0,c
  4227  006F4C  0E07               	movlw	7
  4228  006F4E  6E13               	movwf	(??_RTC_GetDate+1)^0,c
  4229  006F50  5019               	movf	(RTC_GetDate@dataBuff+3)^0,w,c
  4230  006F52  ECAB  F031         	call	_BCD_to_DEC
  4231  006F56  6E14               	movwf	(??_RTC_GetDate+2)^0,c
  4232  006F58  6A15               	clrf	(??_RTC_GetDate+3)^0,c
  4233  006F5A  5012               	movf	??_RTC_GetDate^0,w,c
  4234  006F5C  2614               	addwf	(??_RTC_GetDate+2)^0,f,c
  4235  006F5E  5013               	movf	(??_RTC_GetDate+1)^0,w,c
  4236  006F60  2215               	addwfc	(??_RTC_GetDate+3)^0,f,c
  4237  006F62  C010  FFD9         	movff	RTC_GetDate@result,fsr2l
  4238  006F66  C011  FFDA         	movff	RTC_GetDate@result+1,fsr2h
  4239  006F6A  C014  FFDE         	movff	??_RTC_GetDate+2,postinc2
  4240  006F6E  C015  FFDD         	movff	??_RTC_GetDate+3,postdec2
  4241  006F72                     
  4242                           ;RTCLib.c: 345:     if (result->month < 1 || result->month > 12 ||
  4243  006F72  EE20 F002          	lfsr	2,2
  4244  006F76  5010               	movf	RTC_GetDate@result^0,w,c
  4245  006F78  26D9               	addwf	fsr2l,f,c
  4246  006F7A  5011               	movf	(RTC_GetDate@result+1)^0,w,c
  4247  006F7C  22DA               	addwfc	fsr2h,f,c
  4248  006F7E  50DF               	movf	indf2,w,c
  4249  006F80  B4D8               	btfsc	status,2,c
  4250  006F82  EFC5  F037         	goto	u2411
  4251  006F86  EFC7  F037         	goto	u2410
  4252  006F8A                     u2411:
  4253  006F8A  EF0D  F038         	goto	l2642
  4254  006F8E                     u2410:
  4255  006F8E  EE20 F002          	lfsr	2,2
  4256  006F92  5010               	movf	RTC_GetDate@result^0,w,c
  4257  006F94  26D9               	addwf	fsr2l,f,c
  4258  006F96  5011               	movf	(RTC_GetDate@result+1)^0,w,c
  4259  006F98  22DA               	addwfc	fsr2h,f,c
  4260  006F9A  0E0D               	movlw	13
  4261  006F9C  60DF               	cpfslt	indf2,c
  4262  006F9E  EFD3  F037         	goto	u2421
  4263  006FA2  EFD5  F037         	goto	u2420
  4264  006FA6                     u2421:
  4265  006FA6  EF0D  F038         	goto	l2642
  4266  006FAA                     u2420:
  4267  006FAA  EE20 F003          	lfsr	2,3
  4268  006FAE  5010               	movf	RTC_GetDate@result^0,w,c
  4269  006FB0  26D9               	addwf	fsr2l,f,c
  4270  006FB2  5011               	movf	(RTC_GetDate@result+1)^0,w,c
  4271  006FB4  22DA               	addwfc	fsr2h,f,c
  4272  006FB6  50DF               	movf	indf2,w,c
  4273  006FB8  B4D8               	btfsc	status,2,c
  4274  006FBA  EFE1  F037         	goto	u2431
  4275  006FBE  EFE3  F037         	goto	u2430
  4276  006FC2                     u2431:
  4277  006FC2  EF0D  F038         	goto	l2642
  4278  006FC6                     u2430:
  4279  006FC6  EE20 F003          	lfsr	2,3
  4280  006FCA  5010               	movf	RTC_GetDate@result^0,w,c
  4281  006FCC  26D9               	addwf	fsr2l,f,c
  4282  006FCE  5011               	movf	(RTC_GetDate@result+1)^0,w,c
  4283  006FD0  22DA               	addwfc	fsr2h,f,c
  4284  006FD2  0E20               	movlw	32
  4285  006FD4  60DF               	cpfslt	indf2,c
  4286  006FD6  EFEF  F037         	goto	u2441
  4287  006FDA  EFF1  F037         	goto	u2440
  4288  006FDE                     u2441:
  4289  006FDE  EF0D  F038         	goto	l2642
  4290  006FE2                     u2440:
  4291  006FE2  EE20 F004          	lfsr	2,4
  4292  006FE6  5010               	movf	RTC_GetDate@result^0,w,c
  4293  006FE8  26D9               	addwf	fsr2l,f,c
  4294  006FEA  5011               	movf	(RTC_GetDate@result+1)^0,w,c
  4295  006FEC  22DA               	addwfc	fsr2h,f,c
  4296  006FEE  50DF               	movf	indf2,w,c
  4297  006FF0  B4D8               	btfsc	status,2,c
  4298  006FF2  EFFD  F037         	goto	u2451
  4299  006FF6  EFFF  F037         	goto	u2450
  4300  006FFA                     u2451:
  4301  006FFA  EF0D  F038         	goto	l2642
  4302  006FFE                     u2450:
  4303  006FFE  EE20 F004          	lfsr	2,4
  4304  007002  5010               	movf	RTC_GetDate@result^0,w,c
  4305  007004  26D9               	addwf	fsr2l,f,c
  4306  007006  5011               	movf	(RTC_GetDate@result+1)^0,w,c
  4307  007008  22DA               	addwfc	fsr2h,f,c
  4308  00700A  0E07               	movlw	7
  4309  00700C  64DF               	cpfsgt	indf2,c
  4310  00700E  EF0B  F038         	goto	u2461
  4311  007012  EF0D  F038         	goto	u2460
  4312  007016                     u2461:
  4313  007016  EF10  F038         	goto	l2646
  4314  00701A                     u2460:
  4315  00701A                     l2642:
  4316                           
  4317                           ;RTCLib.c: 347:         result->weekday < 1 || result->weekday > 7) {;RTCLib.c: 348:    
      +                               return 0;
  4318  00701A  0E00               	movlw	0
  4319  00701C  EF11  F038         	goto	l96
  4320  007020                     l2646:
  4321                           
  4322                           ;RTCLib.c: 351:     return 1;
  4323  007020  0E01               	movlw	1
  4324  007022                     l96:
  4325  007022  0012               	return		;funcret
  4326  007024                     __end_of_RTC_GetDate:
  4327                           	callstack 0
  4328                           
  4329 ;; *************** function _RTC_ReadBytes *****************
  4330 ;; Defined at:
  4331 ;;		line 192 in file "RTCLib.c"
  4332 ;; Parameters:    Size  Location     Type
  4333 ;;  addr            1    wreg     unsigned char 
  4334 ;;  data            2    3[COMRAM] PTR unsigned char 
  4335 ;;		 -> RTC_GetDate@dataBuff(4), RTC_GetTime@dataBuff(3), 
  4336 ;;  len             1    5[COMRAM] unsigned char 
  4337 ;; Auto vars:     Size  Location     Type
  4338 ;;  addr            1   13[COMRAM] unsigned char 
  4339 ;;  i               1   14[COMRAM] unsigned char 
  4340 ;; Return value:  Size  Location     Type
  4341 ;;                  1    wreg      void 
  4342 ;; Registers used:
  4343 ;;		wreg, fsr2l, fsr2h, status,2, status,0, cstack
  4344 ;; Tracked objects:
  4345 ;;		On entry : 0/0
  4346 ;;		On exit  : 0/0
  4347 ;;		Unchanged: 0/0
  4348 ;; Data sizes:     COMRAM   BANK0   BANK1   BANK2   BANK3   BANK4   BANK5
  4349 ;;      Params:         3       0       0       0       0       0       0
  4350 ;;      Locals:         2       0       0       0       0       0       0
  4351 ;;      Temps:          7       0       0       0       0       0       0
  4352 ;;      Totals:        12       0       0       0       0       0       0
  4353 ;;Total ram usage:       12 bytes
  4354 ;; Hardware stack levels used: 1
  4355 ;; Hardware stack levels required when called: 2
  4356 ;; This function calls:
  4357 ;;		_I2C2_Read
  4358 ;;		_I2C2_Send
  4359 ;;		_I2C2_Send_ACK
  4360 ;;		_I2C2_Send_NACK
  4361 ;;		_I2C2_Start
  4362 ;;		_I2C2_Stop
  4363 ;;		_RTC_WaitReady
  4364 ;; This function is called by:
  4365 ;;		_RTC_GetTime
  4366 ;;		_RTC_GetDate
  4367 ;; This function uses a non-reentrant model
  4368 ;;
  4369                           
  4370                           	psect	text19
  4371  006996                     __ptext19:
  4372                           	callstack 0
  4373  006996                     _RTC_ReadBytes:
  4374                           	callstack 27
  4375                           
  4376                           ;incstack = 0
  4377                           ;RTC_ReadBytes@addr stored from wreg
  4378  006996  6E0E               	movwf	RTC_ReadBytes@addr^0,c
  4379  006998                     
  4380                           ;RTCLib.c: 193:     if(RTC_WaitReady()){
  4381  006998  ECB2  F033         	call	_RTC_WaitReady	;wreg free
  4382  00699C  0900               	iorlw	0
  4383  00699E  B4D8               	btfsc	status,2,c
  4384  0069A0  EFD4  F034         	goto	u2121
  4385  0069A4  EFD6  F034         	goto	u2120
  4386  0069A8                     u2121:
  4387  0069A8  EF1B  F035         	goto	l66
  4388  0069AC                     u2120:
  4389  0069AC                     
  4390                           ;RTCLib.c: 194:         I2C2_Send(addr);
  4391  0069AC  500E               	movf	RTC_ReadBytes@addr^0,w,c
  4392  0069AE  EC01  F032         	call	_I2C2_Send
  4393  0069B2                     
  4394                           ;RTCLib.c: 195:         I2C2_Start();
  4395  0069B2  EC8C  F031         	call	_I2C2_Start	;wreg free
  4396  0069B6                     
  4397                           ;RTCLib.c: 196:         I2C2_Send(_rtcI2cAddress | 0x01);
  4398  0069B6  505E               	movf	__rtcI2cAddress^0,w,c
  4399  0069B8  0901               	iorlw	1
  4400  0069BA  EC01  F032         	call	_I2C2_Send
  4401  0069BE                     
  4402                           ;RTCLib.c: 197:          for(uint8_t i = 0; i<len; i++){
  4403  0069BE  0E00               	movlw	0
  4404  0069C0  6E0F               	movwf	RTC_ReadBytes@i^0,c
  4405  0069C2  EF10  F035         	goto	l2478
  4406  0069C6                     l2468:
  4407                           
  4408                           ;RTCLib.c: 198:             data[i] = I2C2_Read();
  4409  0069C6  500F               	movf	RTC_ReadBytes@i^0,w,c
  4410  0069C8  2404               	addwf	RTC_ReadBytes@data^0,w,c
  4411  0069CA  6ED9               	movwf	fsr2l,c
  4412  0069CC  0E00               	movlw	0
  4413  0069CE  2005               	addwfc	(RTC_ReadBytes@data+1)^0,w,c
  4414  0069D0  6EDA               	movwf	fsr2h,c
  4415  0069D2  ECA0  F031         	call	_I2C2_Read	;wreg free
  4416  0069D6  6EDF               	movwf	indf2,c
  4417  0069D8                     
  4418                           ;RTCLib.c: 199:             if(i < (len - 1)){
  4419  0069D8  0EFF               	movlw	255
  4420  0069DA  6E07               	movwf	??_RTC_ReadBytes^0,c
  4421  0069DC  0EFF               	movlw	255
  4422  0069DE  6E08               	movwf	(??_RTC_ReadBytes+1)^0,c
  4423  0069E0  5006               	movf	RTC_ReadBytes@len^0,w,c
  4424  0069E2  6E09               	movwf	(??_RTC_ReadBytes+2)^0,c
  4425  0069E4  6A0A               	clrf	(??_RTC_ReadBytes+3)^0,c
  4426  0069E6  5007               	movf	??_RTC_ReadBytes^0,w,c
  4427  0069E8  2609               	addwf	(??_RTC_ReadBytes+2)^0,f,c
  4428  0069EA  5008               	movf	(??_RTC_ReadBytes+1)^0,w,c
  4429  0069EC  220A               	addwfc	(??_RTC_ReadBytes+3)^0,f,c
  4430  0069EE  500F               	movf	RTC_ReadBytes@i^0,w,c
  4431  0069F0  6E0B               	movwf	(??_RTC_ReadBytes+4)^0,c
  4432  0069F2  6A0C               	clrf	(??_RTC_ReadBytes+5)^0,c
  4433  0069F4  5009               	movf	(??_RTC_ReadBytes+2)^0,w,c
  4434  0069F6  5C0B               	subwf	(??_RTC_ReadBytes+4)^0,w,c
  4435  0069F8  500C               	movf	(??_RTC_ReadBytes+5)^0,w,c
  4436  0069FA  0A80               	xorlw	128
  4437  0069FC  6E0D               	movwf	(??_RTC_ReadBytes+6)^0,c
  4438  0069FE  500A               	movf	(??_RTC_ReadBytes+3)^0,w,c
  4439  006A00  0A80               	xorlw	128
  4440  006A02  580D               	subwfb	(??_RTC_ReadBytes+6)^0,w,c
  4441  006A04  B0D8               	btfsc	status,0,c
  4442  006A06  EF07  F035         	goto	u2131
  4443  006A0A  EF09  F035         	goto	u2130
  4444  006A0E                     u2131:
  4445  006A0E  EF0D  F035         	goto	l2474
  4446  006A12                     u2130:
  4447  006A12                     
  4448                           ;RTCLib.c: 200:                 I2C2_Send_ACK();
  4449  006A12  ECB6  F031         	call	_I2C2_Send_ACK	;wreg free
  4450                           
  4451                           ;RTCLib.c: 201:             }else{
  4452  006A16  EF0F  F035         	goto	l2476
  4453  006A1A                     l2474:
  4454                           
  4455                           ;RTCLib.c: 202:                 I2C2_Send_NACK();
  4456  006A1A  ECC1  F031         	call	_I2C2_Send_NACK	;wreg free
  4457  006A1E                     l2476:
  4458                           
  4459                           ;RTCLib.c: 204:          }
  4460  006A1E  2A0F               	incf	RTC_ReadBytes@i^0,f,c
  4461  006A20                     l2478:
  4462  006A20  5006               	movf	RTC_ReadBytes@len^0,w,c
  4463  006A22  5C0F               	subwf	RTC_ReadBytes@i^0,w,c
  4464  006A24  A0D8               	btfss	status,0,c
  4465  006A26  EF17  F035         	goto	u2141
  4466  006A2A  EF19  F035         	goto	u2140
  4467  006A2E                     u2141:
  4468  006A2E  EFE3  F034         	goto	l2468
  4469  006A32                     u2140:
  4470  006A32                     
  4471                           ;RTCLib.c: 205:         I2C2_Stop();
  4472  006A32  EC96  F031         	call	_I2C2_Stop	;wreg free
  4473  006A36                     l66:
  4474  006A36  0012               	return		;funcret
  4475  006A38                     __end_of_RTC_ReadBytes:
  4476                           	callstack 0
  4477                           
  4478 ;; *************** function _I2C2_Send_NACK *****************
  4479 ;; Defined at:
  4480 ;;		line 132 in file "i2c2.c"
  4481 ;; Parameters:    Size  Location     Type
  4482 ;;		None
  4483 ;; Auto vars:     Size  Location     Type
  4484 ;;		None
  4485 ;; Return value:  Size  Location     Type
  4486 ;;                  1    wreg      void 
  4487 ;; Registers used:
  4488 ;;		None
  4489 ;; Tracked objects:
  4490 ;;		On entry : 0/0
  4491 ;;		On exit  : 0/0
  4492 ;;		Unchanged: 0/0
  4493 ;; Data sizes:     COMRAM   BANK0   BANK1   BANK2   BANK3   BANK4   BANK5
  4494 ;;      Params:         0       0       0       0       0       0       0
  4495 ;;      Locals:         0       0       0       0       0       0       0
  4496 ;;      Temps:          0       0       0       0       0       0       0
  4497 ;;      Totals:         0       0       0       0       0       0       0
  4498 ;;Total ram usage:        0 bytes
  4499 ;; Hardware stack levels used: 1
  4500 ;; This function calls:
  4501 ;;		Nothing
  4502 ;; This function is called by:
  4503 ;;		_RTC_ReadBytes
  4504 ;; This function uses a non-reentrant model
  4505 ;;
  4506                           
  4507                           	psect	text20
  4508  006382                     __ptext20:
  4509                           	callstack 0
  4510  006382                     _I2C2_Send_NACK:
  4511                           	callstack 28
  4512  006382                     
  4513                           ;i2c2.c: 133:  SSP2CON2bits.ACKDT = 1;
  4514  006382  8A6B               	bsf	107,5,c	;volatile
  4515                           
  4516                           ;i2c2.c: 134:  SSP2CON2bits.ACKEN = 1;
  4517  006384  886B               	bsf	107,4,c	;volatile
  4518  006386                     l144:
  4519  006386  AEA4               	btfss	164,7,c	;volatile
  4520  006388  EFC8  F031         	goto	u2011
  4521  00638C  EFCA  F031         	goto	u2010
  4522  006390                     u2011:
  4523  006390  EFC3  F031         	goto	l144
  4524  006394                     u2010:
  4525  006394                     
  4526                           ;i2c2.c: 136:  PIR3bits.SSP2IF = 0;
  4527  006394  9EA4               	bcf	164,7,c	;volatile
  4528  006396  0012               	return		;funcret
  4529  006398                     __end_of_I2C2_Send_NACK:
  4530                           	callstack 0
  4531                           
  4532 ;; *************** function _I2C2_Send_ACK *****************
  4533 ;; Defined at:
  4534 ;;		line 117 in file "i2c2.c"
  4535 ;; Parameters:    Size  Location     Type
  4536 ;;		None
  4537 ;; Auto vars:     Size  Location     Type
  4538 ;;		None
  4539 ;; Return value:  Size  Location     Type
  4540 ;;                  1    wreg      void 
  4541 ;; Registers used:
  4542 ;;		None
  4543 ;; Tracked objects:
  4544 ;;		On entry : 0/0
  4545 ;;		On exit  : 0/0
  4546 ;;		Unchanged: 0/0
  4547 ;; Data sizes:     COMRAM   BANK0   BANK1   BANK2   BANK3   BANK4   BANK5
  4548 ;;      Params:         0       0       0       0       0       0       0
  4549 ;;      Locals:         0       0       0       0       0       0       0
  4550 ;;      Temps:          0       0       0       0       0       0       0
  4551 ;;      Totals:         0       0       0       0       0       0       0
  4552 ;;Total ram usage:        0 bytes
  4553 ;; Hardware stack levels used: 1
  4554 ;; This function calls:
  4555 ;;		Nothing
  4556 ;; This function is called by:
  4557 ;;		_RTC_ReadBytes
  4558 ;; This function uses a non-reentrant model
  4559 ;;
  4560                           
  4561                           	psect	text21
  4562  00636C                     __ptext21:
  4563                           	callstack 0
  4564  00636C                     _I2C2_Send_ACK:
  4565                           	callstack 28
  4566  00636C                     
  4567                           ;i2c2.c: 118:  SSP2CON2bits.ACKDT = 0;
  4568  00636C  9A6B               	bcf	107,5,c	;volatile
  4569                           
  4570                           ;i2c2.c: 119:  SSP2CON2bits.ACKEN = 1;
  4571  00636E  886B               	bsf	107,4,c	;volatile
  4572  006370                     l138:
  4573  006370  AEA4               	btfss	164,7,c	;volatile
  4574  006372  EFBD  F031         	goto	u2001
  4575  006376  EFBF  F031         	goto	u2000
  4576  00637A                     u2001:
  4577  00637A  EFB8  F031         	goto	l138
  4578  00637E                     u2000:
  4579  00637E                     
  4580                           ;i2c2.c: 121:  PIR3bits.SSP2IF = 0;
  4581  00637E  9EA4               	bcf	164,7,c	;volatile
  4582  006380  0012               	return		;funcret
  4583  006382                     __end_of_I2C2_Send_ACK:
  4584                           	callstack 0
  4585                           
  4586 ;; *************** function _BCD_to_DEC *****************
  4587 ;; Defined at:
  4588 ;;		line 232 in file "RTCLib.c"
  4589 ;; Parameters:    Size  Location     Type
  4590 ;;  bcd             1    wreg     unsigned char 
  4591 ;; Auto vars:     Size  Location     Type
  4592 ;;  bcd             1    1[COMRAM] unsigned char 
  4593 ;; Return value:  Size  Location     Type
  4594 ;;                  1    wreg      unsigned char 
  4595 ;; Registers used:
  4596 ;;		wreg, status,2, status,0, prodl, prodh
  4597 ;; Tracked objects:
  4598 ;;		On entry : 0/0
  4599 ;;		On exit  : 0/0
  4600 ;;		Unchanged: 0/0
  4601 ;; Data sizes:     COMRAM   BANK0   BANK1   BANK2   BANK3   BANK4   BANK5
  4602 ;;      Params:         0       0       0       0       0       0       0
  4603 ;;      Locals:         1       0       0       0       0       0       0
  4604 ;;      Temps:          1       0       0       0       0       0       0
  4605 ;;      Totals:         2       0       0       0       0       0       0
  4606 ;;Total ram usage:        2 bytes
  4607 ;; Hardware stack levels used: 1
  4608 ;; This function calls:
  4609 ;;		Nothing
  4610 ;; This function is called by:
  4611 ;;		_RTC_GetTime
  4612 ;;		_RTC_GetDate
  4613 ;; This function uses a non-reentrant model
  4614 ;;
  4615                           
  4616                           	psect	text22
  4617  006356                     __ptext22:
  4618                           	callstack 0
  4619  006356                     _BCD_to_DEC:
  4620                           	callstack 29
  4621                           
  4622                           ;incstack = 0
  4623                           ;BCD_to_DEC@bcd stored from wreg
  4624  006356  6E02               	movwf	BCD_to_DEC@bcd^0,c
  4625  006358                     
  4626                           ;RTCLib.c: 235:     return ((bcd >> 4) * 10) + (bcd & 0x0F);
  4627  006358  C002  F001         	movff	BCD_to_DEC@bcd,??_BCD_to_DEC
  4628  00635C  0E0F               	movlw	15
  4629  00635E  1601               	andwf	??_BCD_to_DEC^0,f,c
  4630  006360  3802               	swapf	BCD_to_DEC@bcd^0,w,c
  4631  006362  0B0F               	andlw	15
  4632  006364  0D0A               	mullw	10
  4633  006366  50F3               	movf	243,w,c
  4634  006368  2401               	addwf	??_BCD_to_DEC^0,w,c
  4635  00636A  0012               	return		;funcret
  4636  00636C                     __end_of_BCD_to_DEC:
  4637                           	callstack 0
  4638                           
  4639 ;; *************** function _RELOJ_Initialize *****************
  4640 ;; Defined at:
  4641 ;;		line 109 in file "main.c"
  4642 ;; Parameters:    Size  Location     Type
  4643 ;;		None
  4644 ;; Auto vars:     Size  Location     Type
  4645 ;;		None
  4646 ;; Return value:  Size  Location     Type
  4647 ;;                  1    wreg      void 
  4648 ;; Registers used:
  4649 ;;		wreg, status,2, status,0, cstack
  4650 ;; Tracked objects:
  4651 ;;		On entry : 0/0
  4652 ;;		On exit  : 0/0
  4653 ;;		Unchanged: 0/0
  4654 ;; Data sizes:     COMRAM   BANK0   BANK1   BANK2   BANK3   BANK4   BANK5
  4655 ;;      Params:         0       0       0       0       0       0       0
  4656 ;;      Locals:         0       0       0       0       0       0       0
  4657 ;;      Temps:          0       0       0       0       0       0       0
  4658 ;;      Totals:         0       0       0       0       0       0       0
  4659 ;;Total ram usage:        0 bytes
  4660 ;; Hardware stack levels used: 1
  4661 ;; Hardware stack levels required when called: 5
  4662 ;; This function calls:
  4663 ;;		_RTC_Initialize
  4664 ;; This function is called by:
  4665 ;;		_main
  4666 ;; This function uses a non-reentrant model
  4667 ;;
  4668                           
  4669                           	psect	text23
  4670  0062FA                     __ptext23:
  4671                           	callstack 0
  4672  0062FA                     _RELOJ_Initialize:
  4673                           	callstack 25
  4674  0062FA                     
  4675                           ;main.c: 110:     RTC_Initialize(RTC_MODEL_BQ32000, 0xD0);
  4676  0062FA  0ED0               	movlw	208
  4677  0062FC  6E07               	movwf	RTC_Initialize@i2cAddress^0,c
  4678  0062FE  0E00               	movlw	0
  4679  006300  EC83  F031         	call	_RTC_Initialize
  4680  006304  0012               	return		;funcret
  4681  006306                     __end_of_RELOJ_Initialize:
  4682                           	callstack 0
  4683                           
  4684 ;; *************** function _RTC_Initialize *****************
  4685 ;; Defined at:
  4686 ;;		line 53 in file "RTCLib.c"
  4687 ;; Parameters:    Size  Location     Type
  4688 ;;  model           1    wreg     enum E5744
  4689 ;;  i2cAddress      1    6[COMRAM] unsigned char 
  4690 ;; Auto vars:     Size  Location     Type
  4691 ;;  model           1    7[COMRAM] enum E5744
  4692 ;; Return value:  Size  Location     Type
  4693 ;;                  1    wreg      void 
  4694 ;; Registers used:
  4695 ;;		wreg, status,2, status,0, cstack
  4696 ;; Tracked objects:
  4697 ;;		On entry : 0/0
  4698 ;;		On exit  : 0/0
  4699 ;;		Unchanged: 0/0
  4700 ;; Data sizes:     COMRAM   BANK0   BANK1   BANK2   BANK3   BANK4   BANK5
  4701 ;;      Params:         1       0       0       0       0       0       0
  4702 ;;      Locals:         1       0       0       0       0       0       0
  4703 ;;      Temps:          0       0       0       0       0       0       0
  4704 ;;      Totals:         2       0       0       0       0       0       0
  4705 ;;Total ram usage:        2 bytes
  4706 ;; Hardware stack levels used: 1
  4707 ;; Hardware stack levels required when called: 4
  4708 ;; This function calls:
  4709 ;;		_RTC_StartClock
  4710 ;; This function is called by:
  4711 ;;		_RELOJ_Initialize
  4712 ;; This function uses a non-reentrant model
  4713 ;;
  4714                           
  4715                           	psect	text24
  4716  006306                     __ptext24:
  4717                           	callstack 0
  4718  006306                     _RTC_Initialize:
  4719                           	callstack 25
  4720                           
  4721                           ;incstack = 0
  4722                           ;RTC_Initialize@model stored from wreg
  4723  006306  6E08               	movwf	RTC_Initialize@model^0,c
  4724  006308                     
  4725                           ;RTCLib.c: 54:     _selectedModel = model;
  4726  006308  C008  F05F         	movff	RTC_Initialize@model,__selectedModel
  4727  00630C                     
  4728                           ;RTCLib.c: 55:     _rtcI2cAddress = i2cAddress & 0xFE;
  4729  00630C  5007               	movf	RTC_Initialize@i2cAddress^0,w,c
  4730  00630E  0BFE               	andlw	254
  4731  006310  6E5E               	movwf	__rtcI2cAddress^0,c
  4732  006312                     
  4733                           ;RTCLib.c: 58:     RTC_StartClock();
  4734  006312  EC83  F033         	call	_RTC_StartClock	;wreg free
  4735  006316  0012               	return		;funcret
  4736  006318                     __end_of_RTC_Initialize:
  4737                           	callstack 0
  4738                           
  4739 ;; *************** function _RTC_StartClock *****************
  4740 ;; Defined at:
  4741 ;;		line 71 in file "RTCLib.c"
  4742 ;; Parameters:    Size  Location     Type
  4743 ;;		None
  4744 ;; Auto vars:     Size  Location     Type
  4745 ;;  tempReg         1    5[COMRAM] unsigned char 
  4746 ;; Return value:  Size  Location     Type
  4747 ;;                  1    wreg      void 
  4748 ;; Registers used:
  4749 ;;		wreg, status,2, status,0, cstack
  4750 ;; Tracked objects:
  4751 ;;		On entry : 0/0
  4752 ;;		On exit  : 0/0
  4753 ;;		Unchanged: 0/0
  4754 ;; Data sizes:     COMRAM   BANK0   BANK1   BANK2   BANK3   BANK4   BANK5
  4755 ;;      Params:         0       0       0       0       0       0       0
  4756 ;;      Locals:         1       0       0       0       0       0       0
  4757 ;;      Temps:          0       0       0       0       0       0       0
  4758 ;;      Totals:         1       0       0       0       0       0       0
  4759 ;;Total ram usage:        1 bytes
  4760 ;; Hardware stack levels used: 1
  4761 ;; Hardware stack levels required when called: 3
  4762 ;; This function calls:
  4763 ;;		_RTC_ReadByte
  4764 ;;		_RTC_WriteByte
  4765 ;; This function is called by:
  4766 ;;		_RTC_Initialize
  4767 ;; This function uses a non-reentrant model
  4768 ;;
  4769                           
  4770                           	psect	text25
  4771  006706                     __ptext25:
  4772                           	callstack 0
  4773  006706                     _RTC_StartClock:
  4774                           	callstack 25
  4775  006706                     
  4776                           ;RTCLib.c: 72:     uint8_t tempReg;;RTCLib.c: 74:     if(_selectedModel == RTC_MODEL_BQ3
      +                          2000){
  4777  006706  505F               	movf	__selectedModel^0,w,c
  4778  006708  A4D8               	btfss	status,2,c
  4779  00670A  EF89  F033         	goto	u1981
  4780  00670E  EF8B  F033         	goto	u1980
  4781  006712                     u1981:
  4782  006712  EF9D  F033         	goto	l2324
  4783  006716                     u1980:
  4784  006716                     
  4785                           ;RTCLib.c: 76:         tempReg = RTC_ReadByte(0x00);
  4786  006716  0E00               	movlw	0
  4787  006718  EC6A  F032         	call	_RTC_ReadByte
  4788  00671C  6E06               	movwf	RTC_StartClock@tempReg^0,c
  4789  00671E                     
  4790                           ;RTCLib.c: 77:         tempReg |= 0x80;
  4791  00671E  8E06               	bsf	RTC_StartClock@tempReg^0,7,c
  4792  006720                     
  4793                           ;RTCLib.c: 78:         RTC_WriteByte(0x00, tempReg);
  4794  006720  C006  F004         	movff	RTC_StartClock@tempReg,RTC_WriteByte@data
  4795  006724  0E00               	movlw	0
  4796  006726  ECED  F031         	call	_RTC_WriteByte
  4797                           
  4798                           ;RTCLib.c: 79:         tempReg &= 0x7F;
  4799  00672A  9E06               	bcf	RTC_StartClock@tempReg^0,7,c
  4800  00672C                     
  4801                           ;RTCLib.c: 80:         RTC_WriteByte(0x00, tempReg);
  4802  00672C  C006  F004         	movff	RTC_StartClock@tempReg,RTC_WriteByte@data
  4803  006730  0E00               	movlw	0
  4804  006732  ECED  F031         	call	_RTC_WriteByte
  4805                           
  4806                           ;RTCLib.c: 81:     }
  4807  006736  EFB1  F033         	goto	l33
  4808  00673A                     l2324:
  4809  00673A  045F               	decf	__selectedModel^0,w,c
  4810  00673C  A4D8               	btfss	status,2,c
  4811  00673E  EFA3  F033         	goto	u1991
  4812  006742  EFA5  F033         	goto	u1990
  4813  006746                     u1991:
  4814  006746  EFB1  F033         	goto	l31
  4815  00674A                     u1990:
  4816  00674A                     
  4817                           ;RTCLib.c: 84:         tempReg = RTC_ReadByte(0x00);
  4818  00674A  0E00               	movlw	0
  4819  00674C  EC6A  F032         	call	_RTC_ReadByte
  4820  006750  6E06               	movwf	RTC_StartClock@tempReg^0,c
  4821  006752                     
  4822                           ;RTCLib.c: 85:         tempReg &= 0x7F;
  4823  006752  9E06               	bcf	RTC_StartClock@tempReg^0,7,c
  4824  006754                     
  4825                           ;RTCLib.c: 86:         RTC_WriteByte(0x00, tempReg);
  4826  006754  C006  F004         	movff	RTC_StartClock@tempReg,RTC_WriteByte@data
  4827  006758  0E00               	movlw	0
  4828  00675A  ECED  F031         	call	_RTC_WriteByte
  4829                           
  4830                           ;RTCLib.c: 87:     }
  4831  00675E  EFB1  F033         	goto	l33
  4832  006762                     l31:
  4833  006762                     l33:
  4834  006762  0012               	return		;funcret
  4835  006764                     __end_of_RTC_StartClock:
  4836                           	callstack 0
  4837                           
  4838 ;; *************** function _RTC_WriteByte *****************
  4839 ;; Defined at:
  4840 ;;		line 130 in file "RTCLib.c"
  4841 ;; Parameters:    Size  Location     Type
  4842 ;;  addr            1    wreg     unsigned char 
  4843 ;;  data            1    3[COMRAM] unsigned char 
  4844 ;; Auto vars:     Size  Location     Type
  4845 ;;  addr            1    4[COMRAM] unsigned char 
  4846 ;; Return value:  Size  Location     Type
  4847 ;;                  1    wreg      void 
  4848 ;; Registers used:
  4849 ;;		wreg, status,2, status,0, cstack
  4850 ;; Tracked objects:
  4851 ;;		On entry : 0/0
  4852 ;;		On exit  : 0/0
  4853 ;;		Unchanged: 0/0
  4854 ;; Data sizes:     COMRAM   BANK0   BANK1   BANK2   BANK3   BANK4   BANK5
  4855 ;;      Params:         1       0       0       0       0       0       0
  4856 ;;      Locals:         1       0       0       0       0       0       0
  4857 ;;      Temps:          0       0       0       0       0       0       0
  4858 ;;      Totals:         2       0       0       0       0       0       0
  4859 ;;Total ram usage:        2 bytes
  4860 ;; Hardware stack levels used: 1
  4861 ;; Hardware stack levels required when called: 2
  4862 ;; This function calls:
  4863 ;;		_I2C2_Send
  4864 ;;		_I2C2_Stop
  4865 ;;		_RTC_WaitReady
  4866 ;; This function is called by:
  4867 ;;		_RTC_StartClock
  4868 ;; This function uses a non-reentrant model
  4869 ;;
  4870                           
  4871                           	psect	text26
  4872  0063DA                     __ptext26:
  4873                           	callstack 0
  4874  0063DA                     _RTC_WriteByte:
  4875                           	callstack 25
  4876                           
  4877                           ;incstack = 0
  4878                           ;RTC_WriteByte@addr stored from wreg
  4879  0063DA  6E05               	movwf	RTC_WriteByte@addr^0,c
  4880  0063DC                     
  4881                           ;RTCLib.c: 131:     if(RTC_WaitReady()){
  4882  0063DC  ECB2  F033         	call	_RTC_WaitReady	;wreg free
  4883  0063E0  0900               	iorlw	0
  4884  0063E2  B4D8               	btfsc	status,2,c
  4885  0063E4  EFF6  F031         	goto	u1731
  4886  0063E8  EFF8  F031         	goto	u1730
  4887  0063EC                     u1731:
  4888  0063EC  EF00  F032         	goto	l46
  4889  0063F0                     u1730:
  4890  0063F0                     
  4891                           ;RTCLib.c: 132:         I2C2_Send(addr);
  4892  0063F0  5005               	movf	RTC_WriteByte@addr^0,w,c
  4893  0063F2  EC01  F032         	call	_I2C2_Send
  4894                           
  4895                           ;RTCLib.c: 133:         I2C2_Send(data);
  4896  0063F6  5004               	movf	RTC_WriteByte@data^0,w,c
  4897  0063F8  EC01  F032         	call	_I2C2_Send
  4898  0063FC                     
  4899                           ;RTCLib.c: 134:         I2C2_Stop();
  4900  0063FC  EC96  F031         	call	_I2C2_Stop	;wreg free
  4901  006400                     l46:
  4902  006400  0012               	return		;funcret
  4903  006402                     __end_of_RTC_WriteByte:
  4904                           	callstack 0
  4905                           
  4906 ;; *************** function _RTC_ReadByte *****************
  4907 ;; Defined at:
  4908 ;;		line 146 in file "RTCLib.c"
  4909 ;; Parameters:    Size  Location     Type
  4910 ;;  addr            1    wreg     unsigned char 
  4911 ;; Auto vars:     Size  Location     Type
  4912 ;;  addr            1    3[COMRAM] unsigned char 
  4913 ;;  data            1    4[COMRAM] unsigned char 
  4914 ;; Return value:  Size  Location     Type
  4915 ;;                  1    wreg      unsigned char 
  4916 ;; Registers used:
  4917 ;;		wreg, status,2, status,0, cstack
  4918 ;; Tracked objects:
  4919 ;;		On entry : 0/0
  4920 ;;		On exit  : 0/0
  4921 ;;		Unchanged: 0/0
  4922 ;; Data sizes:     COMRAM   BANK0   BANK1   BANK2   BANK3   BANK4   BANK5
  4923 ;;      Params:         0       0       0       0       0       0       0
  4924 ;;      Locals:         2       0       0       0       0       0       0
  4925 ;;      Temps:          0       0       0       0       0       0       0
  4926 ;;      Totals:         2       0       0       0       0       0       0
  4927 ;;Total ram usage:        2 bytes
  4928 ;; Hardware stack levels used: 1
  4929 ;; Hardware stack levels required when called: 2
  4930 ;; This function calls:
  4931 ;;		_I2C2_Read
  4932 ;;		_I2C2_Send
  4933 ;;		_I2C2_Start
  4934 ;;		_I2C2_Stop
  4935 ;;		_RTC_WaitReady
  4936 ;; This function is called by:
  4937 ;;		_RTC_StartClock
  4938 ;; This function uses a non-reentrant model
  4939 ;;
  4940                           
  4941                           	psect	text27
  4942  0064D4                     __ptext27:
  4943                           	callstack 0
  4944  0064D4                     _RTC_ReadByte:
  4945                           	callstack 25
  4946                           
  4947                           ;incstack = 0
  4948                           ;RTC_ReadByte@addr stored from wreg
  4949  0064D4  6E04               	movwf	RTC_ReadByte@addr^0,c
  4950  0064D6                     
  4951                           ;RTCLib.c: 147:     uint8_t data = 0;
  4952  0064D6  0E00               	movlw	0
  4953  0064D8  6E05               	movwf	RTC_ReadByte@data^0,c
  4954  0064DA                     
  4955                           ;RTCLib.c: 149:     if (RTC_WaitReady()) {
  4956  0064DA  ECB2  F033         	call	_RTC_WaitReady	;wreg free
  4957  0064DE  0900               	iorlw	0
  4958  0064E0  B4D8               	btfsc	status,2,c
  4959  0064E2  EF75  F032         	goto	u1721
  4960  0064E6  EF77  F032         	goto	u1720
  4961  0064EA                     u1721:
  4962  0064EA  EF85  F032         	goto	l2200
  4963  0064EE                     u1720:
  4964  0064EE                     
  4965                           ;RTCLib.c: 150:         I2C2_Send(addr);
  4966  0064EE  5004               	movf	RTC_ReadByte@addr^0,w,c
  4967  0064F0  EC01  F032         	call	_I2C2_Send
  4968  0064F4                     
  4969                           ;RTCLib.c: 151:         I2C2_Start();
  4970  0064F4  EC8C  F031         	call	_I2C2_Start	;wreg free
  4971  0064F8                     
  4972                           ;RTCLib.c: 152:         I2C2_Send(_rtcI2cAddress | 0x01);
  4973  0064F8  505E               	movf	__rtcI2cAddress^0,w,c
  4974  0064FA  0901               	iorlw	1
  4975  0064FC  EC01  F032         	call	_I2C2_Send
  4976  006500                     
  4977                           ;RTCLib.c: 153:         data = I2C2_Read();
  4978  006500  ECA0  F031         	call	_I2C2_Read	;wreg free
  4979  006504  6E05               	movwf	RTC_ReadByte@data^0,c
  4980  006506                     
  4981                           ;RTCLib.c: 154:         I2C2_Stop();
  4982  006506  EC96  F031         	call	_I2C2_Stop	;wreg free
  4983  00650A                     l2200:
  4984                           
  4985                           ;RTCLib.c: 157:     return data;
  4986  00650A  5005               	movf	RTC_ReadByte@data^0,w,c
  4987  00650C  0012               	return		;funcret
  4988  00650E                     __end_of_RTC_ReadByte:
  4989                           	callstack 0
  4990                           
  4991 ;; *************** function _RTC_WaitReady *****************
  4992 ;; Defined at:
  4993 ;;		line 104 in file "RTCLib.c"
  4994 ;; Parameters:    Size  Location     Type
  4995 ;;		None
  4996 ;; Auto vars:     Size  Location     Type
  4997 ;;  timeout         2    1[COMRAM] unsigned short 
  4998 ;; Return value:  Size  Location     Type
  4999 ;;                  1    wreg      _Bool 
  5000 ;; Registers used:
  5001 ;;		wreg, status,2, status,0, cstack
  5002 ;; Tracked objects:
  5003 ;;		On entry : 0/0
  5004 ;;		On exit  : 0/0
  5005 ;;		Unchanged: 0/0
  5006 ;; Data sizes:     COMRAM   BANK0   BANK1   BANK2   BANK3   BANK4   BANK5
  5007 ;;      Params:         0       0       0       0       0       0       0
  5008 ;;      Locals:         2       0       0       0       0       0       0
  5009 ;;      Temps:          0       0       0       0       0       0       0
  5010 ;;      Totals:         2       0       0       0       0       0       0
  5011 ;;Total ram usage:        2 bytes
  5012 ;; Hardware stack levels used: 1
  5013 ;; Hardware stack levels required when called: 1
  5014 ;; This function calls:
  5015 ;;		_I2C2_Send
  5016 ;;		_I2C2_Start
  5017 ;;		_I2C2_Stop
  5018 ;; This function is called by:
  5019 ;;		_RTC_WriteByte
  5020 ;;		_RTC_ReadByte
  5021 ;;		_RTC_ReadBytes
  5022 ;;		_RTC_WriteBytes
  5023 ;; This function uses a non-reentrant model
  5024 ;;
  5025                           
  5026                           	psect	text28
  5027  006764                     __ptext28:
  5028                           	callstack 0
  5029  006764                     _RTC_WaitReady:
  5030                           	callstack 27
  5031  006764                     
  5032                           ;RTCLib.c: 105:     uint16_t timeout = 500;
  5033  006764  0E01               	movlw	1
  5034  006766  6E03               	movwf	(RTC_WaitReady@timeout+1)^0,c
  5035  006768  0EF4               	movlw	244
  5036  00676A  6E02               	movwf	RTC_WaitReady@timeout^0,c
  5037  00676C                     
  5038                           ;RTCLib.c: 106:     I2C2_Start();
  5039  00676C  EC8C  F031         	call	_I2C2_Start	;wreg free
  5040                           
  5041                           ;RTCLib.c: 108:     while(I2C2_Send(_rtcI2cAddress | 0x00) == 1 && timeout > 0) {
  5042  006770  EFBF  F033         	goto	l2016
  5043  006774                     l2012:
  5044                           
  5045                           ;RTCLib.c: 109:         I2C2_Start();
  5046  006774  EC8C  F031         	call	_I2C2_Start	;wreg free
  5047  006778                     
  5048                           ;RTCLib.c: 110:         timeout--;
  5049  006778  0602               	decf	RTC_WaitReady@timeout^0,f,c
  5050  00677A  A0D8               	btfss	status,0,c
  5051  00677C  0603               	decf	(RTC_WaitReady@timeout+1)^0,f,c
  5052  00677E                     l2016:
  5053                           
  5054                           ;RTCLib.c: 108:     while(I2C2_Send(_rtcI2cAddress | 0x00) == 1 && timeout > 0) {
  5055  00677E  505E               	movf	__rtcI2cAddress^0,w,c
  5056  006780  EC01  F032         	call	_I2C2_Send
  5057  006784  06E8               	decf	wreg,f,c
  5058  006786  A4D8               	btfss	status,2,c
  5059  006788  EFC8  F033         	goto	u1401
  5060  00678C  EFCA  F033         	goto	u1400
  5061  006790                     u1401:
  5062  006790  EFD3  F033         	goto	l2020
  5063  006794                     u1400:
  5064  006794  5002               	movf	RTC_WaitReady@timeout^0,w,c
  5065  006796  1003               	iorwf	(RTC_WaitReady@timeout+1)^0,w,c
  5066  006798  A4D8               	btfss	status,2,c
  5067  00679A  EFD1  F033         	goto	u1411
  5068  00679E  EFD3  F033         	goto	u1410
  5069  0067A2                     u1411:
  5070  0067A2  EFBA  F033         	goto	l2012
  5071  0067A6                     u1410:
  5072  0067A6                     l2020:
  5073                           
  5074                           ;RTCLib.c: 113:     if(timeout == 0){
  5075  0067A6  5002               	movf	RTC_WaitReady@timeout^0,w,c
  5076  0067A8  1003               	iorwf	(RTC_WaitReady@timeout+1)^0,w,c
  5077  0067AA  A4D8               	btfss	status,2,c
  5078  0067AC  EFDA  F033         	goto	u1421
  5079  0067B0  EFDC  F033         	goto	u1420
  5080  0067B4                     u1421:
  5081  0067B4  EFE1  F033         	goto	l2028
  5082  0067B8                     u1420:
  5083  0067B8                     
  5084                           ;RTCLib.c: 114:         I2C2_Stop();
  5085  0067B8  EC96  F031         	call	_I2C2_Stop	;wreg free
  5086  0067BC                     
  5087                           ;RTCLib.c: 115:         return 0;
  5088  0067BC  0E00               	movlw	0
  5089  0067BE  EFE2  F033         	goto	l42
  5090  0067C2                     l2028:
  5091                           
  5092                           ;RTCLib.c: 118:     return 1;
  5093  0067C2  0E01               	movlw	1
  5094  0067C4                     l42:
  5095  0067C4  0012               	return		;funcret
  5096  0067C6                     __end_of_RTC_WaitReady:
  5097                           	callstack 0
  5098                           
  5099 ;; *************** function _I2C2_Stop *****************
  5100 ;; Defined at:
  5101 ;;		line 103 in file "i2c2.c"
  5102 ;; Parameters:    Size  Location     Type
  5103 ;;		None
  5104 ;; Auto vars:     Size  Location     Type
  5105 ;;		None
  5106 ;; Return value:  Size  Location     Type
  5107 ;;                  1    wreg      void 
  5108 ;; Registers used:
  5109 ;;		None
  5110 ;; Tracked objects:
  5111 ;;		On entry : 0/0
  5112 ;;		On exit  : 0/0
  5113 ;;		Unchanged: 0/0
  5114 ;; Data sizes:     COMRAM   BANK0   BANK1   BANK2   BANK3   BANK4   BANK5
  5115 ;;      Params:         0       0       0       0       0       0       0
  5116 ;;      Locals:         0       0       0       0       0       0       0
  5117 ;;      Temps:          0       0       0       0       0       0       0
  5118 ;;      Totals:         0       0       0       0       0       0       0
  5119 ;;Total ram usage:        0 bytes
  5120 ;; Hardware stack levels used: 1
  5121 ;; This function calls:
  5122 ;;		Nothing
  5123 ;; This function is called by:
  5124 ;;		_RTC_WaitReady
  5125 ;;		_RTC_WriteByte
  5126 ;;		_RTC_ReadByte
  5127 ;;		_RTC_ReadBytes
  5128 ;;		_RTC_WriteBytes
  5129 ;; This function uses a non-reentrant model
  5130 ;;
  5131                           
  5132                           	psect	text29
  5133  00632C                     __ptext29:
  5134                           	callstack 0
  5135  00632C                     _I2C2_Stop:
  5136                           	callstack 27
  5137  00632C                     
  5138                           ;i2c2.c: 104:  SSP2CON2bits.PEN = 1;
  5139  00632C  846B               	bsf	107,2,c	;volatile
  5140  00632E                     l132:
  5141  00632E  AEA4               	btfss	164,7,c	;volatile
  5142  006330  EF9C  F031         	goto	u1371
  5143  006334  EF9E  F031         	goto	u1370
  5144  006338                     u1371:
  5145  006338  EF97  F031         	goto	l132
  5146  00633C                     u1370:
  5147  00633C                     
  5148                           ;i2c2.c: 106:  PIR3bits.SSP2IF = 0;
  5149  00633C  9EA4               	bcf	164,7,c	;volatile
  5150  00633E  0012               	return		;funcret
  5151  006340                     __end_of_I2C2_Stop:
  5152                           	callstack 0
  5153                           
  5154 ;; *************** function _I2C2_Start *****************
  5155 ;; Defined at:
  5156 ;;		line 75 in file "i2c2.c"
  5157 ;; Parameters:    Size  Location     Type
  5158 ;;		None
  5159 ;; Auto vars:     Size  Location     Type
  5160 ;;		None
  5161 ;; Return value:  Size  Location     Type
  5162 ;;                  1    wreg      void 
  5163 ;; Registers used:
  5164 ;;		None
  5165 ;; Tracked objects:
  5166 ;;		On entry : 0/0
  5167 ;;		On exit  : 0/0
  5168 ;;		Unchanged: 0/0
  5169 ;; Data sizes:     COMRAM   BANK0   BANK1   BANK2   BANK3   BANK4   BANK5
  5170 ;;      Params:         0       0       0       0       0       0       0
  5171 ;;      Locals:         0       0       0       0       0       0       0
  5172 ;;      Temps:          0       0       0       0       0       0       0
  5173 ;;      Totals:         0       0       0       0       0       0       0
  5174 ;;Total ram usage:        0 bytes
  5175 ;; Hardware stack levels used: 1
  5176 ;; This function calls:
  5177 ;;		Nothing
  5178 ;; This function is called by:
  5179 ;;		_RTC_WaitReady
  5180 ;;		_RTC_ReadByte
  5181 ;;		_RTC_ReadBytes
  5182 ;; This function uses a non-reentrant model
  5183 ;;
  5184                           
  5185                           	psect	text30
  5186  006318                     __ptext30:
  5187                           	callstack 0
  5188  006318                     _I2C2_Start:
  5189                           	callstack 27
  5190  006318                     
  5191                           ;i2c2.c: 76:  SSP2CON2bits.SEN = 1;
  5192  006318  806B               	bsf	107,0,c	;volatile
  5193  00631A                     l120:
  5194  00631A  AEA4               	btfss	164,7,c	;volatile
  5195  00631C  EF92  F031         	goto	u1341
  5196  006320  EF94  F031         	goto	u1340
  5197  006324                     u1341:
  5198  006324  EF8D  F031         	goto	l120
  5199  006328                     u1340:
  5200  006328                     
  5201                           ;i2c2.c: 78:  PIR3bits.SSP2IF = 0;
  5202  006328  9EA4               	bcf	164,7,c	;volatile
  5203  00632A  0012               	return		;funcret
  5204  00632C                     __end_of_I2C2_Start:
  5205                           	callstack 0
  5206                           
  5207 ;; *************** function _I2C2_Send *****************
  5208 ;; Defined at:
  5209 ;;		line 147 in file "i2c2.c"
  5210 ;; Parameters:    Size  Location     Type
  5211 ;;  data            1    wreg     unsigned char 
  5212 ;; Auto vars:     Size  Location     Type
  5213 ;;  data            1    0[COMRAM] unsigned char 
  5214 ;; Return value:  Size  Location     Type
  5215 ;;                  1    wreg      unsigned char 
  5216 ;; Registers used:
  5217 ;;		wreg
  5218 ;; Tracked objects:
  5219 ;;		On entry : 0/0
  5220 ;;		On exit  : 0/0
  5221 ;;		Unchanged: 0/0
  5222 ;; Data sizes:     COMRAM   BANK0   BANK1   BANK2   BANK3   BANK4   BANK5
  5223 ;;      Params:         0       0       0       0       0       0       0
  5224 ;;      Locals:         1       0       0       0       0       0       0
  5225 ;;      Temps:          0       0       0       0       0       0       0
  5226 ;;      Totals:         1       0       0       0       0       0       0
  5227 ;;Total ram usage:        1 bytes
  5228 ;; Hardware stack levels used: 1
  5229 ;; This function calls:
  5230 ;;		Nothing
  5231 ;; This function is called by:
  5232 ;;		_RTC_WaitReady
  5233 ;;		_RTC_WriteByte
  5234 ;;		_RTC_ReadByte
  5235 ;;		_RTC_ReadBytes
  5236 ;;		_RTC_WriteBytes
  5237 ;; This function uses a non-reentrant model
  5238 ;;
  5239                           
  5240                           	psect	text31
  5241  006402                     __ptext31:
  5242                           	callstack 0
  5243  006402                     _I2C2_Send:
  5244                           	callstack 27
  5245                           
  5246                           ;incstack = 0
  5247                           ;I2C2_Send@data stored from wreg
  5248  006402  6E01               	movwf	I2C2_Send@data^0,c
  5249  006404                     
  5250                           ;i2c2.c: 148:  SSP2BUF = data;
  5251  006404  C001  FF6F         	movff	I2C2_Send@data,3951	;volatile
  5252  006408                     l150:
  5253  006408  AEA4               	btfss	164,7,c	;volatile
  5254  00640A  EF09  F032         	goto	u1351
  5255  00640E  EF0B  F032         	goto	u1350
  5256  006412                     u1351:
  5257  006412  EF04  F032         	goto	l150
  5258  006416                     u1350:
  5259  006416                     
  5260                           ;i2c2.c: 150:  PIR3bits.SSP2IF = 0;
  5261  006416  9EA4               	bcf	164,7,c	;volatile
  5262                           
  5263                           ;i2c2.c: 151:  return SSP2CON2bits.ACKSTAT;
  5264  006418  BC6B               	btfsc	107,6,c	;volatile
  5265  00641A  EF11  F032         	goto	u1361
  5266  00641E  EF14  F032         	goto	u1360
  5267  006422                     u1361:
  5268  006422  0E01               	movlw	1
  5269  006424  EF15  F032         	goto	u1366
  5270  006428                     u1360:
  5271  006428  0E00               	movlw	0
  5272  00642A                     u1366:
  5273  00642A  0012               	return		;funcret
  5274  00642C                     __end_of_I2C2_Send:
  5275                           	callstack 0
  5276                           
  5277 ;; *************** function _I2C2_Read *****************
  5278 ;; Defined at:
  5279 ;;		line 162 in file "i2c2.c"
  5280 ;; Parameters:    Size  Location     Type
  5281 ;;		None
  5282 ;; Auto vars:     Size  Location     Type
  5283 ;;		None
  5284 ;; Return value:  Size  Location     Type
  5285 ;;                  1    wreg      unsigned char 
  5286 ;; Registers used:
  5287 ;;		wreg, status,2
  5288 ;; Tracked objects:
  5289 ;;		On entry : 0/0
  5290 ;;		On exit  : 0/0
  5291 ;;		Unchanged: 0/0
  5292 ;; Data sizes:     COMRAM   BANK0   BANK1   BANK2   BANK3   BANK4   BANK5
  5293 ;;      Params:         0       0       0       0       0       0       0
  5294 ;;      Locals:         0       0       0       0       0       0       0
  5295 ;;      Temps:          0       0       0       0       0       0       0
  5296 ;;      Totals:         0       0       0       0       0       0       0
  5297 ;;Total ram usage:        0 bytes
  5298 ;; Hardware stack levels used: 1
  5299 ;; This function calls:
  5300 ;;		Nothing
  5301 ;; This function is called by:
  5302 ;;		_RTC_ReadByte
  5303 ;;		_RTC_ReadBytes
  5304 ;; This function uses a non-reentrant model
  5305 ;;
  5306                           
  5307                           	psect	text32
  5308  006340                     __ptext32:
  5309                           	callstack 0
  5310  006340                     _I2C2_Read:
  5311                           	callstack 28
  5312  006340                     
  5313                           ;i2c2.c: 163:  SSP2CON2bits.RCEN = 1;
  5314  006340  866B               	bsf	107,3,c	;volatile
  5315  006342                     l156:
  5316  006342  AEA4               	btfss	164,7,c	;volatile
  5317  006344  EFA6  F031         	goto	u1431
  5318  006348  EFA8  F031         	goto	u1430
  5319  00634C                     u1431:
  5320  00634C  EFA1  F031         	goto	l156
  5321  006350                     u1430:
  5322  006350                     
  5323                           ;i2c2.c: 165:  PIR3bits.SSP2IF = 0;
  5324  006350  9EA4               	bcf	164,7,c	;volatile
  5325  006352                     
  5326                           ;i2c2.c: 166:     return SSP2BUF;
  5327  006352  506F               	movf	111,w,c	;volatile
  5328  006354  0012               	return		;funcret
  5329  006356                     __end_of_I2C2_Read:
  5330                           	callstack 0
  5331                           
  5332 ;; *************** function _MCU_Initialize *****************
  5333 ;; Defined at:
  5334 ;;		line 64 in file "main.c"
  5335 ;; Parameters:    Size  Location     Type
  5336 ;;		None
  5337 ;; Auto vars:     Size  Location     Type
  5338 ;;		None
  5339 ;; Return value:  Size  Location     Type
  5340 ;;                  1    wreg      void 
  5341 ;; Registers used:
  5342 ;;		wreg, status,2
  5343 ;; Tracked objects:
  5344 ;;		On entry : 0/0
  5345 ;;		On exit  : 0/0
  5346 ;;		Unchanged: 0/0
  5347 ;; Data sizes:     COMRAM   BANK0   BANK1   BANK2   BANK3   BANK4   BANK5
  5348 ;;      Params:         0       0       0       0       0       0       0
  5349 ;;      Locals:         0       0       0       0       0       0       0
  5350 ;;      Temps:          1       0       0       0       0       0       0
  5351 ;;      Totals:         1       0       0       0       0       0       0
  5352 ;;Total ram usage:        1 bytes
  5353 ;; Hardware stack levels used: 1
  5354 ;; This function calls:
  5355 ;;		Nothing
  5356 ;; This function is called by:
  5357 ;;		_main
  5358 ;; This function uses a non-reentrant model
  5359 ;;
  5360                           
  5361                           	psect	text33
  5362  00649A                     __ptext33:
  5363                           	callstack 0
  5364  00649A                     _MCU_Initialize:
  5365                           	callstack 30
  5366  00649A                     
  5367                           ;main.c: 65:     ANSELA = 0x00;
  5368  00649A  0E00               	movlw	0
  5369  00649C  010F               	movlb	15	; () banked
  5370  00649E  6F38               	movwf	56,b	;volatile
  5371                           
  5372                           ;main.c: 66:     ANSELB = 0x00;
  5373  0064A0  0E00               	movlw	0
  5374  0064A2  6F39               	movwf	57,b	;volatile
  5375                           
  5376                           ;main.c: 67:     ANSELC = 0x00;
  5377  0064A4  0E00               	movlw	0
  5378  0064A6  6F3A               	movwf	58,b	;volatile
  5379                           
  5380                           ;main.c: 69:     TRISA = 0x00;
  5381  0064A8  0E00               	movlw	0
  5382  0064AA  6E92               	movwf	146,c	;volatile
  5383                           
  5384                           ;main.c: 70:     TRISB = 0x00;
  5385  0064AC  0E00               	movlw	0
  5386  0064AE  6E93               	movwf	147,c	;volatile
  5387                           
  5388                           ;main.c: 71:     TRISC = 0x00;
  5389  0064B0  0E00               	movlw	0
  5390  0064B2  6E94               	movwf	148,c	;volatile
  5391                           
  5392                           ;main.c: 73:     LATA = 0x00;
  5393  0064B4  0E00               	movlw	0
  5394  0064B6  6E89               	movwf	137,c	;volatile
  5395                           
  5396                           ;main.c: 74:     LATB = 0x00;
  5397  0064B8  0E00               	movlw	0
  5398  0064BA  6E8A               	movwf	138,c	;volatile
  5399                           
  5400                           ;main.c: 75:     LATC = 0x00;
  5401  0064BC  0E00               	movlw	0
  5402  0064BE  6E8B               	movwf	139,c	;volatile
  5403                           
  5404                           ;main.c: 78:     OSCCONbits.IRCF = 0b111;
  5405  0064C0  0E70               	movlw	112
  5406  0064C2  12D3               	iorwf	211,f,c	;volatile
  5407  0064C4                     
  5408                           ; BSR set to: 15
  5409                           ;main.c: 79:     _delay((unsigned long)((10)*(16000000/4000.0)));
  5410  0064C4  0E34               	movlw	52
  5411  0064C6  6E01               	movwf	??_MCU_Initialize^0,c
  5412  0064C8  0EF2               	movlw	242
  5413  0064CA                     u2597:
  5414  0064CA  2EE8               	decfsz	wreg,f,c
  5415  0064CC  D7FE               	bra	u2597
  5416  0064CE  2E01               	decfsz	??_MCU_Initialize^0,f,c
  5417  0064D0  D7FC               	bra	u2597
  5418  0064D2  0012               	return		;funcret
  5419  0064D4                     __end_of_MCU_Initialize:
  5420                           	callstack 0
  5421                           
  5422 ;; *************** function _I2C2_Initialize *****************
  5423 ;; Defined at:
  5424 ;;		line 53 in file "i2c2.c"
  5425 ;; Parameters:    Size  Location     Type
  5426 ;;  fosc_hz         4   13[COMRAM] unsigned long 
  5427 ;;  i2c_speed_hz    4   17[COMRAM] unsigned long 
  5428 ;; Auto vars:     Size  Location     Type
  5429 ;;		None
  5430 ;; Return value:  Size  Location     Type
  5431 ;;                  1    wreg      void 
  5432 ;; Registers used:
  5433 ;;		wreg, status,2, status,0, cstack
  5434 ;; Tracked objects:
  5435 ;;		On entry : 0/0
  5436 ;;		On exit  : 0/0
  5437 ;;		Unchanged: 0/0
  5438 ;; Data sizes:     COMRAM   BANK0   BANK1   BANK2   BANK3   BANK4   BANK5
  5439 ;;      Params:         8       0       0       0       0       0       0
  5440 ;;      Locals:         0       0       0       0       0       0       0
  5441 ;;      Temps:          4       0       0       0       0       0       0
  5442 ;;      Totals:        12       0       0       0       0       0       0
  5443 ;;Total ram usage:       12 bytes
  5444 ;; Hardware stack levels used: 1
  5445 ;; Hardware stack levels required when called: 1
  5446 ;; This function calls:
  5447 ;;		___lldiv
  5448 ;; This function is called by:
  5449 ;;		_main
  5450 ;; This function uses a non-reentrant model
  5451 ;;
  5452                           
  5453                           	psect	text34
  5454  0066AE                     __ptext34:
  5455                           	callstack 0
  5456  0066AE                     _I2C2_Initialize:
  5457                           	callstack 29
  5458  0066AE  8293               	bsf	147,1,c	;volatile
  5459  0066B0  8493               	bsf	147,2,c	;volatile
  5460  0066B2                     
  5461                           ;i2c2.c: 57:     SSP2STAT = 0b10000000;
  5462  0066B2  0E80               	movlw	128
  5463  0066B4  6E6D               	movwf	109,c	;volatile
  5464                           
  5465                           ;i2c2.c: 58:     SSP2CON1 = 0b00101000;
  5466  0066B6  0E28               	movlw	40
  5467  0066B8  6E6C               	movwf	108,c	;volatile
  5468  0066BA                     
  5469                           ;i2c2.c: 64:     SSP2ADD = (uint8_t)((fosc_hz / (4UL * i2c_speed_hz)) - 1UL);
  5470  0066BA  C00E  F001         	movff	I2C2_Initialize@fosc_hz,___lldiv@dividend
  5471  0066BE  C00F  F002         	movff	I2C2_Initialize@fosc_hz+1,___lldiv@dividend+1
  5472  0066C2  C010  F003         	movff	I2C2_Initialize@fosc_hz+2,___lldiv@dividend+2
  5473  0066C6  C011  F004         	movff	I2C2_Initialize@fosc_hz+3,___lldiv@dividend+3
  5474  0066CA  C012  F016         	movff	I2C2_Initialize@i2c_speed_hz,??_I2C2_Initialize
  5475  0066CE  C013  F017         	movff	I2C2_Initialize@i2c_speed_hz+1,??_I2C2_Initialize+1
  5476  0066D2  C014  F018         	movff	I2C2_Initialize@i2c_speed_hz+2,??_I2C2_Initialize+2
  5477  0066D6  C015  F019         	movff	I2C2_Initialize@i2c_speed_hz+3,??_I2C2_Initialize+3
  5478  0066DA  0E02               	movlw	2
  5479  0066DC                     u2475:
  5480  0066DC  90D8               	bcf	status,0,c
  5481  0066DE  3616               	rlcf	??_I2C2_Initialize^0,f,c
  5482  0066E0  3617               	rlcf	(??_I2C2_Initialize+1)^0,f,c
  5483  0066E2  3618               	rlcf	(??_I2C2_Initialize+2)^0,f,c
  5484  0066E4  3619               	rlcf	(??_I2C2_Initialize+3)^0,f,c
  5485  0066E6  2EE8               	decfsz	wreg,f,c
  5486  0066E8  EF6E  F033         	goto	u2475
  5487  0066EC  C016  F005         	movff	??_I2C2_Initialize,___lldiv@divisor
  5488  0066F0  C017  F006         	movff	??_I2C2_Initialize+1,___lldiv@divisor+1
  5489  0066F4  C018  F007         	movff	??_I2C2_Initialize+2,___lldiv@divisor+2
  5490  0066F8  C019  F008         	movff	??_I2C2_Initialize+3,___lldiv@divisor+3
  5491  0066FC  EC1C  F035         	call	___lldiv	;wreg free
  5492  006700  0401               	decf	?___lldiv^0,w,c
  5493  006702  6E6E               	movwf	110,c	;volatile
  5494  006704  0012               	return		;funcret
  5495  006706                     __end_of_I2C2_Initialize:
  5496                           	callstack 0
  5497                           
  5498 ;; *************** function ___lldiv *****************
  5499 ;; Defined at:
  5500 ;;		line 7 in file "C:\Program Files\Microchip\xc8\v2.36\pic\sources\c99\common\__lldiv.c"
  5501 ;; Parameters:    Size  Location     Type
  5502 ;;  dividend        4    0[COMRAM] unsigned long 
  5503 ;;  divisor         4    4[COMRAM] unsigned long 
  5504 ;; Auto vars:     Size  Location     Type
  5505 ;;  quotient        4    8[COMRAM] unsigned long 
  5506 ;;  counter         1   12[COMRAM] unsigned char 
  5507 ;; Return value:  Size  Location     Type
  5508 ;;                  4    0[COMRAM] unsigned long 
  5509 ;; Registers used:
  5510 ;;		wreg, status,2, status,0
  5511 ;; Tracked objects:
  5512 ;;		On entry : 0/0
  5513 ;;		On exit  : 0/0
  5514 ;;		Unchanged: 0/0
  5515 ;; Data sizes:     COMRAM   BANK0   BANK1   BANK2   BANK3   BANK4   BANK5
  5516 ;;      Params:         8       0       0       0       0       0       0
  5517 ;;      Locals:         5       0       0       0       0       0       0
  5518 ;;      Temps:          0       0       0       0       0       0       0
  5519 ;;      Totals:        13       0       0       0       0       0       0
  5520 ;;Total ram usage:       13 bytes
  5521 ;; Hardware stack levels used: 1
  5522 ;; This function calls:
  5523 ;;		Nothing
  5524 ;; This function is called by:
  5525 ;;		_I2C2_Initialize
  5526 ;; This function uses a non-reentrant model
  5527 ;;
  5528                           
  5529                           	psect	text35
  5530  006A38                     __ptext35:
  5531                           	callstack 0
  5532  006A38                     ___lldiv:
  5533                           	callstack 29
  5534  006A38  0E00               	movlw	0
  5535  006A3A  6E09               	movwf	___lldiv@quotient^0,c
  5536  006A3C  0E00               	movlw	0
  5537  006A3E  6E0A               	movwf	(___lldiv@quotient+1)^0,c
  5538  006A40  0E00               	movlw	0
  5539  006A42  6E0B               	movwf	(___lldiv@quotient+2)^0,c
  5540  006A44  0E00               	movlw	0
  5541  006A46  6E0C               	movwf	(___lldiv@quotient+3)^0,c
  5542  006A48  5005               	movf	___lldiv@divisor^0,w,c
  5543  006A4A  1006               	iorwf	(___lldiv@divisor+1)^0,w,c
  5544  006A4C  1007               	iorwf	(___lldiv@divisor+2)^0,w,c
  5545  006A4E  1008               	iorwf	(___lldiv@divisor+3)^0,w,c
  5546  006A50  B4D8               	btfsc	status,2,c
  5547  006A52  EF2D  F035         	goto	u2281
  5548  006A56  EF2F  F035         	goto	u2280
  5549  006A5A                     u2281:
  5550  006A5A  EF65  F035         	goto	l316
  5551  006A5E                     u2280:
  5552  006A5E  0E01               	movlw	1
  5553  006A60  6E0D               	movwf	___lldiv@counter^0,c
  5554  006A62  EF39  F035         	goto	l2550
  5555  006A66                     l2548:
  5556  006A66  90D8               	bcf	status,0,c
  5557  006A68  3605               	rlcf	___lldiv@divisor^0,f,c
  5558  006A6A  3606               	rlcf	(___lldiv@divisor+1)^0,f,c
  5559  006A6C  3607               	rlcf	(___lldiv@divisor+2)^0,f,c
  5560  006A6E  3608               	rlcf	(___lldiv@divisor+3)^0,f,c
  5561  006A70  2A0D               	incf	___lldiv@counter^0,f,c
  5562  006A72                     l2550:
  5563  006A72  AE08               	btfss	(___lldiv@divisor+3)^0,7,c
  5564  006A74  EF3E  F035         	goto	u2291
  5565  006A78  EF40  F035         	goto	u2290
  5566  006A7C                     u2291:
  5567  006A7C  EF33  F035         	goto	l2548
  5568  006A80                     u2290:
  5569  006A80                     l2552:
  5570  006A80  90D8               	bcf	status,0,c
  5571  006A82  3609               	rlcf	___lldiv@quotient^0,f,c
  5572  006A84  360A               	rlcf	(___lldiv@quotient+1)^0,f,c
  5573  006A86  360B               	rlcf	(___lldiv@quotient+2)^0,f,c
  5574  006A88  360C               	rlcf	(___lldiv@quotient+3)^0,f,c
  5575  006A8A  5005               	movf	___lldiv@divisor^0,w,c
  5576  006A8C  5C01               	subwf	___lldiv@dividend^0,w,c
  5577  006A8E  5006               	movf	(___lldiv@divisor+1)^0,w,c
  5578  006A90  5802               	subwfb	(___lldiv@dividend+1)^0,w,c
  5579  006A92  5007               	movf	(___lldiv@divisor+2)^0,w,c
  5580  006A94  5803               	subwfb	(___lldiv@dividend+2)^0,w,c
  5581  006A96  5008               	movf	(___lldiv@divisor+3)^0,w,c
  5582  006A98  5804               	subwfb	(___lldiv@dividend+3)^0,w,c
  5583  006A9A  A0D8               	btfss	status,0,c
  5584  006A9C  EF52  F035         	goto	u2301
  5585  006AA0  EF54  F035         	goto	u2300
  5586  006AA4                     u2301:
  5587  006AA4  EF5D  F035         	goto	l2560
  5588  006AA8                     u2300:
  5589  006AA8  5005               	movf	___lldiv@divisor^0,w,c
  5590  006AAA  5E01               	subwf	___lldiv@dividend^0,f,c
  5591  006AAC  5006               	movf	(___lldiv@divisor+1)^0,w,c
  5592  006AAE  5A02               	subwfb	(___lldiv@dividend+1)^0,f,c
  5593  006AB0  5007               	movf	(___lldiv@divisor+2)^0,w,c
  5594  006AB2  5A03               	subwfb	(___lldiv@dividend+2)^0,f,c
  5595  006AB4  5008               	movf	(___lldiv@divisor+3)^0,w,c
  5596  006AB6  5A04               	subwfb	(___lldiv@dividend+3)^0,f,c
  5597  006AB8  8009               	bsf	___lldiv@quotient^0,0,c
  5598  006ABA                     l2560:
  5599  006ABA  90D8               	bcf	status,0,c
  5600  006ABC  3208               	rrcf	(___lldiv@divisor+3)^0,f,c
  5601  006ABE  3207               	rrcf	(___lldiv@divisor+2)^0,f,c
  5602  006AC0  3206               	rrcf	(___lldiv@divisor+1)^0,f,c
  5603  006AC2  3205               	rrcf	___lldiv@divisor^0,f,c
  5604  006AC4  2E0D               	decfsz	___lldiv@counter^0,f,c
  5605  006AC6  EF40  F035         	goto	l2552
  5606  006ACA                     l316:
  5607  006ACA  C009  F001         	movff	___lldiv@quotient,?___lldiv
  5608  006ACE  C00A  F002         	movff	___lldiv@quotient+1,?___lldiv+1
  5609  006AD2  C00B  F003         	movff	___lldiv@quotient+2,?___lldiv+2
  5610  006AD6  C00C  F004         	movff	___lldiv@quotient+3,?___lldiv+3
  5611  006ADA  0012               	return		;funcret
  5612  006ADC                     __end_of___lldiv:
  5613                           	callstack 0
  5614                           
  5615 ;; *************** function _DISPLAY_Initialize *****************
  5616 ;; Defined at:
  5617 ;;		line 82 in file "main.c"
  5618 ;; Parameters:    Size  Location     Type
  5619 ;;		None
  5620 ;; Auto vars:     Size  Location     Type
  5621 ;;  myLCD           9   24[COMRAM] struct .
  5622 ;; Return value:  Size  Location     Type
  5623 ;;                  1    wreg      void 
  5624 ;; Registers used:
  5625 ;;		wreg, fsr0l, fsr0h, fsr1l, fsr1h, fsr2l, fsr2h, status,2, status,0, tblptrl, tblptrh, tblptru, prodl, prodh, cstack
  5626 ;; Tracked objects:
  5627 ;;		On entry : 0/0
  5628 ;;		On exit  : 0/0
  5629 ;;		Unchanged: 0/0
  5630 ;; Data sizes:     COMRAM   BANK0   BANK1   BANK2   BANK3   BANK4   BANK5
  5631 ;;      Params:         0       0       0       0       0       0       0
  5632 ;;      Locals:         9       0       0       0       0       0       0
  5633 ;;      Temps:          2       0       0       0       0       0       0
  5634 ;;      Totals:        11       0       0       0       0       0       0
  5635 ;;Total ram usage:       11 bytes
  5636 ;; Hardware stack levels used: 1
  5637 ;; Hardware stack levels required when called: 4
  5638 ;; This function calls:
  5639 ;;		_LCDNokia5110_Clear
  5640 ;;		_LCDNokia5110_Initialize
  5641 ;;		_LCDNokia5110_putStr
  5642 ;; This function is called by:
  5643 ;;		_main
  5644 ;; This function uses a non-reentrant model
  5645 ;;
  5646                           
  5647                           	psect	text36
  5648  006910                     __ptext36:
  5649                           	callstack 0
  5650  006910                     _DISPLAY_Initialize:
  5651                           	callstack 26
  5652  006910                     
  5653                           ;main.c: 84:     LCDNokia5110_t myLCD = {
  5654  006910  EE20  F0C9         	lfsr	2,DISPLAY_Initialize@F6752
  5655  006914  EE10  F019         	lfsr	1,DISPLAY_Initialize@myLCD
  5656  006918  0E08               	movlw	8
  5657  00691A                     u2481:
  5658  00691A  CFDB FFE3          	movff	plusw2,plusw1
  5659  00691E  06E8               	decf	wreg,f,c
  5660  006920  E2FC               	bc	u2481
  5661  006922                     
  5662                           ;main.c: 95:     LCDNokia5110_Initialize(myLCD);
  5663  006922  EE20  F019         	lfsr	2,DISPLAY_Initialize@myLCD
  5664  006926  EE00  F00B         	lfsr	0,LCDNokia5110_Initialize@lcd
  5665  00692A  0E08               	movlw	8
  5666  00692C                     u2491:
  5667  00692C  CFDB FFEB          	movff	plusw2,plusw0
  5668  006930  06E8               	decf	wreg,f,c
  5669  006932  E2FC               	bc	u2491
  5670  006934  ECE8  F03A         	call	_LCDNokia5110_Initialize	;wreg free
  5671  006938                     
  5672                           ;main.c: 98:     LCDNokia5110_Clear();
  5673  006938  ECA4  F032         	call	_LCDNokia5110_Clear	;wreg free
  5674  00693C                     
  5675                           ;main.c: 101:     LCDNokia5110_putStr("MrChunckuee!", 0, 0);
  5676  00693C  0ECC               	movlw	low STR_8
  5677  00693E  6E12               	movwf	LCDNokia5110_putStr@dataStr^0,c
  5678  006940  0E7F               	movlw	high STR_8
  5679  006942  6E13               	movwf	(LCDNokia5110_putStr@dataStr+1)^0,c
  5680  006944  0E00               	movlw	0
  5681  006946  6E14               	movwf	LCDNokia5110_putStr@x^0,c
  5682  006948  0E00               	movlw	0
  5683  00694A  6E15               	movwf	LCDNokia5110_putStr@y^0,c
  5684  00694C  EC14  F034         	call	_LCDNokia5110_putStr	;wreg free
  5685  006950                     
  5686                           ;main.c: 102:     LCDNokia5110_putStr("RTC Library", 0, 2);
  5687  006950  0EE6               	movlw	low STR_9
  5688  006952  6E12               	movwf	LCDNokia5110_putStr@dataStr^0,c
  5689  006954  0E7F               	movlw	high STR_9
  5690  006956  6E13               	movwf	(LCDNokia5110_putStr@dataStr+1)^0,c
  5691  006958  0E00               	movlw	0
  5692  00695A  6E14               	movwf	LCDNokia5110_putStr@x^0,c
  5693  00695C  0E02               	movlw	2
  5694  00695E  6E15               	movwf	LCDNokia5110_putStr@y^0,c
  5695  006960  EC14  F034         	call	_LCDNokia5110_putStr	;wreg free
  5696  006964                     
  5697                           ;main.c: 103:     LCDNokia5110_putStr("BQ32000 Test", 0, 4);
  5698  006964  0ED9               	movlw	low STR_10
  5699  006966  6E12               	movwf	LCDNokia5110_putStr@dataStr^0,c
  5700  006968  0E7F               	movlw	high STR_10
  5701  00696A  6E13               	movwf	(LCDNokia5110_putStr@dataStr+1)^0,c
  5702  00696C  0E00               	movlw	0
  5703  00696E  6E14               	movwf	LCDNokia5110_putStr@x^0,c
  5704  006970  0E04               	movlw	4
  5705  006972  6E15               	movwf	LCDNokia5110_putStr@y^0,c
  5706  006974  EC14  F034         	call	_LCDNokia5110_putStr	;wreg free
  5707  006978                     
  5708                           ;main.c: 104:     _delay((unsigned long)((2000)*(16000000/4000.0)));
  5709  006978  0E29               	movlw	41
  5710  00697A  6E18               	movwf	(??_DISPLAY_Initialize+1)^0,c
  5711  00697C  0E96               	movlw	150
  5712  00697E  6E17               	movwf	??_DISPLAY_Initialize^0,c
  5713  006980  0E7F               	movlw	127
  5714  006982                     u2607:
  5715  006982  2EE8               	decfsz	wreg,f,c
  5716  006984  D7FE               	bra	u2607
  5717  006986  2E17               	decfsz	??_DISPLAY_Initialize^0,f,c
  5718  006988  D7FC               	bra	u2607
  5719  00698A  2E18               	decfsz	(??_DISPLAY_Initialize+1)^0,f,c
  5720  00698C  D7FA               	bra	u2607
  5721  00698E  F000               	nop	
  5722  006990                     
  5723                           ;main.c: 105:     LCDNokia5110_Clear();
  5724  006990  ECA4  F032         	call	_LCDNokia5110_Clear	;wreg free
  5725  006994  0012               	return		;funcret
  5726  006996                     __end_of_DISPLAY_Initialize:
  5727                           	callstack 0
  5728                           
  5729 ;; *************** function _LCDNokia5110_putStr *****************
  5730 ;; Defined at:
  5731 ;;		line 161 in file "LCDNokia5110.c"
  5732 ;; Parameters:    Size  Location     Type
  5733 ;;  dataStr         2   17[COMRAM] PTR unsigned char 
  5734 ;;		 -> STR_10(13), STR_9(12), STR_8(13), STR_7(13), 
  5735 ;;		 -> STR_6(13), STR_5(13), STR_4(7), STR_3(6), 
  5736 ;;		 -> main@txtFecha(12), main@txtHora(12), 
  5737 ;;  x               1   19[COMRAM] unsigned char 
  5738 ;;  y               1   20[COMRAM] unsigned char 
  5739 ;; Auto vars:     Size  Location     Type
  5740 ;;		None
  5741 ;; Return value:  Size  Location     Type
  5742 ;;                  1    wreg      void 
  5743 ;; Registers used:
  5744 ;;		wreg, fsr0l, fsr0h, fsr2l, fsr2h, status,2, status,0, tblptrl, tblptrh, tblptru, prodl, prodh, cstack
  5745 ;; Tracked objects:
  5746 ;;		On entry : 0/0
  5747 ;;		On exit  : 0/0
  5748 ;;		Unchanged: 0/0
  5749 ;; Data sizes:     COMRAM   BANK0   BANK1   BANK2   BANK3   BANK4   BANK5
  5750 ;;      Params:         4       0       0       0       0       0       0
  5751 ;;      Locals:         0       0       0       0       0       0       0
  5752 ;;      Temps:          0       0       0       0       0       0       0
  5753 ;;      Totals:         4       0       0       0       0       0       0
  5754 ;;Total ram usage:        4 bytes
  5755 ;; Hardware stack levels used: 1
  5756 ;; Hardware stack levels required when called: 3
  5757 ;; This function calls:
  5758 ;;		_LCDNokia5110_GotoXY
  5759 ;;		_LCDNokia5110_putC
  5760 ;; This function is called by:
  5761 ;;		_main
  5762 ;;		_DISPLAY_Initialize
  5763 ;; This function uses a non-reentrant model
  5764 ;;
  5765                           
  5766                           	psect	text37
  5767  006828                     __ptext37:
  5768                           	callstack 0
  5769  006828                     _LCDNokia5110_putStr:
  5770                           	callstack 27
  5771  006828                     
  5772                           ;LCDNokia5110.c: 162:     LCDNokia5110_GotoXY(x, y);
  5773  006828  C015  F00B         	movff	LCDNokia5110_putStr@y,LCDNokia5110_GotoXY@y
  5774  00682C  5014               	movf	LCDNokia5110_putStr@x^0,w,c
  5775  00682E  ECCC  F031         	call	_LCDNokia5110_GotoXY
  5776                           
  5777                           ;LCDNokia5110.c: 163:     while(*dataStr)
  5778  006832  EF2F  F034         	goto	l2492
  5779  006836                     l2488:
  5780                           
  5781                           ;LCDNokia5110.c: 164:         LCDNokia5110_putC(*dataStr++);
  5782  006836  C012  FFF6         	movff	LCDNokia5110_putStr@dataStr,tblptrl
  5783  00683A  C013  FFF7         	movff	LCDNokia5110_putStr@dataStr+1,tblptrh
  5784  00683E  6AF8               	clrf	tblptru,c
  5785  006840  0E05               	movlw	(high __ramtop+-1)
  5786  006842  64F7               	cpfsgt	tblptrh,c
  5787  006844  D003               	bra	u2157
  5788  006846  0008               	tblrd		*
  5789  006848  50F5               	movf	tablat,w,c
  5790  00684A  D005               	bra	u2150
  5791  00684C                     u2157:
  5792  00684C  CFF6 FFE9          	movff	tblptrl,fsr0l
  5793  006850  CFF7 FFEA          	movff	tblptrh,fsr0h
  5794  006854  50EF               	movf	indf0,w,c
  5795  006856                     u2150:
  5796  006856  EC48  F034         	call	_LCDNokia5110_putC
  5797  00685A  4A12               	infsnz	LCDNokia5110_putStr@dataStr^0,f,c
  5798  00685C  2A13               	incf	(LCDNokia5110_putStr@dataStr+1)^0,f,c
  5799  00685E                     l2492:
  5800                           
  5801                           ;LCDNokia5110.c: 163:     while(*dataStr)
  5802  00685E  C012  FFF6         	movff	LCDNokia5110_putStr@dataStr,tblptrl
  5803  006862  C013  FFF7         	movff	LCDNokia5110_putStr@dataStr+1,tblptrh
  5804  006866  6AF8               	clrf	tblptru,c
  5805  006868  0E05               	movlw	(high __ramtop+-1)
  5806  00686A  64F7               	cpfsgt	tblptrh,c
  5807  00686C  D003               	bra	u2167
  5808  00686E  0008               	tblrd		*
  5809  006870  50F5               	movf	tablat,w,c
  5810  006872  D005               	bra	u2160
  5811  006874                     u2167:
  5812  006874  CFF6 FFE9          	movff	tblptrl,fsr0l
  5813  006878  CFF7 FFEA          	movff	tblptrh,fsr0h
  5814  00687C  50EF               	movf	indf0,w,c
  5815  00687E                     u2160:
  5816  00687E  0900               	iorlw	0
  5817  006880  A4D8               	btfss	status,2,c
  5818  006882  EF45  F034         	goto	u2171
  5819  006886  EF47  F034         	goto	u2170
  5820  00688A                     u2171:
  5821  00688A  EF1B  F034         	goto	l2488
  5822  00688E                     u2170:
  5823  00688E  0012               	return		;funcret
  5824  006890                     __end_of_LCDNokia5110_putStr:
  5825                           	callstack 0
  5826                           
  5827 ;; *************** function _LCDNokia5110_putC *****************
  5828 ;; Defined at:
  5829 ;;		line 145 in file "LCDNokia5110.c"
  5830 ;; Parameters:    Size  Location     Type
  5831 ;;  data            1    wreg     unsigned char 
  5832 ;; Auto vars:     Size  Location     Type
  5833 ;;  data            1   14[COMRAM] unsigned char 
  5834 ;;  index           2   15[COMRAM] int 
  5835 ;; Return value:  Size  Location     Type
  5836 ;;                  1    wreg      void 
  5837 ;; Registers used:
  5838 ;;		wreg, fsr2l, fsr2h, status,2, status,0, tblptrl, tblptrh, tblptru, prodl, prodh, cstack
  5839 ;; Tracked objects:
  5840 ;;		On entry : 0/0
  5841 ;;		On exit  : 0/0
  5842 ;;		Unchanged: 0/0
  5843 ;; Data sizes:     COMRAM   BANK0   BANK1   BANK2   BANK3   BANK4   BANK5
  5844 ;;      Params:         0       0       0       0       0       0       0
  5845 ;;      Locals:         3       0       0       0       0       0       0
  5846 ;;      Temps:          4       0       0       0       0       0       0
  5847 ;;      Totals:         7       0       0       0       0       0       0
  5848 ;;Total ram usage:        7 bytes
  5849 ;; Hardware stack levels used: 1
  5850 ;; Hardware stack levels required when called: 2
  5851 ;; This function calls:
  5852 ;;		_LCDNokia5110_Write
  5853 ;; This function is called by:
  5854 ;;		_LCDNokia5110_putStr
  5855 ;; This function uses a non-reentrant model
  5856 ;;
  5857                           
  5858                           	psect	text38
  5859  006890                     __ptext38:
  5860                           	callstack 0
  5861  006890                     _LCDNokia5110_putC:
  5862                           	callstack 27
  5863                           
  5864                           ;incstack = 0
  5865                           ;LCDNokia5110_putC@data stored from wreg
  5866  006890  6E0F               	movwf	LCDNokia5110_putC@data^0,c
  5867  006892                     
  5868                           ;LCDNokia5110.c: 146:     LCDNokia5110_Write(1, 0x00);
  5869  006892  0E00               	movlw	0
  5870  006894  6E06               	movwf	LCDNokia5110_Write@data^0,c
  5871  006896  0E01               	movlw	1
  5872  006898  EC6E  F035         	call	_LCDNokia5110_Write
  5873  00689C                     
  5874                           ;LCDNokia5110.c: 147:     for (int index = 0; index < 5; index++)
  5875  00689C  0E00               	movlw	0
  5876  00689E  6E11               	movwf	(LCDNokia5110_putC@index+1)^0,c
  5877  0068A0  0E00               	movlw	0
  5878  0068A2  6E10               	movwf	LCDNokia5110_putC@index^0,c
  5879  0068A4                     l2348:
  5880                           
  5881                           ;LCDNokia5110.c: 148:         LCDNokia5110_Write(1, FONT_NORMAL[data - 0x20][index]);
  5882  0068A4  0E60               	movlw	96
  5883  0068A6  6E0B               	movwf	??_LCDNokia5110_putC^0,c
  5884  0068A8  0EFF               	movlw	255
  5885  0068AA  6E0C               	movwf	(??_LCDNokia5110_putC+1)^0,c
  5886  0068AC  500F               	movf	LCDNokia5110_putC@data^0,w,c
  5887  0068AE  0D05               	mullw	5
  5888  0068B0  0EA7               	movlw	low _FONT_NORMAL
  5889  0068B2  6E0D               	movwf	(??_LCDNokia5110_putC+2)^0,c
  5890  0068B4  0E7D               	movlw	high _FONT_NORMAL
  5891  0068B6  6E0E               	movwf	(??_LCDNokia5110_putC+3)^0,c
  5892  0068B8  50F3               	movf	243,w,c
  5893  0068BA  260D               	addwf	(??_LCDNokia5110_putC+2)^0,f,c
  5894  0068BC  50F4               	movf	244,w,c
  5895  0068BE  220E               	addwfc	(??_LCDNokia5110_putC+3)^0,f,c
  5896  0068C0  5010               	movf	LCDNokia5110_putC@index^0,w,c
  5897  0068C2  260D               	addwf	(??_LCDNokia5110_putC+2)^0,f,c
  5898  0068C4  5011               	movf	(LCDNokia5110_putC@index+1)^0,w,c
  5899  0068C6  220E               	addwfc	(??_LCDNokia5110_putC+3)^0,f,c
  5900  0068C8  500B               	movf	??_LCDNokia5110_putC^0,w,c
  5901  0068CA  260D               	addwf	(??_LCDNokia5110_putC+2)^0,f,c
  5902  0068CC  500C               	movf	(??_LCDNokia5110_putC+1)^0,w,c
  5903  0068CE  220E               	addwfc	(??_LCDNokia5110_putC+3)^0,f,c
  5904  0068D0  C00D  FFF6         	movff	??_LCDNokia5110_putC+2,tblptrl
  5905  0068D4  C00E  FFF7         	movff	??_LCDNokia5110_putC+3,tblptrh
  5906  0068D8                     	if	0	;tblptru may be non-zero
  5907  0068D8                     	endif
  5908  0068D8                     	if	0	;tblptru may be non-zero
  5909  0068D8                     	endif
  5910  0068D8  0008               	tblrd		*
  5911  0068DA  CFF5 F006          	movff	tablat,LCDNokia5110_Write@data
  5912  0068DE  0E01               	movlw	1
  5913  0068E0  EC6E  F035         	call	_LCDNokia5110_Write
  5914  0068E4  4A10               	infsnz	LCDNokia5110_putC@index^0,f,c
  5915  0068E6  2A11               	incf	(LCDNokia5110_putC@index+1)^0,f,c
  5916  0068E8  BE11               	btfsc	(LCDNokia5110_putC@index+1)^0,7,c
  5917  0068EA  EF80  F034         	goto	u2021
  5918  0068EE  5011               	movf	(LCDNokia5110_putC@index+1)^0,w,c
  5919  0068F0  E109               	bnz	u2020
  5920  0068F2  0E05               	movlw	5
  5921  0068F4  5C10               	subwf	LCDNokia5110_putC@index^0,w,c
  5922  0068F6  A0D8               	btfss	status,0,c
  5923  0068F8  EF80  F034         	goto	u2021
  5924  0068FC  EF82  F034         	goto	u2020
  5925  006900                     u2021:
  5926  006900  EF52  F034         	goto	l2348
  5927  006904                     u2020:
  5928  006904                     
  5929                           ;LCDNokia5110.c: 150:     LCDNokia5110_Write(1, 0x00);
  5930  006904  0E00               	movlw	0
  5931  006906  6E06               	movwf	LCDNokia5110_Write@data^0,c
  5932  006908  0E01               	movlw	1
  5933  00690A  EC6E  F035         	call	_LCDNokia5110_Write
  5934  00690E  0012               	return		;funcret
  5935  006910                     __end_of_LCDNokia5110_putC:
  5936                           	callstack 0
  5937                           
  5938 ;; *************** function _LCDNokia5110_Initialize *****************
  5939 ;; Defined at:
  5940 ;;		line 39 in file "LCDNokia5110.c"
  5941 ;; Parameters:    Size  Location     Type
  5942 ;;  lcd             9   10[COMRAM] struct .
  5943 ;; Auto vars:     Size  Location     Type
  5944 ;;		None
  5945 ;; Return value:  Size  Location     Type
  5946 ;;                  1    wreg      void 
  5947 ;; Registers used:
  5948 ;;		wreg, fsr1l, fsr1h, fsr2l, fsr2h, status,2, status,0, cstack
  5949 ;; Tracked objects:
  5950 ;;		On entry : 0/0
  5951 ;;		On exit  : 0/0
  5952 ;;		Unchanged: 0/0
  5953 ;; Data sizes:     COMRAM   BANK0   BANK1   BANK2   BANK3   BANK4   BANK5
  5954 ;;      Params:         9       0       0       0       0       0       0
  5955 ;;      Locals:         0       0       0       0       0       0       0
  5956 ;;      Temps:          3       0       0       0       0       0       0
  5957 ;;      Totals:        12       0       0       0       0       0       0
  5958 ;;Total ram usage:       12 bytes
  5959 ;; Hardware stack levels used: 1
  5960 ;; Hardware stack levels required when called: 2
  5961 ;; This function calls:
  5962 ;;		_LCDNokia5110_Write
  5963 ;; This function is called by:
  5964 ;;		_DISPLAY_Initialize
  5965 ;; This function uses a non-reentrant model
  5966 ;;
  5967                           
  5968                           	psect	text39
  5969  0075D0                     __ptext39:
  5970                           	callstack 0
  5971  0075D0                     _LCDNokia5110_Initialize:
  5972                           	callstack 27
  5973  0075D0                     
  5974                           ;LCDNokia5110.c: 40:     Nokia5110 = lcd;
  5975  0075D0  EE20  F00B         	lfsr	2,LCDNokia5110_Initialize@lcd
  5976  0075D4  EE10  F098         	lfsr	1,_Nokia5110
  5977  0075D8  0E08               	movlw	8
  5978  0075DA                     u2181:
  5979  0075DA  CFDB FFE3          	movff	plusw2,plusw1
  5980  0075DE  06E8               	decf	wreg,f,c
  5981  0075E0  E2FC               	bc	u2181
  5982  0075E2                     
  5983                           ;LCDNokia5110.c: 42:     (*(Nokia5110.TRIS) &= ~(1 << (Nokia5110.RST)));
  5984  0075E2  C09C  F014         	movff	_Nokia5110+4,??_LCDNokia5110_Initialize
  5985  0075E6  0E01               	movlw	1
  5986  0075E8  6E15               	movwf	(??_LCDNokia5110_Initialize+1)^0,c
  5987  0075EA  2A14               	incf	??_LCDNokia5110_Initialize^0,f,c
  5988  0075EC  EFFA  F03A         	goto	u2194
  5989  0075F0                     u2195:
  5990  0075F0  90D8               	bcf	status,0,c
  5991  0075F2  3615               	rlcf	(??_LCDNokia5110_Initialize+1)^0,f,c
  5992  0075F4                     u2194:
  5993  0075F4  2E14               	decfsz	??_LCDNokia5110_Initialize^0,f,c
  5994  0075F6  EFF8  F03A         	goto	u2195
  5995  0075FA  5015               	movf	(??_LCDNokia5110_Initialize+1)^0,w,c
  5996  0075FC  0AFF               	xorlw	255
  5997  0075FE  6E16               	movwf	(??_LCDNokia5110_Initialize+2)^0,c
  5998  007600  C098  FFD9         	movff	_Nokia5110,fsr2l
  5999  007604  C099  FFDA         	movff	_Nokia5110+1,fsr2h
  6000  007608  5016               	movf	(??_LCDNokia5110_Initialize+2)^0,w,c
  6001  00760A  16DF               	andwf	indf2,f,c
  6002  00760C                     
  6003                           ;LCDNokia5110.c: 43:     (*(Nokia5110.TRIS) &= ~(1 << (Nokia5110.CE)));
  6004  00760C  C09D  F014         	movff	_Nokia5110+5,??_LCDNokia5110_Initialize
  6005  007610  0E01               	movlw	1
  6006  007612  6E15               	movwf	(??_LCDNokia5110_Initialize+1)^0,c
  6007  007614  2A14               	incf	??_LCDNokia5110_Initialize^0,f,c
  6008  007616  EF0F  F03B         	goto	u2204
  6009  00761A                     u2205:
  6010  00761A  90D8               	bcf	status,0,c
  6011  00761C  3615               	rlcf	(??_LCDNokia5110_Initialize+1)^0,f,c
  6012  00761E                     u2204:
  6013  00761E  2E14               	decfsz	??_LCDNokia5110_Initialize^0,f,c
  6014  007620  EF0D  F03B         	goto	u2205
  6015  007624  5015               	movf	(??_LCDNokia5110_Initialize+1)^0,w,c
  6016  007626  0AFF               	xorlw	255
  6017  007628  6E16               	movwf	(??_LCDNokia5110_Initialize+2)^0,c
  6018  00762A  C098  FFD9         	movff	_Nokia5110,fsr2l
  6019  00762E  C099  FFDA         	movff	_Nokia5110+1,fsr2h
  6020  007632  5016               	movf	(??_LCDNokia5110_Initialize+2)^0,w,c
  6021  007634  16DF               	andwf	indf2,f,c
  6022  007636                     
  6023                           ;LCDNokia5110.c: 44:     (*(Nokia5110.TRIS) &= ~(1 << (Nokia5110.DC)));
  6024  007636  C09E  F014         	movff	_Nokia5110+6,??_LCDNokia5110_Initialize
  6025  00763A  0E01               	movlw	1
  6026  00763C  6E15               	movwf	(??_LCDNokia5110_Initialize+1)^0,c
  6027  00763E  2A14               	incf	??_LCDNokia5110_Initialize^0,f,c
  6028  007640  EF24  F03B         	goto	u2214
  6029  007644                     u2215:
  6030  007644  90D8               	bcf	status,0,c
  6031  007646  3615               	rlcf	(??_LCDNokia5110_Initialize+1)^0,f,c
  6032  007648                     u2214:
  6033  007648  2E14               	decfsz	??_LCDNokia5110_Initialize^0,f,c
  6034  00764A  EF22  F03B         	goto	u2215
  6035  00764E  5015               	movf	(??_LCDNokia5110_Initialize+1)^0,w,c
  6036  007650  0AFF               	xorlw	255
  6037  007652  6E16               	movwf	(??_LCDNokia5110_Initialize+2)^0,c
  6038  007654  C098  FFD9         	movff	_Nokia5110,fsr2l
  6039  007658  C099  FFDA         	movff	_Nokia5110+1,fsr2h
  6040  00765C  5016               	movf	(??_LCDNokia5110_Initialize+2)^0,w,c
  6041  00765E  16DF               	andwf	indf2,f,c
  6042  007660                     
  6043                           ;LCDNokia5110.c: 45:     (*(Nokia5110.TRIS) &= ~(1 << (Nokia5110.DIN)));
  6044  007660  C09F  F014         	movff	_Nokia5110+7,??_LCDNokia5110_Initialize
  6045  007664  0E01               	movlw	1
  6046  007666  6E15               	movwf	(??_LCDNokia5110_Initialize+1)^0,c
  6047  007668  2A14               	incf	??_LCDNokia5110_Initialize^0,f,c
  6048  00766A  EF39  F03B         	goto	u2224
  6049  00766E                     u2225:
  6050  00766E  90D8               	bcf	status,0,c
  6051  007670  3615               	rlcf	(??_LCDNokia5110_Initialize+1)^0,f,c
  6052  007672                     u2224:
  6053  007672  2E14               	decfsz	??_LCDNokia5110_Initialize^0,f,c
  6054  007674  EF37  F03B         	goto	u2225
  6055  007678  5015               	movf	(??_LCDNokia5110_Initialize+1)^0,w,c
  6056  00767A  0AFF               	xorlw	255
  6057  00767C  6E16               	movwf	(??_LCDNokia5110_Initialize+2)^0,c
  6058  00767E  C098  FFD9         	movff	_Nokia5110,fsr2l
  6059  007682  C099  FFDA         	movff	_Nokia5110+1,fsr2h
  6060  007686  5016               	movf	(??_LCDNokia5110_Initialize+2)^0,w,c
  6061  007688  16DF               	andwf	indf2,f,c
  6062  00768A                     
  6063                           ;LCDNokia5110.c: 46:     (*(Nokia5110.TRIS) &= ~(1 << (Nokia5110.CLK)));
  6064  00768A  C0A0  F014         	movff	_Nokia5110+8,??_LCDNokia5110_Initialize
  6065  00768E  0E01               	movlw	1
  6066  007690  6E15               	movwf	(??_LCDNokia5110_Initialize+1)^0,c
  6067  007692  2A14               	incf	??_LCDNokia5110_Initialize^0,f,c
  6068  007694  EF4E  F03B         	goto	u2234
  6069  007698                     u2235:
  6070  007698  90D8               	bcf	status,0,c
  6071  00769A  3615               	rlcf	(??_LCDNokia5110_Initialize+1)^0,f,c
  6072  00769C                     u2234:
  6073  00769C  2E14               	decfsz	??_LCDNokia5110_Initialize^0,f,c
  6074  00769E  EF4C  F03B         	goto	u2235
  6075  0076A2  5015               	movf	(??_LCDNokia5110_Initialize+1)^0,w,c
  6076  0076A4  0AFF               	xorlw	255
  6077  0076A6  6E16               	movwf	(??_LCDNokia5110_Initialize+2)^0,c
  6078  0076A8  C098  FFD9         	movff	_Nokia5110,fsr2l
  6079  0076AC  C099  FFDA         	movff	_Nokia5110+1,fsr2h
  6080  0076B0  5016               	movf	(??_LCDNokia5110_Initialize+2)^0,w,c
  6081  0076B2  16DF               	andwf	indf2,f,c
  6082  0076B4                     
  6083                           ;LCDNokia5110.c: 48:     (*(Nokia5110.PORT) |= (1 << (Nokia5110.CE)));
  6084  0076B4  C09D  F014         	movff	_Nokia5110+5,??_LCDNokia5110_Initialize
  6085  0076B8  0E01               	movlw	1
  6086  0076BA  6E15               	movwf	(??_LCDNokia5110_Initialize+1)^0,c
  6087  0076BC  2A14               	incf	??_LCDNokia5110_Initialize^0,f,c
  6088  0076BE  EF63  F03B         	goto	u2244
  6089  0076C2                     u2245:
  6090  0076C2  90D8               	bcf	status,0,c
  6091  0076C4  3615               	rlcf	(??_LCDNokia5110_Initialize+1)^0,f,c
  6092  0076C6                     u2244:
  6093  0076C6  2E14               	decfsz	??_LCDNokia5110_Initialize^0,f,c
  6094  0076C8  EF61  F03B         	goto	u2245
  6095  0076CC  C09A  FFD9         	movff	_Nokia5110+2,fsr2l
  6096  0076D0  C09B  FFDA         	movff	_Nokia5110+3,fsr2h
  6097  0076D4  5015               	movf	(??_LCDNokia5110_Initialize+1)^0,w,c
  6098  0076D6  12DF               	iorwf	indf2,f,c
  6099  0076D8                     
  6100                           ;LCDNokia5110.c: 50:     (*(Nokia5110.PORT) &= ~(1 << (Nokia5110.RST)));
  6101  0076D8  C09C  F014         	movff	_Nokia5110+4,??_LCDNokia5110_Initialize
  6102  0076DC  0E01               	movlw	1
  6103  0076DE  6E15               	movwf	(??_LCDNokia5110_Initialize+1)^0,c
  6104  0076E0  2A14               	incf	??_LCDNokia5110_Initialize^0,f,c
  6105  0076E2  EF75  F03B         	goto	u2254
  6106  0076E6                     u2255:
  6107  0076E6  90D8               	bcf	status,0,c
  6108  0076E8  3615               	rlcf	(??_LCDNokia5110_Initialize+1)^0,f,c
  6109  0076EA                     u2254:
  6110  0076EA  2E14               	decfsz	??_LCDNokia5110_Initialize^0,f,c
  6111  0076EC  EF73  F03B         	goto	u2255
  6112  0076F0  5015               	movf	(??_LCDNokia5110_Initialize+1)^0,w,c
  6113  0076F2  0AFF               	xorlw	255
  6114  0076F4  6E16               	movwf	(??_LCDNokia5110_Initialize+2)^0,c
  6115  0076F6  C09A  FFD9         	movff	_Nokia5110+2,fsr2l
  6116  0076FA  C09B  FFDA         	movff	_Nokia5110+3,fsr2h
  6117  0076FE  5016               	movf	(??_LCDNokia5110_Initialize+2)^0,w,c
  6118  007700  16DF               	andwf	indf2,f,c
  6119  007702                     
  6120                           ;LCDNokia5110.c: 51:     __nop(); __nop();
  6121  007702  F000               	nop	
  6122  007704  F000               	nop	
  6123  007706                     
  6124                           ;LCDNokia5110.c: 52:     (*(Nokia5110.PORT) |= (1 << (Nokia5110.RST)));
  6125  007706  C09C  F014         	movff	_Nokia5110+4,??_LCDNokia5110_Initialize
  6126  00770A  0E01               	movlw	1
  6127  00770C  6E15               	movwf	(??_LCDNokia5110_Initialize+1)^0,c
  6128  00770E  2A14               	incf	??_LCDNokia5110_Initialize^0,f,c
  6129  007710  EF8C  F03B         	goto	u2264
  6130  007714                     u2265:
  6131  007714  90D8               	bcf	status,0,c
  6132  007716  3615               	rlcf	(??_LCDNokia5110_Initialize+1)^0,f,c
  6133  007718                     u2264:
  6134  007718  2E14               	decfsz	??_LCDNokia5110_Initialize^0,f,c
  6135  00771A  EF8A  F03B         	goto	u2265
  6136  00771E  C09A  FFD9         	movff	_Nokia5110+2,fsr2l
  6137  007722  C09B  FFDA         	movff	_Nokia5110+3,fsr2h
  6138  007726  5015               	movf	(??_LCDNokia5110_Initialize+1)^0,w,c
  6139  007728  12DF               	iorwf	indf2,f,c
  6140  00772A                     
  6141                           ;LCDNokia5110.c: 54:     LCDNokia5110_Write(0, 0x21);
  6142  00772A  0E21               	movlw	33
  6143  00772C  6E06               	movwf	LCDNokia5110_Write@data^0,c
  6144  00772E  0E00               	movlw	0
  6145  007730  EC6E  F035         	call	_LCDNokia5110_Write
  6146  007734                     
  6147                           ;LCDNokia5110.c: 55:     LCDNokia5110_Write(0, 0xB0);
  6148  007734  0EB0               	movlw	176
  6149  007736  6E06               	movwf	LCDNokia5110_Write@data^0,c
  6150  007738  0E00               	movlw	0
  6151  00773A  EC6E  F035         	call	_LCDNokia5110_Write
  6152  00773E                     
  6153                           ;LCDNokia5110.c: 56:     LCDNokia5110_Write(0, 0x04);
  6154  00773E  0E04               	movlw	4
  6155  007740  6E06               	movwf	LCDNokia5110_Write@data^0,c
  6156  007742  0E00               	movlw	0
  6157  007744  EC6E  F035         	call	_LCDNokia5110_Write
  6158  007748                     
  6159                           ;LCDNokia5110.c: 57:     LCDNokia5110_Write(0, 0x14);
  6160  007748  0E14               	movlw	20
  6161  00774A  6E06               	movwf	LCDNokia5110_Write@data^0,c
  6162  00774C  0E00               	movlw	0
  6163  00774E  EC6E  F035         	call	_LCDNokia5110_Write
  6164  007752                     
  6165                           ;LCDNokia5110.c: 58:     LCDNokia5110_Write(0, 0x20);
  6166  007752  0E20               	movlw	32
  6167  007754  6E06               	movwf	LCDNokia5110_Write@data^0,c
  6168  007756  0E00               	movlw	0
  6169  007758  EC6E  F035         	call	_LCDNokia5110_Write
  6170  00775C                     
  6171                           ;LCDNokia5110.c: 59:     LCDNokia5110_Write(0, 0x0C);
  6172  00775C  0E0C               	movlw	12
  6173  00775E  6E06               	movwf	LCDNokia5110_Write@data^0,c
  6174  007760  0E00               	movlw	0
  6175  007762  EC6E  F035         	call	_LCDNokia5110_Write
  6176  007766  0012               	return		;funcret
  6177  007768                     __end_of_LCDNokia5110_Initialize:
  6178                           	callstack 0
  6179                           
  6180 ;; *************** function _LCDNokia5110_Clear *****************
  6181 ;; Defined at:
  6182 ;;		line 114 in file "LCDNokia5110.c"
  6183 ;; Parameters:    Size  Location     Type
  6184 ;;		None
  6185 ;; Auto vars:     Size  Location     Type
  6186 ;;  index           2   12[COMRAM] int 
  6187 ;; Return value:  Size  Location     Type
  6188 ;;                  1    wreg      void 
  6189 ;; Registers used:
  6190 ;;		wreg, fsr2l, fsr2h, status,2, status,0, cstack
  6191 ;; Tracked objects:
  6192 ;;		On entry : 0/0
  6193 ;;		On exit  : 0/0
  6194 ;;		Unchanged: 0/0
  6195 ;; Data sizes:     COMRAM   BANK0   BANK1   BANK2   BANK3   BANK4   BANK5
  6196 ;;      Params:         0       0       0       0       0       0       0
  6197 ;;      Locals:         2       0       0       0       0       0       0
  6198 ;;      Temps:          0       0       0       0       0       0       0
  6199 ;;      Totals:         2       0       0       0       0       0       0
  6200 ;;Total ram usage:        2 bytes
  6201 ;; Hardware stack levels used: 1
  6202 ;; Hardware stack levels required when called: 3
  6203 ;; This function calls:
  6204 ;;		_LCDNokia5110_GotoXY
  6205 ;;		_LCDNokia5110_Write
  6206 ;; This function is called by:
  6207 ;;		_DISPLAY_Initialize
  6208 ;; This function uses a non-reentrant model
  6209 ;;
  6210                           
  6211                           	psect	text40
  6212  006548                     __ptext40:
  6213                           	callstack 0
  6214  006548                     _LCDNokia5110_Clear:
  6215                           	callstack 26
  6216  006548                     
  6217                           ;LCDNokia5110.c: 115:     for(int index = 0; index < (84 * 48 / 8); index++)
  6218  006548  0E00               	movlw	0
  6219  00654A  6E0E               	movwf	(LCDNokia5110_Clear@index+1)^0,c
  6220  00654C  0E00               	movlw	0
  6221  00654E  6E0D               	movwf	LCDNokia5110_Clear@index^0,c
  6222  006550                     l2534:
  6223                           
  6224                           ;LCDNokia5110.c: 116:         LCDNokia5110_Write(1, 0x00);
  6225  006550  0E00               	movlw	0
  6226  006552  6E06               	movwf	LCDNokia5110_Write@data^0,c
  6227  006554  0E01               	movlw	1
  6228  006556  EC6E  F035         	call	_LCDNokia5110_Write
  6229  00655A  4A0D               	infsnz	LCDNokia5110_Clear@index^0,f,c
  6230  00655C  2A0E               	incf	(LCDNokia5110_Clear@index+1)^0,f,c
  6231  00655E  BE0E               	btfsc	(LCDNokia5110_Clear@index+1)^0,7,c
  6232  006560  EFBB  F032         	goto	u2271
  6233  006564  0EF8               	movlw	248
  6234  006566  5C0D               	subwf	LCDNokia5110_Clear@index^0,w,c
  6235  006568  0E01               	movlw	1
  6236  00656A  580E               	subwfb	(LCDNokia5110_Clear@index+1)^0,w,c
  6237  00656C  A0D8               	btfss	status,0,c
  6238  00656E  EFBB  F032         	goto	u2271
  6239  006572  EFBD  F032         	goto	u2270
  6240  006576                     u2271:
  6241  006576  EFA8  F032         	goto	l2534
  6242  00657A                     u2270:
  6243  00657A                     
  6244                           ;LCDNokia5110.c: 117:     LCDNokia5110_GotoXY(0, 0);
  6245  00657A  0E00               	movlw	0
  6246  00657C  6E0B               	movwf	LCDNokia5110_GotoXY@y^0,c
  6247  00657E  0E00               	movlw	0
  6248  006580  ECCC  F031         	call	_LCDNokia5110_GotoXY
  6249  006584  0012               	return		;funcret
  6250  006586                     __end_of_LCDNokia5110_Clear:
  6251                           	callstack 0
  6252                           
  6253 ;; *************** function _LCDNokia5110_GotoXY *****************
  6254 ;; Defined at:
  6255 ;;		line 129 in file "LCDNokia5110.c"
  6256 ;; Parameters:    Size  Location     Type
  6257 ;;  x               1    wreg     unsigned char 
  6258 ;;  y               1   10[COMRAM] unsigned char 
  6259 ;; Auto vars:     Size  Location     Type
  6260 ;;  x               1   11[COMRAM] unsigned char 
  6261 ;; Return value:  Size  Location     Type
  6262 ;;                  1    wreg      void 
  6263 ;; Registers used:
  6264 ;;		wreg, fsr2l, fsr2h, status,2, status,0, cstack
  6265 ;; Tracked objects:
  6266 ;;		On entry : 0/0
  6267 ;;		On exit  : 0/0
  6268 ;;		Unchanged: 0/0
  6269 ;; Data sizes:     COMRAM   BANK0   BANK1   BANK2   BANK3   BANK4   BANK5
  6270 ;;      Params:         1       0       0       0       0       0       0
  6271 ;;      Locals:         1       0       0       0       0       0       0
  6272 ;;      Temps:          0       0       0       0       0       0       0
  6273 ;;      Totals:         2       0       0       0       0       0       0
  6274 ;;Total ram usage:        2 bytes
  6275 ;; Hardware stack levels used: 1
  6276 ;; Hardware stack levels required when called: 2
  6277 ;; This function calls:
  6278 ;;		_LCDNokia5110_Write
  6279 ;; This function is called by:
  6280 ;;		_LCDNokia5110_Clear
  6281 ;;		_LCDNokia5110_putStr
  6282 ;;		_LCDNokia5110_Image
  6283 ;;		_LCDNokia5110_Bitmap
  6284 ;; This function uses a non-reentrant model
  6285 ;;
  6286                           
  6287                           	psect	text41
  6288  006398                     __ptext41:
  6289                           	callstack 0
  6290  006398                     _LCDNokia5110_GotoXY:
  6291                           	callstack 27
  6292                           
  6293                           ;incstack = 0
  6294                           ;LCDNokia5110_GotoXY@x stored from wreg
  6295  006398  6E0C               	movwf	LCDNokia5110_GotoXY@x^0,c
  6296  00639A                     
  6297                           ;LCDNokia5110.c: 130:     LCDNokia5110_Write(0, 0x80 | x);
  6298  00639A  500C               	movf	LCDNokia5110_GotoXY@x^0,w,c
  6299  00639C  0980               	iorlw	128
  6300  00639E  6E06               	movwf	LCDNokia5110_Write@data^0,c
  6301  0063A0  0E00               	movlw	0
  6302  0063A2  EC6E  F035         	call	_LCDNokia5110_Write
  6303                           
  6304                           ;LCDNokia5110.c: 131:     LCDNokia5110_Write(0, 0x40 | y);
  6305  0063A6  500B               	movf	LCDNokia5110_GotoXY@y^0,w,c
  6306  0063A8  0940               	iorlw	64
  6307  0063AA  6E06               	movwf	LCDNokia5110_Write@data^0,c
  6308  0063AC  0E00               	movlw	0
  6309  0063AE  EC6E  F035         	call	_LCDNokia5110_Write
  6310  0063B2  0012               	return		;funcret
  6311  0063B4                     __end_of_LCDNokia5110_GotoXY:
  6312                           	callstack 0
  6313                           
  6314 ;; *************** function _LCDNokia5110_Write *****************
  6315 ;; Defined at:
  6316 ;;		line 73 in file "LCDNokia5110.c"
  6317 ;; Parameters:    Size  Location     Type
  6318 ;;  mode            1    wreg     unsigned char 
  6319 ;;  data            1    5[COMRAM] unsigned char 
  6320 ;; Auto vars:     Size  Location     Type
  6321 ;;  mode            1    9[COMRAM] unsigned char 
  6322 ;; Return value:  Size  Location     Type
  6323 ;;                  1    wreg      void 
  6324 ;; Registers used:
  6325 ;;		wreg, fsr2l, fsr2h, status,2, status,0, cstack
  6326 ;; Tracked objects:
  6327 ;;		On entry : 0/0
  6328 ;;		On exit  : 0/0
  6329 ;;		Unchanged: 0/0
  6330 ;; Data sizes:     COMRAM   BANK0   BANK1   BANK2   BANK3   BANK4   BANK5
  6331 ;;      Params:         1       0       0       0       0       0       0
  6332 ;;      Locals:         1       0       0       0       0       0       0
  6333 ;;      Temps:          3       0       0       0       0       0       0
  6334 ;;      Totals:         5       0       0       0       0       0       0
  6335 ;;Total ram usage:        5 bytes
  6336 ;; Hardware stack levels used: 1
  6337 ;; Hardware stack levels required when called: 1
  6338 ;; This function calls:
  6339 ;;		_LCDNokia5110_WriteSPI
  6340 ;; This function is called by:
  6341 ;;		_LCDNokia5110_Initialize
  6342 ;;		_LCDNokia5110_Clear
  6343 ;;		_LCDNokia5110_GotoXY
  6344 ;;		_LCDNokia5110_putC
  6345 ;;		_LCDNokia5110_Image
  6346 ;;		_LCDNokia5110_Bitmap
  6347 ;; This function uses a non-reentrant model
  6348 ;;
  6349                           
  6350                           	psect	text42
  6351  006ADC                     __ptext42:
  6352                           	callstack 0
  6353  006ADC                     _LCDNokia5110_Write:
  6354                           	callstack 27
  6355                           
  6356                           ;incstack = 0
  6357                           ;LCDNokia5110_Write@mode stored from wreg
  6358  006ADC  6E0A               	movwf	LCDNokia5110_Write@mode^0,c
  6359  006ADE                     
  6360                           ;LCDNokia5110.c: 74:     if(mode == 1)
  6361  006ADE  040A               	decf	LCDNokia5110_Write@mode^0,w,c
  6362  006AE0  A4D8               	btfss	status,2,c
  6363  006AE2  EF75  F035         	goto	u1741
  6364  006AE6  EF77  F035         	goto	u1740
  6365  006AEA                     u1741:
  6366  006AEA  EF8B  F035         	goto	l2214
  6367  006AEE                     u1740:
  6368  006AEE                     
  6369                           ;LCDNokia5110.c: 75:         (*(Nokia5110.PORT) |= (1 << (Nokia5110.DC)));
  6370  006AEE  C09E  F007         	movff	_Nokia5110+6,??_LCDNokia5110_Write
  6371  006AF2  0E01               	movlw	1
  6372  006AF4  6E08               	movwf	(??_LCDNokia5110_Write+1)^0,c
  6373  006AF6  2A07               	incf	??_LCDNokia5110_Write^0,f,c
  6374  006AF8  EF80  F035         	goto	u1754
  6375  006AFC                     u1755:
  6376  006AFC  90D8               	bcf	status,0,c
  6377  006AFE  3608               	rlcf	(??_LCDNokia5110_Write+1)^0,f,c
  6378  006B00                     u1754:
  6379  006B00  2E07               	decfsz	??_LCDNokia5110_Write^0,f,c
  6380  006B02  EF7E  F035         	goto	u1755
  6381  006B06  C09A  FFD9         	movff	_Nokia5110+2,fsr2l
  6382  006B0A  C09B  FFDA         	movff	_Nokia5110+3,fsr2h
  6383  006B0E  5008               	movf	(??_LCDNokia5110_Write+1)^0,w,c
  6384  006B10  12DF               	iorwf	indf2,f,c
  6385  006B12  EFA0  F035         	goto	l245
  6386  006B16                     l2214:
  6387                           
  6388                           ;LCDNokia5110.c: 77:         (*(Nokia5110.PORT) &= ~(1 << (Nokia5110.DC)));
  6389  006B16  C09E  F007         	movff	_Nokia5110+6,??_LCDNokia5110_Write
  6390  006B1A  0E01               	movlw	1
  6391  006B1C  6E08               	movwf	(??_LCDNokia5110_Write+1)^0,c
  6392  006B1E  2A07               	incf	??_LCDNokia5110_Write^0,f,c
  6393  006B20  EF94  F035         	goto	u1764
  6394  006B24                     u1765:
  6395  006B24  90D8               	bcf	status,0,c
  6396  006B26  3608               	rlcf	(??_LCDNokia5110_Write+1)^0,f,c
  6397  006B28                     u1764:
  6398  006B28  2E07               	decfsz	??_LCDNokia5110_Write^0,f,c
  6399  006B2A  EF92  F035         	goto	u1765
  6400  006B2E  5008               	movf	(??_LCDNokia5110_Write+1)^0,w,c
  6401  006B30  0AFF               	xorlw	255
  6402  006B32  6E09               	movwf	(??_LCDNokia5110_Write+2)^0,c
  6403  006B34  C09A  FFD9         	movff	_Nokia5110+2,fsr2l
  6404  006B38  C09B  FFDA         	movff	_Nokia5110+3,fsr2h
  6405  006B3C  5009               	movf	(??_LCDNokia5110_Write+2)^0,w,c
  6406  006B3E  16DF               	andwf	indf2,f,c
  6407  006B40                     l245:
  6408                           
  6409                           ;LCDNokia5110.c: 80:     (*(Nokia5110.PORT) &= ~(1 << (Nokia5110.CE)));
  6410  006B40  C09D  F007         	movff	_Nokia5110+5,??_LCDNokia5110_Write
  6411  006B44  0E01               	movlw	1
  6412  006B46  6E08               	movwf	(??_LCDNokia5110_Write+1)^0,c
  6413  006B48  2A07               	incf	??_LCDNokia5110_Write^0,f,c
  6414  006B4A  EFA9  F035         	goto	u1774
  6415  006B4E                     u1775:
  6416  006B4E  90D8               	bcf	status,0,c
  6417  006B50  3608               	rlcf	(??_LCDNokia5110_Write+1)^0,f,c
  6418  006B52                     u1774:
  6419  006B52  2E07               	decfsz	??_LCDNokia5110_Write^0,f,c
  6420  006B54  EFA7  F035         	goto	u1775
  6421  006B58  5008               	movf	(??_LCDNokia5110_Write+1)^0,w,c
  6422  006B5A  0AFF               	xorlw	255
  6423  006B5C  6E09               	movwf	(??_LCDNokia5110_Write+2)^0,c
  6424  006B5E  C09A  FFD9         	movff	_Nokia5110+2,fsr2l
  6425  006B62  C09B  FFDA         	movff	_Nokia5110+3,fsr2h
  6426  006B66  5009               	movf	(??_LCDNokia5110_Write+2)^0,w,c
  6427  006B68  16DF               	andwf	indf2,f,c
  6428  006B6A                     
  6429                           ;LCDNokia5110.c: 81:     LCDNokia5110_WriteSPI(data);
  6430  006B6A  5006               	movf	LCDNokia5110_Write@data^0,w,c
  6431  006B6C  EC93  F036         	call	_LCDNokia5110_WriteSPI
  6432  006B70                     
  6433                           ;LCDNokia5110.c: 82:     (*(Nokia5110.PORT) |= (1 << (Nokia5110.CE)));
  6434  006B70  C09D  F007         	movff	_Nokia5110+5,??_LCDNokia5110_Write
  6435  006B74  0E01               	movlw	1
  6436  006B76  6E08               	movwf	(??_LCDNokia5110_Write+1)^0,c
  6437  006B78  2A07               	incf	??_LCDNokia5110_Write^0,f,c
  6438  006B7A  EFC1  F035         	goto	u1784
  6439  006B7E                     u1785:
  6440  006B7E  90D8               	bcf	status,0,c
  6441  006B80  3608               	rlcf	(??_LCDNokia5110_Write+1)^0,f,c
  6442  006B82                     u1784:
  6443  006B82  2E07               	decfsz	??_LCDNokia5110_Write^0,f,c
  6444  006B84  EFBF  F035         	goto	u1785
  6445  006B88  C09A  FFD9         	movff	_Nokia5110+2,fsr2l
  6446  006B8C  C09B  FFDA         	movff	_Nokia5110+3,fsr2h
  6447  006B90  5008               	movf	(??_LCDNokia5110_Write+1)^0,w,c
  6448  006B92  12DF               	iorwf	indf2,f,c
  6449  006B94  0012               	return		;funcret
  6450  006B96                     __end_of_LCDNokia5110_Write:
  6451                           	callstack 0
  6452                           
  6453 ;; *************** function _LCDNokia5110_WriteSPI *****************
  6454 ;; Defined at:
  6455 ;;		line 94 in file "LCDNokia5110.c"
  6456 ;; Parameters:    Size  Location     Type
  6457 ;;  outData         1    wreg     unsigned char 
  6458 ;; Auto vars:     Size  Location     Type
  6459 ;;  outData         1    3[COMRAM] unsigned char 
  6460 ;;  i               1    4[COMRAM] unsigned char 
  6461 ;; Return value:  Size  Location     Type
  6462 ;;                  1    wreg      void 
  6463 ;; Registers used:
  6464 ;;		wreg, fsr2l, fsr2h, status,2, status,0
  6465 ;; Tracked objects:
  6466 ;;		On entry : 0/0
  6467 ;;		On exit  : 0/0
  6468 ;;		Unchanged: 0/0
  6469 ;; Data sizes:     COMRAM   BANK0   BANK1   BANK2   BANK3   BANK4   BANK5
  6470 ;;      Params:         0       0       0       0       0       0       0
  6471 ;;      Locals:         2       0       0       0       0       0       0
  6472 ;;      Temps:          3       0       0       0       0       0       0
  6473 ;;      Totals:         5       0       0       0       0       0       0
  6474 ;;Total ram usage:        5 bytes
  6475 ;; Hardware stack levels used: 1
  6476 ;; This function calls:
  6477 ;;		Nothing
  6478 ;; This function is called by:
  6479 ;;		_LCDNokia5110_Write
  6480 ;; This function uses a non-reentrant model
  6481 ;;
  6482                           
  6483                           	psect	text43
  6484  006D26                     __ptext43:
  6485                           	callstack 0
  6486  006D26                     _LCDNokia5110_WriteSPI:
  6487                           	callstack 27
  6488                           
  6489                           ;incstack = 0
  6490                           ;LCDNokia5110_WriteSPI@outData stored from wreg
  6491  006D26  6E04               	movwf	LCDNokia5110_WriteSPI@outData^0,c
  6492  006D28                     
  6493                           ;LCDNokia5110.c: 95:     for(uint8_t i = 0; i < 8; i++){
  6494  006D28  0E00               	movlw	0
  6495  006D2A  6E05               	movwf	LCDNokia5110_WriteSPI@i^0,c
  6496  006D2C                     l2044:
  6497                           
  6498                           ;LCDNokia5110.c: 96:         (*(Nokia5110.PORT) &= ~(1 << (Nokia5110.CLK)));
  6499  006D2C  C0A0  F001         	movff	_Nokia5110+8,??_LCDNokia5110_WriteSPI
  6500  006D30  0E01               	movlw	1
  6501  006D32  6E02               	movwf	(??_LCDNokia5110_WriteSPI+1)^0,c
  6502  006D34  2A01               	incf	??_LCDNokia5110_WriteSPI^0,f,c
  6503  006D36  EF9F  F036         	goto	u1444
  6504  006D3A                     u1445:
  6505  006D3A  90D8               	bcf	status,0,c
  6506  006D3C  3602               	rlcf	(??_LCDNokia5110_WriteSPI+1)^0,f,c
  6507  006D3E                     u1444:
  6508  006D3E  2E01               	decfsz	??_LCDNokia5110_WriteSPI^0,f,c
  6509  006D40  EF9D  F036         	goto	u1445
  6510  006D44  5002               	movf	(??_LCDNokia5110_WriteSPI+1)^0,w,c
  6511  006D46  0AFF               	xorlw	255
  6512  006D48  6E03               	movwf	(??_LCDNokia5110_WriteSPI+2)^0,c
  6513  006D4A  C09A  FFD9         	movff	_Nokia5110+2,fsr2l
  6514  006D4E  C09B  FFDA         	movff	_Nokia5110+3,fsr2h
  6515  006D52  5003               	movf	(??_LCDNokia5110_WriteSPI+2)^0,w,c
  6516  006D54  16DF               	andwf	indf2,f,c
  6517  006D56                     
  6518                           ;LCDNokia5110.c: 97:         if ((outData & 0x80) == 0)
  6519  006D56  BE04               	btfsc	LCDNokia5110_WriteSPI@outData^0,7,c
  6520  006D58  EFB0  F036         	goto	u1451
  6521  006D5C  EFB2  F036         	goto	u1450
  6522  006D60                     u1451:
  6523  006D60  EFC9  F036         	goto	l2050
  6524  006D64                     u1450:
  6525  006D64                     
  6526                           ;LCDNokia5110.c: 98:             (*(Nokia5110.PORT) &= ~(1 << (Nokia5110.DIN)));
  6527  006D64  C09F  F001         	movff	_Nokia5110+7,??_LCDNokia5110_WriteSPI
  6528  006D68  0E01               	movlw	1
  6529  006D6A  6E02               	movwf	(??_LCDNokia5110_WriteSPI+1)^0,c
  6530  006D6C  2A01               	incf	??_LCDNokia5110_WriteSPI^0,f,c
  6531  006D6E  EFBB  F036         	goto	u1464
  6532  006D72                     u1465:
  6533  006D72  90D8               	bcf	status,0,c
  6534  006D74  3602               	rlcf	(??_LCDNokia5110_WriteSPI+1)^0,f,c
  6535  006D76                     u1464:
  6536  006D76  2E01               	decfsz	??_LCDNokia5110_WriteSPI^0,f,c
  6537  006D78  EFB9  F036         	goto	u1465
  6538  006D7C  5002               	movf	(??_LCDNokia5110_WriteSPI+1)^0,w,c
  6539  006D7E  0AFF               	xorlw	255
  6540  006D80  6E03               	movwf	(??_LCDNokia5110_WriteSPI+2)^0,c
  6541  006D82  C09A  FFD9         	movff	_Nokia5110+2,fsr2l
  6542  006D86  C09B  FFDA         	movff	_Nokia5110+3,fsr2h
  6543  006D8A  5003               	movf	(??_LCDNokia5110_WriteSPI+2)^0,w,c
  6544  006D8C  16DF               	andwf	indf2,f,c
  6545  006D8E  EFDB  F036         	goto	l252
  6546  006D92                     l2050:
  6547                           
  6548                           ;LCDNokia5110.c: 100:             (*(Nokia5110.PORT) |= (1 << (Nokia5110.DIN)));
  6549  006D92  C09F  F001         	movff	_Nokia5110+7,??_LCDNokia5110_WriteSPI
  6550  006D96  0E01               	movlw	1
  6551  006D98  6E02               	movwf	(??_LCDNokia5110_WriteSPI+1)^0,c
  6552  006D9A  2A01               	incf	??_LCDNokia5110_WriteSPI^0,f,c
  6553  006D9C  EFD2  F036         	goto	u1474
  6554  006DA0                     u1475:
  6555  006DA0  90D8               	bcf	status,0,c
  6556  006DA2  3602               	rlcf	(??_LCDNokia5110_WriteSPI+1)^0,f,c
  6557  006DA4                     u1474:
  6558  006DA4  2E01               	decfsz	??_LCDNokia5110_WriteSPI^0,f,c
  6559  006DA6  EFD0  F036         	goto	u1475
  6560  006DAA  C09A  FFD9         	movff	_Nokia5110+2,fsr2l
  6561  006DAE  C09B  FFDA         	movff	_Nokia5110+3,fsr2h
  6562  006DB2  5002               	movf	(??_LCDNokia5110_WriteSPI+1)^0,w,c
  6563  006DB4  12DF               	iorwf	indf2,f,c
  6564  006DB6                     l252:
  6565                           
  6566                           ;LCDNokia5110.c: 101:         (*(Nokia5110.PORT) |= (1 << (Nokia5110.CLK)));
  6567  006DB6  C0A0  F001         	movff	_Nokia5110+8,??_LCDNokia5110_WriteSPI
  6568  006DBA  0E01               	movlw	1
  6569  006DBC  6E02               	movwf	(??_LCDNokia5110_WriteSPI+1)^0,c
  6570  006DBE  2A01               	incf	??_LCDNokia5110_WriteSPI^0,f,c
  6571  006DC0  EFE4  F036         	goto	u1484
  6572  006DC4                     u1485:
  6573  006DC4  90D8               	bcf	status,0,c
  6574  006DC6  3602               	rlcf	(??_LCDNokia5110_WriteSPI+1)^0,f,c
  6575  006DC8                     u1484:
  6576  006DC8  2E01               	decfsz	??_LCDNokia5110_WriteSPI^0,f,c
  6577  006DCA  EFE2  F036         	goto	u1485
  6578  006DCE  C09A  FFD9         	movff	_Nokia5110+2,fsr2l
  6579  006DD2  C09B  FFDA         	movff	_Nokia5110+3,fsr2h
  6580  006DD6  5002               	movf	(??_LCDNokia5110_WriteSPI+1)^0,w,c
  6581  006DD8  12DF               	iorwf	indf2,f,c
  6582  006DDA                     
  6583                           ;LCDNokia5110.c: 102:         outData <<= 1;
  6584  006DDA  90D8               	bcf	status,0,c
  6585  006DDC  3604               	rlcf	LCDNokia5110_WriteSPI@outData^0,f,c
  6586  006DDE                     
  6587                           ;LCDNokia5110.c: 103:     }
  6588  006DDE  2A05               	incf	LCDNokia5110_WriteSPI@i^0,f,c
  6589  006DE0  0E07               	movlw	7
  6590  006DE2  6405               	cpfsgt	LCDNokia5110_WriteSPI@i^0,c
  6591  006DE4  EFF6  F036         	goto	u1491
  6592  006DE8  EFF8  F036         	goto	u1490
  6593  006DEC                     u1491:
  6594  006DEC  EF96  F036         	goto	l2044
  6595  006DF0                     u1490:
  6596  006DF0  0012               	return		;funcret
  6597  006DF2                     __end_of_LCDNokia5110_WriteSPI:
  6598                           	callstack 0
  6599                           
  6600                           	psect	rparam
  6601  0000                     
  6602                           	psect	idloc
  6603                           
  6604                           ;Config register IDLOC0 @ 0x200000
  6605                           ;	unspecified, using default values
  6606  200000                     	org	2097152
  6607  200000  FF                 	db	255
  6608                           
  6609                           ;Config register IDLOC1 @ 0x200001
  6610                           ;	unspecified, using default values
  6611  200001                     	org	2097153
  6612  200001  FF                 	db	255
  6613                           
  6614                           ;Config register IDLOC2 @ 0x200002
  6615                           ;	unspecified, using default values
  6616  200002                     	org	2097154
  6617  200002  FF                 	db	255
  6618                           
  6619                           ;Config register IDLOC3 @ 0x200003
  6620                           ;	unspecified, using default values
  6621  200003                     	org	2097155
  6622  200003  FF                 	db	255
  6623                           
  6624                           ;Config register IDLOC4 @ 0x200004
  6625                           ;	unspecified, using default values
  6626  200004                     	org	2097156
  6627  200004  FF                 	db	255
  6628                           
  6629                           ;Config register IDLOC5 @ 0x200005
  6630                           ;	unspecified, using default values
  6631  200005                     	org	2097157
  6632  200005  FF                 	db	255
  6633                           
  6634                           ;Config register IDLOC6 @ 0x200006
  6635                           ;	unspecified, using default values
  6636  200006                     	org	2097158
  6637  200006  FF                 	db	255
  6638                           
  6639                           ;Config register IDLOC7 @ 0x200007
  6640                           ;	unspecified, using default values
  6641  200007                     	org	2097159
  6642  200007  FF                 	db	255
  6643                           
  6644                           	psect	config
  6645                           
  6646                           ; Padding undefined space
  6647  300000                     	org	3145728
  6648  300000  FF                 	db	255
  6649                           
  6650                           ;Config register CONFIG1H @ 0x300001
  6651                           ;	Oscillator Selection bits
  6652                           ;	FOSC = INTIO67, Internal oscillator block
  6653                           ;	4X PLL Enable
  6654                           ;	PLLCFG = OFF, Oscillator used directly
  6655                           ;	Primary clock enable bit
  6656                           ;	PRICLKEN = ON, Primary clock enabled
  6657                           ;	Fail-Safe Clock Monitor Enable bit
  6658                           ;	FCMEN = OFF, Fail-Safe Clock Monitor disabled
  6659                           ;	Internal/External Oscillator Switchover bit
  6660                           ;	IESO = OFF, Oscillator Switchover mode disabled
  6661  300001                     	org	3145729
  6662  300001  28                 	db	40
  6663                           
  6664                           ;Config register CONFIG2L @ 0x300002
  6665                           ;	Power-up Timer Enable bit
  6666                           ;	PWRTEN = OFF, Power up timer disabled
  6667                           ;	Brown-out Reset Enable bits
  6668                           ;	BOREN = OFF, Brown-out Reset disabled in hardware and software
  6669                           ;	Brown Out Reset Voltage bits
  6670                           ;	BORV = 190, VBOR set to 1.90 V nominal
  6671  300002                     	org	3145730
  6672  300002  19                 	db	25
  6673                           
  6674                           ;Config register CONFIG2H @ 0x300003
  6675                           ;	Watchdog Timer Enable bits
  6676                           ;	WDTEN = OFF, Watch dog timer is always disabled. SWDTEN has no effect.
  6677                           ;	Watchdog Timer Postscale Select bits
  6678                           ;	WDTPS = 32768, 1:32768
  6679  300003                     	org	3145731
  6680  300003  3C                 	db	60
  6681                           
  6682                           ; Padding undefined space
  6683  300004                     	org	3145732
  6684  300004  FF                 	db	255
  6685                           
  6686                           ;Config register CONFIG3H @ 0x300005
  6687                           ;	CCP2 MUX bit
  6688                           ;	CCP2MX = PORTC1, CCP2 input/output is multiplexed with RC1
  6689                           ;	PORTB A/D Enable bit
  6690                           ;	PBADEN = OFF, PORTB<5:0> pins are configured as digital I/O on Reset
  6691                           ;	P3A/CCP3 Mux bit
  6692                           ;	CCP3MX = PORTB5, P3A/CCP3 input/output is multiplexed with RB5
  6693                           ;	HFINTOSC Fast Start-up
  6694                           ;	HFOFST = OFF, HFINTOSC output and ready status are delayed by the oscillator stable st
      +                          atus
  6695                           ;	Timer3 Clock input mux bit
  6696                           ;	T3CMX = PORTC0, T3CKI is on RC0
  6697                           ;	ECCP2 B output mux bit
  6698                           ;	P2BMX = PORTB5, P2B is on RB5
  6699                           ;	MCLR Pin Enable bit
  6700                           ;	MCLRE = EXTMCLR, MCLR pin enabled, RE3 input pin disabled
  6701  300005                     	org	3145733
  6702  300005  B5                 	db	181
  6703                           
  6704                           ;Config register CONFIG4L @ 0x300006
  6705                           ;	Stack Full/Underflow Reset Enable bit
  6706                           ;	STVREN = ON, Stack full/underflow will cause Reset
  6707                           ;	Single-Supply ICSP Enable bit
  6708                           ;	LVP = OFF, Single-Supply ICSP disabled
  6709                           ;	Extended Instruction Set Enable bit
  6710                           ;	XINST = OFF, Instruction set extension and Indexed Addressing mode disabled (Legacy mo
      +                          de)
  6711                           ;	Background Debug
  6712                           ;	DEBUG = 0x1, unprogrammed default
  6713  300006                     	org	3145734
  6714  300006  81                 	db	129
  6715                           
  6716                           ; Padding undefined space
  6717  300007                     	org	3145735
  6718  300007  FF                 	db	255
  6719                           
  6720                           ;Config register CONFIG5L @ 0x300008
  6721                           ;	Code Protection Block 0
  6722                           ;	CP0 = OFF, Block 0 (000800-001FFFh) not code-protected
  6723                           ;	Code Protection Block 1
  6724                           ;	CP1 = OFF, Block 1 (002000-003FFFh) not code-protected
  6725                           ;	Code Protection Block 2
  6726                           ;	CP2 = OFF, Block 2 (004000-005FFFh) not code-protected
  6727                           ;	Code Protection Block 3
  6728                           ;	CP3 = OFF, Block 3 (006000-007FFFh) not code-protected
  6729  300008                     	org	3145736
  6730  300008  0F                 	db	15
  6731                           
  6732                           ;Config register CONFIG5H @ 0x300009
  6733                           ;	Boot Block Code Protection bit
  6734                           ;	CPB = OFF, Boot block (000000-0007FFh) not code-protected
  6735                           ;	Data EEPROM Code Protection bit
  6736                           ;	CPD = OFF, Data EEPROM not code-protected
  6737  300009                     	org	3145737
  6738  300009  C0                 	db	192
  6739                           
  6740                           ;Config register CONFIG6L @ 0x30000A
  6741                           ;	Write Protection Block 0
  6742                           ;	WRT0 = OFF, Block 0 (000800-001FFFh) not write-protected
  6743                           ;	Write Protection Block 1
  6744                           ;	WRT1 = OFF, Block 1 (002000-003FFFh) not write-protected
  6745                           ;	Write Protection Block 2
  6746                           ;	WRT2 = OFF, Block 2 (004000-005FFFh) not write-protected
  6747                           ;	Write Protection Block 3
  6748                           ;	WRT3 = OFF, Block 3 (006000-007FFFh) not write-protected
  6749  30000A                     	org	3145738
  6750  30000A  0F                 	db	15
  6751                           
  6752                           ;Config register CONFIG6H @ 0x30000B
  6753                           ;	Configuration Register Write Protection bit
  6754                           ;	WRTC = OFF, Configuration registers (300000-3000FFh) not write-protected
  6755                           ;	Boot Block Write Protection bit
  6756                           ;	WRTB = OFF, Boot Block (000000-0007FFh) not write-protected
  6757                           ;	Data EEPROM Write Protection bit
  6758                           ;	WRTD = OFF, Data EEPROM not write-protected
  6759  30000B                     	org	3145739
  6760  30000B  E0                 	db	224
  6761                           
  6762                           ;Config register CONFIG7L @ 0x30000C
  6763                           ;	Table Read Protection Block 0
  6764                           ;	EBTR0 = OFF, Block 0 (000800-001FFFh) not protected from table reads executed in other
      +                           blocks
  6765                           ;	Table Read Protection Block 1
  6766                           ;	EBTR1 = OFF, Block 1 (002000-003FFFh) not protected from table reads executed in other
      +                           blocks
  6767                           ;	Table Read Protection Block 2
  6768                           ;	EBTR2 = OFF, Block 2 (004000-005FFFh) not protected from table reads executed in other
      +                           blocks
  6769                           ;	Table Read Protection Block 3
  6770                           ;	EBTR3 = OFF, Block 3 (006000-007FFFh) not protected from table reads executed in other
      +                           blocks
  6771  30000C                     	org	3145740
  6772  30000C  0F                 	db	15
  6773                           
  6774                           ;Config register CONFIG7H @ 0x30000D
  6775                           ;	Boot Block Table Read Protection bit
  6776                           ;	EBTRB = OFF, Boot Block (000000-0007FFh) not protected from table reads executed in ot
      +                          her blocks
  6777  30000D                     	org	3145741
  6778  30000D  40                 	db	64
  6779                           tosu	equ	0xFFF
  6780                           tosh	equ	0xFFE
  6781                           tosl	equ	0xFFD
  6782                           stkptr	equ	0xFFC
  6783                           pclatu	equ	0xFFB
  6784                           pclath	equ	0xFFA
  6785                           pcl	equ	0xFF9
  6786                           tblptru	equ	0xFF8
  6787                           tblptrh	equ	0xFF7
  6788                           tblptrl	equ	0xFF6
  6789                           tablat	equ	0xFF5
  6790                           prodh	equ	0xFF4
  6791                           prodl	equ	0xFF3
  6792                           indf0	equ	0xFEF
  6793                           postinc0	equ	0xFEE
  6794                           postdec0	equ	0xFED
  6795                           preinc0	equ	0xFEC
  6796                           plusw0	equ	0xFEB
  6797                           fsr0h	equ	0xFEA
  6798                           fsr0l	equ	0xFE9
  6799                           wreg	equ	0xFE8
  6800                           indf1	equ	0xFE7
  6801                           postinc1	equ	0xFE6
  6802                           postdec1	equ	0xFE5
  6803                           preinc1	equ	0xFE4
  6804                           plusw1	equ	0xFE3
  6805                           fsr1h	equ	0xFE2
  6806                           fsr1l	equ	0xFE1
  6807                           bsr	equ	0xFE0
  6808                           indf2	equ	0xFDF
  6809                           postinc2	equ	0xFDE
  6810                           postdec2	equ	0xFDD
  6811                           preinc2	equ	0xFDC
  6812                           plusw2	equ	0xFDB
  6813                           fsr2h	equ	0xFDA
  6814                           fsr2l	equ	0xFD9
  6815                           status	equ	0xFD8

Data Sizes:
    Strings     120
    Constant    480
    Data        9
    BSS         51
    Persistent  0
    Stack       0

Auto Spaces:
    Space          Size  Autos    Used
    COMRAM           95     93      95
    BANK0           160     56     114
    BANK1           256      0       0
    BANK2           256      0       0
    BANK3           256      0       0
    BANK4           256      0       0
    BANK5           256      0       0

Pointer List with Targets:

    strlen@s	PTR const unsigned char  size(2) Largest target is 32
		 -> dbuf(BANK0[32]), 

    strlen@a	PTR const unsigned char  size(2) Largest target is 32
		 -> dbuf(BANK0[32]), 

    fputs@s	PTR const unsigned char  size(2) Largest target is 32
		 -> dbuf(BANK0[32]), 

    fputs@fp	PTR struct _IO_FILE size(2) Largest target is 11
		 -> sprintf@f(BANK0[11]), 

    fputc@fp...source	PTR const unsigned char  size(2) Largest target is 0

    fputc@fp...buffer	PTR unsigned char  size(2) Largest target is 0

    fputc@fp	PTR struct _IO_FILE size(2) Largest target is 11
		 -> sprintf@f(BANK0[11]), 

    atoi@s	PTR const unsigned char  size(2) Largest target is 15
		 -> STR_2(CODE[15]), STR_1(CODE[15]), 

    vfprintf@ap	PTR PTR void  size(2) Largest target is 2
		 -> sprintf@ap(BANK0[2]), 

    vfprintf@fp	PTR struct _IO_FILE size(2) Largest target is 11
		 -> sprintf@f(BANK0[11]), 

    vfprintf@fmt	PTR const unsigned char  size(2) Largest target is 15
		 -> STR_2(CODE[15]), STR_1(CODE[15]), 

    vfprintf@cfmt	PTR unsigned char  size(2) Largest target is 15
		 -> STR_2(CODE[15]), STR_1(CODE[15]), 

    vfpfcnvrt@fp	PTR struct _IO_FILE size(2) Largest target is 11
		 -> sprintf@f(BANK0[11]), 

    vfpfcnvrt@ap	PTR PTR void  size(2) Largest target is 2
		 -> sprintf@ap(BANK0[2]), 

    vfpfcnvrt@fmt	PTR PTR unsigned char  size(2) Largest target is 2
		 -> vfprintf@cfmt(COMRAM[2]), 

    dtoa@fp	PTR struct _IO_FILE size(2) Largest target is 11
		 -> sprintf@f(BANK0[11]), 

    pad@fp	PTR struct _IO_FILE size(2) Largest target is 11
		 -> sprintf@f(BANK0[11]), 

    pad@buf	PTR unsigned char  size(2) Largest target is 32
		 -> dbuf(BANK0[32]), 

    sprintf@fmt	PTR const unsigned char  size(2) Largest target is 15
		 -> STR_2(CODE[15]), STR_1(CODE[15]), 

    sprintf@s	PTR unsigned char  size(2) Largest target is 12
		 -> main@txtFecha(BANK0[12]), main@txtHora(BANK0[12]), 

    sprintf@ap	PTR void [1] size(2) Largest target is 2
		 -> ?_sprintf(BANK0[2]), 

    S989$source	PTR const unsigned char  size(2) Largest target is 0

    f...source	PTR const unsigned char  size(2) Largest target is 0

    S989$buffer	PTR unsigned char  size(2) Largest target is 0

    f...buffer	PTR unsigned char  size(2) Largest target is 0

    LCDNokia5110_putStr@dataStr	PTR unsigned char  size(2) Largest target is 13
		 -> STR_10(CODE[13]), STR_9(CODE[12]), STR_8(CODE[13]), STR_7(CODE[13]), 
		 -> STR_6(CODE[13]), STR_5(CODE[13]), STR_4(CODE[7]), STR_3(CODE[6]), 
		 -> main@txtFecha(BANK0[12]), main@txtHora(BANK0[12]), 

    lcd.PORT	PTR volatile unsigned char  size(2) Largest target is 1
		 -> PORTB(BITBIGSFRlhll[1]), 

    lcd.TRIS	PTR volatile unsigned char  size(2) Largest target is 1
		 -> TRISB(SFR_1[1]), 

    Nokia5110.PORT	PTR volatile unsigned char  size(2) Largest target is 1
		 -> PORTB(BITBIGSFRlhll[1]), 

    Nokia5110.TRIS	PTR volatile unsigned char  size(2) Largest target is 1
		 -> TRISB(SFR_1[1]), 

    myLCD.PORT	PTR volatile unsigned char  size(2) Largest target is 1
		 -> PORTB(BITBIGSFRlhll[1]), 

    myLCD.TRIS	PTR volatile unsigned char  size(2) Largest target is 1
		 -> TRISB(SFR_1[1]), 

    S394$PORT	PTR volatile unsigned char  size(2) Largest target is 1
		 -> PORTB(BITBIGSFRlhll[1]), 

    F6752.PORT	PTR volatile unsigned char  size(2) Largest target is 1
		 -> PORTB(BITBIGSFRlhll[1]), 

    S394$TRIS	PTR volatile unsigned char  size(2) Largest target is 1
		 -> TRISB(SFR_1[1]), 

    F6752.TRIS	PTR volatile unsigned char  size(2) Largest target is 1
		 -> TRISB(SFR_1[1]), 

    RTC_GetDate@result	PTR struct . size(2) Largest target is 5
		 -> main@fechaActual(BANK0[5]), 

    RTC_GetTime@result	PTR struct . size(2) Largest target is 4
		 -> main@horaActual(BANK0[4]), 

    RTC_ReadBytes@data	PTR unsigned char  size(2) Largest target is 4
		 -> RTC_GetDate@dataBuff(COMRAM[4]), RTC_GetTime@dataBuff(COMRAM[3]), 


Critical Paths under _main in COMRAM

    _sprintf->_vfprintf
    _vfprintf->_vfpfcnvrt
    _vfpfcnvrt->_dtoa
    _dtoa->_pad
    _pad->_fputs
    _fputs->_fputc
    _abs->___aomod
    _atoi->_isspace
    _RTC_GetTime->_RTC_ReadBytes
    _RTC_GetDate->_RTC_ReadBytes
    _RTC_ReadBytes->_RTC_WaitReady
    _RELOJ_Initialize->_RTC_Initialize
    _RTC_Initialize->_RTC_StartClock
    _RTC_StartClock->_RTC_ReadByte
    _RTC_StartClock->_RTC_WriteByte
    _RTC_WriteByte->_RTC_WaitReady
    _RTC_ReadByte->_RTC_WaitReady
    _RTC_WaitReady->_I2C2_Send
    _I2C2_Initialize->___lldiv
    _DISPLAY_Initialize->_LCDNokia5110_Initialize
    _LCDNokia5110_putStr->_LCDNokia5110_putC
    _LCDNokia5110_putC->_LCDNokia5110_Write
    _LCDNokia5110_Initialize->_LCDNokia5110_Write
    _LCDNokia5110_Clear->_LCDNokia5110_GotoXY
    _LCDNokia5110_GotoXY->_LCDNokia5110_Write
    _LCDNokia5110_Write->_LCDNokia5110_WriteSPI

Critical Paths under _main in BANK0

    _main->_sprintf

Critical Paths under _main in BANK1

    None.

Critical Paths under _main in BANK2

    None.

Critical Paths under _main in BANK3

    None.

Critical Paths under _main in BANK4

    None.

Critical Paths under _main in BANK5

    None.

Call Graph Tables:

 ---------------------------------------------------------------------------------
 (Depth) Function   	        Calls       Base Space   Used Autos Params    Refs
 ---------------------------------------------------------------------------------
 (0) _main                                                35    35      0   26358
                                             91 COMRAM     2     2      0
                                             23 BANK0     33    33      0
                 _DISPLAY_Initialize
                    _I2C2_Initialize
                _LCDNokia5110_putStr
                     _MCU_Initialize
                   _RELOJ_Initialize
                        _RTC_GetDate
                        _RTC_GetTime
                            _sprintf
 ---------------------------------------------------------------------------------
 (1) _sprintf                                             25    15     10    8448
                                              0 BANK0     23    13     10
                           _vfprintf
 ---------------------------------------------------------------------------------
 (2) _vfprintf                                             8     2      6    7943
                                             83 COMRAM     8     2      6
                          _vfpfcnvrt
 ---------------------------------------------------------------------------------
 (3) _vfpfcnvrt                                           44    38      6    7570
                                             63 COMRAM    20    14      6
                               _atoi
                               _dtoa
                              _fputc
                            _isdigit
 ---------------------------------------------------------------------------------
 (4) _dtoa                                                36    26     10    4358
                                             27 COMRAM    36    26     10
                            ___aodiv
                            ___aomod
                                _abs
                                _pad
 ---------------------------------------------------------------------------------
 (5) _pad                                                 11     5      6    2709
                                             16 COMRAM    11     5      6
                              _fputc
                              _fputs
                             _strlen
 ---------------------------------------------------------------------------------
 (6) _strlen                                               4     2      2     166
                                              0 COMRAM     4     2      2
 ---------------------------------------------------------------------------------
 (6) _fputs                                                7     3      4    1235
                                              9 COMRAM     7     3      4
                              _fputc
 ---------------------------------------------------------------------------------
 (4) _fputc                                                9     5      4     834
                                              0 COMRAM     9     5      4
                              _putch
 ---------------------------------------------------------------------------------
 (5) _putch                                                1     1      0       0
 ---------------------------------------------------------------------------------
 (5) _abs                                                  4     2      2     142
                                             18 COMRAM     4     2      2
                            ___aomod (ARG)
 ---------------------------------------------------------------------------------
 (5) ___aomod                                             18     2     16     448
                                              0 COMRAM    18     2     16
 ---------------------------------------------------------------------------------
 (5) ___aodiv                                             26    10     16     452
                                              0 COMRAM    26    10     16
 ---------------------------------------------------------------------------------
 (4) _atoi                                                10     8      2    1272
                                              7 COMRAM    10     8      2
                             ___wmul
                            _isdigit
                            _isspace
 ---------------------------------------------------------------------------------
 (5) _isspace                                              7     5      2     207
                                              0 COMRAM     7     5      2
 ---------------------------------------------------------------------------------
 (4) _isdigit                                              6     4      2     237
                                              0 COMRAM     6     4      2
 ---------------------------------------------------------------------------------
 (5) ___wmul                                               6     2      4     503
                                              0 COMRAM     6     2      4
 ---------------------------------------------------------------------------------
 (1) _RTC_GetTime                                          6     4      2    1029
                                             15 COMRAM     6     4      2
                         _BCD_to_DEC
                      _RTC_ReadBytes
 ---------------------------------------------------------------------------------
 (1) _RTC_GetDate                                         10     8      2    1005
                                             15 COMRAM    10     8      2
                         _BCD_to_DEC
                      _RTC_ReadBytes
 ---------------------------------------------------------------------------------
 (2) _RTC_ReadBytes                                       12     9      3     550
                                              3 COMRAM    12     9      3
                          _I2C2_Read
                          _I2C2_Send
                      _I2C2_Send_ACK
                     _I2C2_Send_NACK
                         _I2C2_Start
                          _I2C2_Stop
                      _RTC_WaitReady
 ---------------------------------------------------------------------------------
 (3) _I2C2_Send_NACK                                       0     0      0       0
 ---------------------------------------------------------------------------------
 (3) _I2C2_Send_ACK                                        0     0      0       0
 ---------------------------------------------------------------------------------
 (2) _BCD_to_DEC                                           2     2      0      44
                                              0 COMRAM     2     2      0
 ---------------------------------------------------------------------------------
 (1) _RELOJ_Initialize                                     0     0      0     689
                     _RTC_Initialize
 ---------------------------------------------------------------------------------
 (2) _RTC_Initialize                                       2     1      1     689
                                              6 COMRAM     2     1      1
                     _RTC_StartClock
 ---------------------------------------------------------------------------------
 (3) _RTC_StartClock                                       1     1      0     569
                                              5 COMRAM     1     1      0
                       _RTC_ReadByte
                      _RTC_WriteByte
 ---------------------------------------------------------------------------------
 (4) _RTC_WriteByte                                        2     1      1     362
                                              3 COMRAM     2     1      1
                          _I2C2_Send
                          _I2C2_Stop
                      _RTC_WaitReady
 ---------------------------------------------------------------------------------
 (4) _RTC_ReadByte                                         2     2      0     136
                                              3 COMRAM     2     2      0
                          _I2C2_Read
                          _I2C2_Send
                         _I2C2_Start
                          _I2C2_Stop
                      _RTC_WaitReady
 ---------------------------------------------------------------------------------
 (3) _RTC_WaitReady                                        2     2      0      68
                                              1 COMRAM     2     2      0
                          _I2C2_Send
                         _I2C2_Start
                          _I2C2_Stop
 ---------------------------------------------------------------------------------
 (4) _I2C2_Stop                                            0     0      0       0
 ---------------------------------------------------------------------------------
 (4) _I2C2_Start                                           0     0      0       0
 ---------------------------------------------------------------------------------
 (4) _I2C2_Send                                            1     1      0      22
                                              0 COMRAM     1     1      0
 ---------------------------------------------------------------------------------
 (3) _I2C2_Read                                            0     0      0       0
 ---------------------------------------------------------------------------------
 (1) _MCU_Initialize                                       1     1      0       0
                                              0 COMRAM     1     1      0
 ---------------------------------------------------------------------------------
 (1) _I2C2_Initialize                                     12     4      8     510
                                             13 COMRAM    12     4      8
                            ___lldiv
 ---------------------------------------------------------------------------------
 (2) ___lldiv                                             13     5      8     314
                                              0 COMRAM    13     5      8
 ---------------------------------------------------------------------------------
 (1) _DISPLAY_Initialize                                  11    11      0    9207
                                             22 COMRAM    11    11      0
                 _LCDNokia5110_Clear
            _LCDNokia5110_Initialize
                _LCDNokia5110_putStr
 ---------------------------------------------------------------------------------
 (1) _LCDNokia5110_putStr                                  4     0      4    5161
                                             17 COMRAM     4     0      4
                _LCDNokia5110_GotoXY
                  _LCDNokia5110_putC
 ---------------------------------------------------------------------------------
 (2) _LCDNokia5110_putC                                    7     7      0    1267
                                             10 COMRAM     7     7      0
                 _LCDNokia5110_Write
 ---------------------------------------------------------------------------------
 (2) _LCDNokia5110_Initialize                             12     3      9    1275
                                             10 COMRAM    12     3      9
                 _LCDNokia5110_Write
 ---------------------------------------------------------------------------------
 (2) _LCDNokia5110_Clear                                   2     2      0    2748
                                             12 COMRAM     2     2      0
                _LCDNokia5110_GotoXY
                 _LCDNokia5110_Write
 ---------------------------------------------------------------------------------
 (2) _LCDNokia5110_GotoXY                                  2     1      1    1525
                                             10 COMRAM     2     1      1
                 _LCDNokia5110_Write
 ---------------------------------------------------------------------------------
 (3) _LCDNokia5110_Write                                   5     4      1    1177
                                              5 COMRAM     5     4      1
              _LCDNokia5110_WriteSPI
 ---------------------------------------------------------------------------------
 (4) _LCDNokia5110_WriteSPI                                5     5      0      69
                                              0 COMRAM     5     5      0
 ---------------------------------------------------------------------------------
 Estimated maximum stack depth 6
 ---------------------------------------------------------------------------------

 Call Graph Graphs:

 _main (ROOT)
   _DISPLAY_Initialize
     _LCDNokia5110_Clear
       _LCDNokia5110_GotoXY
         _LCDNokia5110_Write
           _LCDNokia5110_WriteSPI
       _LCDNokia5110_Write
     _LCDNokia5110_Initialize
       _LCDNokia5110_Write
     _LCDNokia5110_putStr
       _LCDNokia5110_GotoXY
       _LCDNokia5110_putC
         _LCDNokia5110_Write
   _I2C2_Initialize
     ___lldiv
   _LCDNokia5110_putStr
   _MCU_Initialize
   _RELOJ_Initialize
     _RTC_Initialize
       _RTC_StartClock
         _RTC_ReadByte
           _I2C2_Read
           _I2C2_Send
           _I2C2_Start
           _I2C2_Stop
           _RTC_WaitReady
             _I2C2_Send
             _I2C2_Start
             _I2C2_Stop
         _RTC_WriteByte
           _I2C2_Send
           _I2C2_Stop
           _RTC_WaitReady
   _RTC_GetDate
     _BCD_to_DEC
     _RTC_ReadBytes
       _I2C2_Read
       _I2C2_Send
       _I2C2_Send_ACK
       _I2C2_Send_NACK
       _I2C2_Start
       _I2C2_Stop
       _RTC_WaitReady
   _RTC_GetTime
     _BCD_to_DEC
     _RTC_ReadBytes
   _sprintf
     _vfprintf
       _vfpfcnvrt
         _atoi
           ___wmul
           _isdigit
           _isspace
         _dtoa
           ___aodiv
           ___aomod
           _abs
             ___aomod (ARG)
           _pad
             _fputc
               _putch
             _fputs
               _fputc
             _strlen
         _fputc
         _isdigit

 Address spaces:
Name               Size   Autos  Total    Cost      Usage
BIGRAM             5FF      0       0      23        0.0%
EEDATA             100      0       0       0        0.0%
BITBANK5           100      0       0      13        0.0%
BANK5              100      0       0      14        0.0%
BITBANK4           100      0       0      11        0.0%
BANK4              100      0       0      12        0.0%
BITBANK3           100      0       0       9        0.0%
BANK3              100      0       0      10        0.0%
BITBANK2           100      0       0       7        0.0%
BANK2              100      0       0       8        0.0%
BITBANK1           100      0       0       5        0.0%
BANK1              100      0       0       6        0.0%
BITBANK0            A0      0       0       3        0.0%
BANK0               A0     38      72       4       71.2%
BITCOMRAM           5F      0       0       0        0.0%
COMRAM              5F     5D      5F       1      100.0%
BITBIGSFRll         30      0       0      21        0.0%
BITBIGSFRhhl        2E      0       0      16        0.0%
BITBIGSFRhhh        2C      0       0      15        0.0%
BITBIGSFRlhll       11      0       0      20        0.0%
BITBIGSFRhl          F      0       0      17        0.0%
BITBIGSFRlhlh        7      0       0      19        0.0%
BITBIGSFRlhh         6      0       0      18        0.0%
BIGSFR               0      0       0     200        0.0%
BITSFR_1             0      0       0     200        0.0%
SFR_1                0      0       0     200        0.0%
BITSFR               0      0       0     200        0.0%
SFR                  0      0       0     200        0.0%
STACK                0      0       0       2        0.0%
NULL                 0      0       0       0        0.0%
ABS                  0      0      D1      22        0.0%
DATA                 0      0      D1      24        0.0%
CODE                 0      0       0       0        0.0%


Microchip Technology PIC18 Macro Assembler V2.36 build 20220127204148 
Symbol Table                                                                                   Sun May 17 18:25:46 2026

                             l31 6762                               l33 6762  
                             l25 6316                               l42 67C4  
                             l50 650C                               l46 6400  
                             l72 636A                               l66 6A36  
                             l87 6EFC                               l96 7022  
            ___wmul@multiplicand 0003        ??_LCDNokia5110_Initialize 0014  
                            l120 631A                              l113 66AE  
                            l122 6328                              l115 66B0  
                            l123 632A                              l132 632E  
                            l140 637E                              l117 6704  
                            l141 6380                              l150 6408  
                            l134 633C                              l223 6994  
                            l135 633E                              l152 6416  
                            l144 6386                              l241 7766  
                            l153 642A                              l218 64D2  
                            l226 6304                              l138 6370  
                            l146 6394                              l323 6ADA  
                            l147 6396                              l403 75CE  
                            l252 6DB6                              l316 6ACA  
                            l156 6342                              l253 6DF0  
                            l245 6B40                              l261 63B2  
                            l246 6B94                              l158 6350  
                            l159 6354                              l272 688E  
                            l416 72DC                              l258 6584  
                            l266 690E                              l289 63D8  
                            l967 66AC                              l998 6BDC  
                 _RTC_StartClock 6706                              _abs 6586  
                            _pad 6B96                   ?_RTC_ReadBytes 0004  
                            wreg 000FE8                    _RTC_WriteByte 63DA  
                ??_I2C2_Send_ACK 0001                             l1001 6C1E  
                           l1003 6C5A                             l1011 7810  
                           l2000 6438                             l1121 6D24  
                           l1009 7808                             l2010 676C  
                           l1106 665A                             l2002 643C  
                           l1043 7B46                             ?_abs 0013  
                           l2020 67A6                             l2012 6774  
                           l2100 757E                             l1132 62EE  
                           l2004 6454                             l1029 7A48  
                           l2022 67B8                             l2014 6778  
                           l2102 758E                             l2110 717E  
                           l1070 65C4                             l1062 681E  
                           l1063 6826                             l2032 6340  
                           l2024 67BC                             l2016 677E  
                           l2008 6764                             l2200 650A  
                           l2104 75AE                             l2120 71DE  
                           l2112 718C                             l1056 7DA4  
                           l1129 6608                             l2050 6D92  
                           l2210 6ADE                             l2034 6352  
                           l2018 6794                             l2130 7254  
                           l2122 71FC                             l2114 71AC  
                           l1138 6460                             l1067 65BC  
                           l2052 6DDA                             l2044 6D2C  
                           l2212 6AEE                             l2028 67C2  
                           l2204 63DC                             l2060 63D0  
                           l1092 7170                             l2140 72BC  
                           l2132 7274                             l2124 7204  
                           l2116 71B0                             l2108 717A  
                           l2220 7768                             l2054 6DDE  
                           l2046 6D56                             l2038 6D28  
                           l2214 6B16                             l2206 63F0  
                           l2070 747A                             l2134 7286  
                           l2126 7218                             l2118 71BE  
                           l2150 6BC8                             l2230 77E2  
                           l2222 7788                             l1095 7178  
                           l2056 6DE0                             l2048 6D64  
                           l2216 6B6A                             l2208 63FC  
                           l2320 6720                             l2304 710C  
                           l2080 74BC                             l2072 747E  
                           l2064 7448                             l2128 7226  
                           l2136 728C                             l2160 6C2E  
                           l2152 6BD4                             l2144 6B96  
                           l2240 783E                             l2232 77FC  
                           l2224 77B0                             l2400 7BB2  
                           l2218 6B70                             l2330 6754  
                           l2322 672C                             l2314 6706  
                           l2058 63B4                             l1098 6498  
                           l2170 6462                             l2306 7142  
                           l2090 7516                             l2082 74DA  
                           l2074 748C                             l2066 744C  
                           l2138 729C                             l2162 6C42  
                           l2154 6BE8                             l2146 6BA6  
                           l2250 78DC                             l2242 7846  
                           l2234 7818                             l2226 77D0  
                           l2410 7BFC                             l2402 7BC0  
                           l2500 7636                             l2340 6892  
                           l2316 6716                             l2324 673A  
                           l2180 6650                             l2308 7154  
                           l2092 7544                             l2084 74E2  
                           l2076 74AC                             l2068 745A  
                           l2156 6BFC                             l2148 6BBA  
                           l2260 7998                             l2252 78E2  
                           l2244 784E                             l2236 782A  
                           l2228 77E0                             l2412 7C3A  
                           l2404 7BCE                             l2510 7702  
                           l2502 7660                             l2350 68E4  
                           l2342 689C                             l2190 64EE  
                           l2326 674A                             l2318 671E  
                           l2334 636C                             l2182 6654  
                           l2174 660A                             l2094 7564  
                           l2086 74F6                             l2078 74B0  
                           l2166 6586                             l2158 6C00  
                           l2270 79EA                             l2262 79B2  
                           l2246 7854                             l2254 7946  
                           l2238 7838                             l2422 7D02  
                           l2414 7C5E                             l2406 7BEE  
                           l2520 773E                             l2512 7704  
                           l2504 768A                             l2352 68E8  
                           l2192 64F4                             l2328 6752  
                           l2336 6382                             l2600 6E5E  
                           l2176 660E                             l2096 7566  
                           l2088 7504                             l2168 65A0  
                           l2272 79FC                             l2256 7960  
                           l2264 79C2                             l2248 78D6  
                           l2440 7D92                             l2424 7D26  
                           l2432 7D54                             l2416 7C82  
                           l2360 7A7C                             l2338 639A  
                           l2522 7748                             l2514 7706  
                           l2506 76B4                             l2354 6904  
                           l2194 64F8                             l2186 64D6  
                           l2610 6EDC                             l2602 6E82  
                           l2178 6622                             l2290 7058  
                           l2282 7024                             l2098 7578  
                           l2274 7A08                             l2266 79D4  
                           l2258 797E                             l2434 7D62  
                           l2426 7D34                             l2418 7CCA  
                           l2370 7AB4                             l2362 7A8E  
                           l2540 657A                             l2524 7752  
                           l2516 772A                             l2508 76D8  
                           l2348 68A4                             l2196 6500  
                           l2188 64DA                             l2452 6308  
                           l2460 69AC                             l2620 6EFE  
                           l2612 6EF4                             l2604 6E94  
                           l2292 7092                             l2284 7038  
                           l2276 7A10                             l2268 79E4  
                           l2428 7D48                             l2364 7A92  
                           l2356 7A4A                             l2534 6550  
                           l2526 775C                             l2518 7734  
                           l2550 6A72                             l2542 6A38  
                           l2198 6506                             l2454 630C  
                           l2470 69D8                             l2462 69B2  
                           l2630 6F72                             l2622 6F10  
                           l2606 6EA4                             l2294 709A  
                           l2278 7A20                             l2390 7AE0  
                           l2382 7ACC                             l2374 7ABC  
                           l2366 7A9E                             l2358 7A6E  
                           l2438 7D6E                             l2710 72E2  
                           l2536 655A                             l2528 6548  
                           l2560 6ABA                             l2552 6A80  
                           l2544 6A48                             l2456 6312  
                           l2480 6A32                             l2472 6A12  
                           l2464 69B6                             l2640 6FFE  
                           l2632 6F8E                             l2624 6F20  
                           l2616 6EFA                             l2608 6EC0  
                           l2296 70A2                             l2288 703C  
                           l2368 7AA2                             l2392 7B34  
                           l2720 7346                             l2712 7306  
                           l2538 655E                             l2490 685A  
                           l2562 6AC4                             l2554 6A8A  
                           l2546 6A5E                             l2650 66B2  
                           l2482 6358                             l2474 6A1A  
                           l2466 69BE                             l2458 6998  
                           l2634 6FAA                             l2642 701A  
                           l2626 6F34                             l2298 70D6  
                           l2394 7B56                             l2386 7AD4  
                           l2378 7AC4                             l2570 6802  
                           l2722 7398                             l2730 73EC  
                           l2714 730A                             l2492 685E  
                           l2660 6910                             l2556 6AA8  
                           l2548 6A66                             l2652 66BA  
                           l2476 6A1E                             l2468 69C6  
                           l2636 6FC6                             l2628 6F48  
                           l2396 7B58                             l2564 67C6  
                           l2732 7428                             l2724 73AC  
                           l2716 730E                             l2708 72DE  
                           l2494 75D0                             l2486 6828  
                           l2670 6964                             l2662 6922  
                           l2558 6AB8                             l2654 649A  
                           l2478 6A20                             l2646 7020  
                           l2638 6FE2                             l2590 6E04  
                           l2398 7B7C                             l2814 7B06  
                           l2566 67CE                             l2726 73C0  
                           l2718 732A                             l2496 75E2  
                           l2488 6836                             l2672 6978  
                           l2664 6938                             l2656 64C4  
                           l2592 6E1A                             l2816 70C0  
                           l2568 67DC                             l2680 6676  
                           l2728 73D4                             l2498 760C  
                           l2674 6990                             l2666 693C  
                           l2658 62FA                             l2594 6E2E  
                           l1970 6C5C                             l2682 667E  
                           l2668 6950                             l2596 6E3E  
                           l2588 6DF2                             l1980 6CDE  
                           l1972 6C6E                             l2684 669A  
                           l2676 665C                             l2598 6E4C  
                           l1974 6C80                             l1990 65C6  
                           l2678 666E                             ?_pad 0011  
                           l1984 6318                             l1976 6C8A  
                           l1992 65D2                             l1986 6404  
                           l1978 6CA8                             l1994 65E4  
                           l1988 632C                             l1996 65E8  
                           l1998 642C                             STR_1 7F87  
                           STR_2 7F96                             STR_3 7FF9  
                           STR_4 7FF2                             STR_5 7FB2  
                           STR_6 7FA5                             STR_7 7FBF  
                           STR_8 7FCC                             STR_9 7FE6  
                           u2000 637E                             u2001 637A  
                           u2010 6394                             u2011 6390  
                           u2020 6904                             u1300 6C6E  
                           u2100 7C82                             u2021 6900  
                           u1301 6C6A                             u2101 7C7E  
                           u1310 6C80                             u2110 7D26  
                           u2030 7A6E                             u1311 6C7C  
                           u2111 7D22                             u2031 7A6A  
                           u1400 6794                             u2120 69AC  
                           u1320 6CA8                             u2040 7B46  
                           u1401 6790                             u2121 69A8  
                           u1321 6CA4                             u2041 7B42  
                           u1410 67A6                             u2130 6A12  
                           u1330 6CDE                             u2050 7B56  
                           u1411 67A2                             u2131 6A0E  
                           u1331 6CDA                             u2051 7B52  
                           u2204 761E                             u2300 6AA8  
                           u1340 6328                             u1420 67B8  
                           u2140 6A32                             u1500 745A  
                           u2060 7B7C                             u2205 761A  
                           u2301 6AA4                             u1341 6324  
                           u1421 67B4                             u2141 6A2E  
                           u1501 7456                             u2061 7B78  
                           _LATA 000F89                             u2214 7648  
                           u2150 6856                             u1430 6350  
                           u1350 6416                             u1510 748C  
                           u2070 7BC0                             u2310 681E  
                           _LATB 000F8A                             u2215 7644  
                           u1431 634C                             u1351 6412  
                           u1511 7488                             u2071 7BBC  
                           u2311 681A                             _LATC 000F8B  
                           u2224 7672                             u2160 687E  
                           u1360 6428                             u2400 6EF4  
                           u1600 7226                             u2080 7C3A  
                           u2225 766E                             u1361 6422  
                           u2401 6EF0                             u1521 74B6  
                           u1601 7222                             u2081 7C36  
                           u1450 6D64                             u2234 769C  
                           u2170 688E                             u1370 633C  
                           u2410 6F8E                             u1530 74DA  
                           u1610 7254                             u2090 7C5E  
                           u1451 6D60                             u2235 7698  
                           u2171 688A                             u1371 6338  
                           u2411 6F8A                             u1531 74D6  
                           u1611 7250                             u2091 7C5A  
                           u1444 6D3E                             u2244 76C6  
                           u2420 6FAA                             u2340 6E3E  
                           u1700 6622                             u1540 7504  
                           u1620 729C                             u1380 6608  
                           u1445 6D3A                             u2245 76C2  
                           u2181 75DA                             u2157 684C  
                           u2421 6FA6                             u2341 6E3A  
                           u1701 661E                             u1541 7500  
                           u1621 7298                             u1381 6604  
                           u2270 657A                             u2254 76EA  
                           u1366 642A                             u2430 6FC6  
                           u2350 6E4C                             u1710 6650  
                           u1550 7544                             u1390 6454  
                           u1630 6BA6                             u2271 6576  
                           u2255 76E6                             u2167 6874  
                           u2431 6FC2                             u2351 6E48  
                           u1711 664C                             u1551 7540  
                           u1391 6450                             u1631 6BA2  
                           u1464 6D76                             u2264 7718  
                           u2280 6A5E                             u1720 64EE  
                           u2440 6FE2                             u2360 6E7A  
                           u1560 758E                             u1640 6BC8  
                           u1800 779A                             u1465 6D72  
                           u2265 7714                             u2281 6A5A  
                           u1721 64EA                             u2441 6FDE  
                           u2361 6E74                             u1561 758A  
                           u1641 6BC4                             u1490 6DF0  
                           u1474 6DA4                             u2194 75F4  
                           u2290 6A80                             u1730 63F0  
                           u2450 6FFE                             u2370 6E7C  
                           u1570 718C                             u1650 6C1E  
                           u1810 77B0                             u2530 732A  
                           u1491 6DEC                             u1475 6DA0  
                           u2195 75F0                             u2291 6A7C  
                           u1731 63EC                             u2451 6FFA  
                           u1571 7188                             u1651 6C1A  
                           u1811 77AC                             u2531 7326  
                           u1484 6DC8                             u1740 6AEE  
                           u2460 701A                             u2380 6EC0  
                           u1580 71BE                             u1660 6C2E  
                           u1900 79C2                             u1820 77E0  
                           u2540 7346                             u1485 6DC4  
                           u1741 6AEA                             u2461 7016  
                           u2381 6EBC                             u1581 71BA  
                           u1661 6C2A                             u1901 79BE  
                           u1821 77DC                             u2541 7342  
                           u2390 6EDC                             u1590 71FC  
                           u1670 65A0                             u1910 79D4  
                           u1830 77FC                             u2607 6982  
                           u2391 6ED8                             u1591 71F8  
                           u1671 659C                             u1911 79D0  
                           u1831 77F8                             u1680 6492  
                           u1920 79E4                             u1840 782A  
                           u2481 691A                             u1681 648C  
                           u1921 79E0                             u1841 7826  
                           u1754 6B00                             u1690 6494  
                           u1930 79FC                             u1850 7838  
                           u1755 6AFC                             u2491 692C  
                           u2475 66DC                             u1931 79F8  
                           u1851 7834                             u1764 6B28  
                           u1940 7058                             u1860 7960  
                           u1765 6B24                             u1941 7054  
                           u1861 795C                             u1774 6B52  
                           u1950 708E                             u1870 797E  
                           u1790 7798                             u1775 6B4E  
                           u1951 708A                             u1871 797A  
                           u1791 7792                             u1784 6B82  
                           u1960 7142                             u1880 7998  
                           u1785 6B7E                             u1961 713E  
                           u1881 7994                             u1970 7154  
                           u1890 79B2                             u1971 7150  
                           u1891 79AE                             u2587 7432  
                           u1980 6716                             u2597 64CA  
                           u1981 6712                             u1990 674A  
                           u1991 6746                             abs@a 0013  
                           _dbuf 00A9                             _atoi 7024  
                           _main 72DE                             _dtoa 7768  
                           _prec 00A5                             _nout 00A1  
                           pad@i 0018                             pad@p 0015  
                           fsr0h 000FEA                             fsr1h 000FE2  
                           indf0 000FEF                             fsr2h 000FDA  
                           fsr0l 000FE9                             indf2 000FDF  
                           fsr1l 000FE1                             pad@w 001A  
                           fsr2l 000FD9                   ?_RTC_WaitReady 0001  
                           prodh 000FF4                             prodl 000FF3  
                           start 0000                  ?_RTC_Initialize 0007  
                    main@txtHora 0077                     ___param_bank 000000  
                          ??_abs 0015                            ??_pad 0017  
               ??_I2C2_Send_NACK 0001           __end_of_RTC_StartClock 6764  
              __end_of_I2C2_Read 6356                  __end_of___aodiv 75D0  
                          ?_atoi 0008                            ?_main 0001  
                          ?_dtoa 001C                __end_of_I2C2_Send 642C  
                __end_of___aomod 72DE                            STR_10 7FD9  
              __end_of_I2C2_Stop 6340                  __end_of___lldiv 6ADC  
                   vfpfcnvrt@fmt 0042                            _PORTB 000F81  
                          _TRISA 000F92                            _TRISB 000F93  
                          _TRISC 000F94                   ?_RTC_WriteByte 0004  
               ??_MCU_Initialize 0001                            _flags 00A7  
                          _fputc 6C5C                            _fputs 65C6  
                __end_of_isdigit 649A                            atoi@n 0010  
                          pad@fp 0011                            atoi@s 0008  
                          _width 00A3                            _putch 62EE  
                          dtoa@d 001E                            dtoa@i 003E  
                          dtoa@n 0036                            dtoa@p 0030  
                          dtoa@s 0034                            dtoa@w 0032  
                __end_of_isspace 665C                            tablat 000FF5  
                          plusw0 000FEB                            plusw1 000FE3  
                          plusw2 000FDB                            status 000FD8  
                __end_of_sprintf 66AE                     main@txtFecha 0083  
                   ??_I2C2_Start 0001                   __rtcI2cAddress 005E  
              ??_I2C2_Initialize 0016                  __initialization 650E  
                   __end_of_atoi 717A                     __end_of_main 7448  
                   __end_of_dtoa 7A4A                RTC_ReadBytes@addr 000E  
              RTC_ReadBytes@data 0004                  ?_RTC_StartClock 0001  
                ??_RTC_ReadBytes 0007                           ??_atoi 000A  
                         ??_main 005C                           ??_dtoa 0026  
                  __activetblptr 000002          LCDNokia5110_Clear@index 000D  
    I2C2_Initialize@i2c_speed_hz 0012                           ?_fputc 0001  
                         ?_fputs 000A               __end_of_I2C2_Start 632C  
                         _ANSELA 000F38                           ?_putch 0001  
                         _ANSELB 000F39                           _ANSELC 000F3A  
                ??_RTC_WaitReady 0002                    vfpfcnvrt@done 0052  
                  BCD_to_DEC@bcd 0002     LCDNokia5110_WriteSPI@outData 0004  
                   vfprintf@cfmt 005A                        ??___aodiv 0011  
                   ??_BCD_to_DEC 0001                        ??___aomod 0011  
                         ___wmul 63B4                        ??___lldiv 0009  
            RTC_Initialize@model 0008                           clear_0 6534  
                         isa$std 000001                           pad@buf 0013  
                         dtoa@fp 001C                  ??_RTC_WriteByte 0005  
                         _strlen 642C                           fputc@c 0001  
                         fputs@c 000E                           fputs@i 000F  
                         fputs@s 000A                        ??_isdigit 0003  
                   __mediumconst 7DA6                        ??_isspace 0003  
                         tblptrh 000FF7                           tblptrl 000FF6  
                         tblptru 000FF8                           putch@c 0001  
               __end_of_vfprintf 6828                        ??_sprintf 005C  
                   ?_RTC_GetDate 0010                RTC_GetTime@result 0010  
             __end_of_BCD_to_DEC 636C                     ?_RTC_GetTime 0010  
                     __accesstop 0060          __end_of__initialization 653E  
          _LCDNokia5110_WriteSPI 6D26                    ___rparam_used 000001  
                 __pcstackCOMRAM 0001                     __pidataBANK0 62F1  
             _LCDNokia5110_Clear 6548                    __end_of_fputc 6D26  
                  __end_of_fputs 660A                    __end_of_putch 62F0  
             _LCDNokia5110_Write 6ADC       __end_of_DISPLAY_Initialize 6996  
            ?_LCDNokia5110_Clear 0001           LCDNokia5110_WriteSPI@i 0005  
         LCDNokia5110_Write@data 0006           LCDNokia5110_Write@mode 000A  
            ?_LCDNokia5110_Write 0006                          ??_fputc 0005  
                        ??_fputs 000E                          ??_putch 0001  
                     __pbssBANK0 0098                 ??_RTC_Initialize 0008  
               _RELOJ_Initialize 62FA             ??_LCDNokia5110_Clear 000D  
              RTC_WriteByte@addr 0005                RTC_WriteByte@data 0004  
           ??_LCDNokia5110_Write 0007                          ?___wmul 0001  
       RTC_Initialize@i2cAddress 0007                          ?_strlen 0001  
                 __selectedModel 005F                   main@horaActual 0094  
                      _I2C2_Read 6340                        _I2C2_Send 6402  
                      _I2C2_Stop 632C                          _SSP2ADD 000F6E  
                        _SSP2BUF 000F6F                  _I2C2_Initialize 66AE  
          __end_of_I2C2_Send_ACK 6382           ?_LCDNokia5110_WriteSPI 0001  
                 RTC_ReadBytes@i 000F                          __Hparam 0000  
                        __Lparam 0000         ?_LCDNokia5110_Initialize 000B  
               ??_RTC_StartClock 0006                          ___aodiv 7448  
                        ___aomod 717A                          ___lldiv 6A38  
                      ?_vfprintf 0054                          __pcinit 650E  
                        __ramtop 0600                          __ptext0 72DE  
                        __ptext1 665C                          __ptext2 67C6  
                        __ptext3 7A4A                          __ptext4 7768  
                        __ptext5 6B96                          __ptext6 642C  
                        __ptext7 65C6                          __ptext8 6C5C  
                        __ptext9 62EE                          _isdigit 6462  
                        _isspace 660A                       ?_I2C2_Read 0001  
                     ?_I2C2_Send 0001                       ?_I2C2_Stop 0001  
                        atoi@neg 000E                          _sprintf 665C  
           end_of_initialization 653E                          fputc@fp 0003  
                  __Lmediumconst 7DA6                          fputs@fp 000C  
                ___lldiv@divisor 0005                  ___lldiv@counter 000D  
              __end_of_vfpfcnvrt 7DA6                          postdec1 000FE5  
                        postdec2 000FDD                          postinc0 000FEE  
                        postinc1 000FE6                          postinc2 000FDE  
                     ??_vfprintf 005A                          strlen@a 0003  
                        strlen@s 0001           LCDNokia5110_putC@index 0010  
          __end_of_RTC_ReadBytes 6A38          __end_of_I2C2_Initialize 6706  
                      _TRISBbits 000F93                    ?_RTC_ReadByte 0001  
          RTC_StartClock@tempReg 0006  __end_of_LCDNokia5110_Initialize 7768  
          __end_of_RTC_WaitReady 67C6                      vfpfcnvrt@ap 0044  
                    vfpfcnvrt@fp 0040                      vfpfcnvrt@ll 004A  
                 __end_of___wmul 63DA         __end_of_RELOJ_Initialize 6306  
            _LCDNokia5110_GotoXY 6398            __end_of_RTC_WriteByte 6402  
                 __end_of_strlen 6462                  main@fechaActual 008F  
            start_initialization 650E                 RTC_ReadByte@addr 0004  
               RTC_ReadByte@data 0005                      ??_I2C2_Read 0001  
                    ??_I2C2_Send 0001                      ??_I2C2_Stop 0001  
                    __end_of_abs 65C6                      __end_of_pad 6C5C  
     LCDNokia5110_putStr@dataStr 0012                 RTC_ReadBytes@len 0006  
                 ??_RTC_ReadByte 0004                        _Nokia5110 0098  
            _LCDNokia5110_putStr 6828               _DISPLAY_Initialize 6910  
           ?_LCDNokia5110_GotoXY 000B              ?_DISPLAY_Initialize 0001  
                    vfprintf@fmt 0056                         ??___wmul 0005  
           ?_LCDNokia5110_putStr 0012                      __pdataBANK0 00C9  
                       ??_strlen 0003                      __pbssCOMRAM 005E  
           ??_DISPLAY_Initialize 0017                 ?_I2C2_Initialize 000E  
                  __pcstackBANK0 0060                 ___aodiv@dividend 0001  
        ??_LCDNokia5110_WriteSPI 0001              __end_of_FONT_NORMAL 7F87  
              _LCDNokia5110_putC 6890            ??_LCDNokia5110_GotoXY 000C  
             ?_LCDNokia5110_putC 0001                        _dtoa$1081 002E  
            ??_LCDNokia5110_putC 000B                    __pmediumconst 7DA6  
                       ?___aodiv 0001                         ?___aomod 0001  
               ___aodiv@quotient 0013            ??_LCDNokia5110_putStr 0016  
                       ?___lldiv 0001                         ?_isdigit 0001  
                       ?_isspace 0001                   _I2C2_Send_NACK 6382  
      __end_of_LCDNokia5110_putC 6910                         ?_sprintf 0060  
            RTC_GetDate@dataBuff 0016                   _MCU_Initialize 649A  
                 ___wmul@product 0005          DISPLAY_Initialize@F6752 00C9  
                       _PIR3bits 000FA4                       _I2C2_Start 6318  
                       _SSP2CON1 000F6C            LCDNokia5110_putC@data 000F  
                       _SSP2STAT 000F6D             __end_of_RTC_ReadByte 650E  
                      _vfpfcnvrt 7A4A          DISPLAY_Initialize@myLCD 0019  
              ___wmul@multiplier 0001           __end_of_I2C2_Send_NACK 6398  
                    _FONT_NORMAL 7DA7                     _isspace$1130 0007  
                      copy_data0 6522           __end_of_MCU_Initialize 64D4  
                  ??_RTC_GetDate 0012                    ??_RTC_GetTime 0012  
           LCDNokia5110_GotoXY@x 000C             LCDNokia5110_GotoXY@y 000B  
                       __Hrparam 0000                       vfprintf@ap 0058  
                       __Lrparam 0000                       vfprintf@fp 0054  
                     _BCD_to_DEC 6356                       ?_vfpfcnvrt 0040  
                ___aodiv@divisor 0009                  ___aodiv@counter 0011  
              ?_RELOJ_Initialize 0001                  ?_I2C2_Send_NACK 0001  
                     sprintf@fmt 0062               ??_RELOJ_Initialize 0009  
                       __ptext10 6586                         __ptext11 717A  
                       __ptext20 6382                         __ptext12 7448  
                       __ptext21 636C                         __ptext13 7024  
                       __ptext30 6318                         __ptext22 6356  
                       __ptext14 660A                         __ptext31 6402  
                       __ptext23 62FA                         __ptext15 6462  
                       __ptext40 6548                         __ptext32 6340  
                       __ptext24 6306                         __ptext16 63B4  
                       __ptext41 6398                         __ptext33 649A  
                       __ptext25 6706                         __ptext17 6DF2  
                       __ptext42 6ADC                         __ptext34 66AE  
                       __ptext26 63DA                         __ptext18 6EFE  
                       __ptext43 6D26                         __ptext35 6A38  
                       __ptext27 64D4                         __ptext19 6996  
                       __ptext36 6910                         __ptext28 6764  
                       __ptext37 6828                         __ptext29 632C  
                       __ptext38 6890                         __ptext39 75D0  
                   _SSP2CON2bits 000F6B                  ?_MCU_Initialize 0001  
                  _I2C2_Send_ACK 636C             RTC_WaitReady@timeout 0002  
            __end_of_RTC_GetDate 7024              __end_of_RTC_GetTime 6EFE  
                    ?_I2C2_Start 0001                         isa$xinst 000000  
                       _vfprintf 67C6             LCDNokia5110_putStr@x 0014  
           LCDNokia5110_putStr@y 0015                 ___aomod@dividend 0001  
        _LCDNokia5110_Initialize 75D0                         isdigit@c 0001  
  __end_of_LCDNokia5110_WriteSPI 6DF2                   ?_I2C2_Send_ACK 0001  
                      sprintf@ap 006A                         isspace@c 0001  
               ___lldiv@dividend 0001                       _OSCCONbits 000FD3  
         I2C2_Initialize@fosc_hz 000E                   _RTC_Initialize 6306  
              RTC_GetDate@result 0010                      ?_BCD_to_DEC 0001  
     LCDNokia5110_Initialize@lcd 000B                  ___aomod@divisor 0009  
                    ??_vfpfcnvrt 0046                  ___aomod@counter 0011  
            RTC_GetTime@dataBuff 0013                         sprintf@f 006C  
                       sprintf@s 0060                 ___lldiv@quotient 0009  
                  _RTC_ReadBytes 6996                    I2C2_Send@data 0001  
    __end_of_LCDNokia5110_GotoXY 63B4                     ___aodiv@sign 0012  
                    _RTC_GetDate 6EFE                     _RTC_ReadByte 64D4  
     __end_of_LCDNokia5110_Clear 6586                      _RTC_GetTime 6DF2  
     __end_of_LCDNokia5110_Write 6B96      __end_of_LCDNokia5110_putStr 6890  
                  _RTC_WaitReady 6764                     ___aomod@sign 0012  
         __end_of_RTC_Initialize 6318  
