

Microchip MPLAB XC8 Assembler V2.36 build 20220127204148 
                                                                                               Fri May 01 23:19:29 2026

Microchip MPLAB XC8 C Compiler v2.36 (Free license) build 20220127204148 Og1 
     1                           	processor	18F25K22
     2                           	fnconf	rparam,??,?,0
     3                           	pagewidth 120
     4                           	opt	flic
     5                           	psect	idataBANK0,global,class=CODE,delta=1,noexec
     6                           	psect	mediumconst,global,reloc=2,class=MEDIUMCONST,delta=1,noexec
     7                           	psect	cinit,global,reloc=2,class=CODE,delta=1
     8                           	psect	bssBANK0,global,class=BANK0,space=1,delta=1,lowdata,noexec
     9                           	psect	dataBANK0,global,class=BANK0,space=1,delta=1,lowdata,noexec
    10                           	psect	cstackBANK0,global,class=BANK0,space=1,delta=1,lowdata,noexec
    11                           	psect	cstackCOMRAM,global,class=COMRAM,space=1,delta=1,lowdata,noexec
    12                           	psect	text0,global,reloc=2,class=CODE,delta=1
    13                           	psect	text1,global,reloc=2,class=CODE,delta=1,group=3
    14                           	psect	text2,global,reloc=2,class=CODE,delta=1,group=1
    15                           	psect	text3,global,reloc=2,class=CODE,delta=1,group=1
    16                           	psect	text4,global,reloc=2,class=CODE,delta=1,group=1
    17                           	psect	text5,global,reloc=2,class=CODE,delta=1,group=1
    18                           	psect	text6,global,reloc=2,class=CODE,delta=1,group=3
    19                           	psect	text7,global,reloc=2,class=CODE,delta=1,group=3
    20                           	psect	text8,global,reloc=2,class=CODE,delta=1,group=3
    21                           	psect	text9,global,reloc=2,class=CODE,delta=1,group=3
    22                           	psect	text10,global,reloc=2,class=CODE,delta=1,group=3
    23                           	psect	text11,global,reloc=2,class=CODE,delta=1,group=2
    24                           	psect	text12,global,reloc=2,class=CODE,delta=1,group=2
    25                           	psect	text13,global,reloc=2,class=CODE,delta=1
    26                           	psect	text14,global,reloc=2,class=CODE,delta=1
    27                           	psect	text15,global,reloc=2,class=CODE,delta=1
    28                           	psect	text16,global,reloc=2,class=CODE,delta=1
    29                           	psect	text17,global,reloc=2,class=CODE,delta=1
    30                           	psect	text18,global,reloc=2,class=CODE,delta=1
    31                           	psect	text19,global,reloc=2,class=CODE,delta=1
    32                           	psect	text20,global,reloc=2,class=CODE,delta=1,group=2
    33                           	psect	text21,global,reloc=2,class=CODE,delta=1
    34                           	psect	text22,global,reloc=2,class=CODE,delta=1
    35                           	psect	text23,global,reloc=2,class=CODE,delta=1
    36                           	psect	intsave_regs,global,class=BIGRAM,space=1,delta=1,noexec
    37                           	psect	rparam,global,class=COMRAM,space=1,delta=1,noexec
    38                           	psect	idloc,global,abs,ovrld,class=IDLOC,space=5,delta=1,noexec
    39                           	psect	config,global,abs,ovrld,class=CONFIG,space=4,delta=1,noexec
    40  0000                     
    41                           ; Version 2.35
    42                           ; Generated 05/05/2021 GMT
    43                           ; 
    44                           ; Copyright © 2021, Microchip Technology Inc. and its subsidiaries ("Microchip")
    45                           ; All rights reserved.
    46                           ; 
    47                           ; This software is developed by Microchip Technology Inc. and its subsidiaries ("Microch
      +                          ip").
    48                           ; 
    49                           ; Redistribution and use in source and binary forms, with or without modification, are
    50                           ; permitted provided that the following conditions are met:
    51                           ; 
    52                           ;     1. Redistributions of source code must retain the above copyright notice, this lis
      +                          t of
    53                           ;        conditions and the following disclaimer.
    54                           ; 
    55                           ;     2. Redistributions in binary form must reproduce the above copyright notice, this 
      +                          list
    56                           ;        of conditions and the following disclaimer in the documentation and/or other
    57                           ;        materials provided with the distribution. Publication is not required when
    58                           ;        this file is used in an embedded application.
    59                           ; 
    60                           ;     3. Microchip's name may not be used to endorse or promote products derived from th
      +                          is
    61                           ;        software without specific prior written permission.
    62                           ; 
    63                           ; THIS SOFTWARE IS PROVIDED BY MICROCHIP "AS IS" AND ANY EXPRESS OR IMPLIED WARRANTIES,
    64                           ; INCLUDING, BUT NOT LIMITED TO, THE IMPLIED WARRANTIES OF MERCHANTABILITY AND FITNESS F
      +                          OR
    65                           ; PURPOSE ARE DISCLAIMED.  IN NO EVENT SHALL MICROCHIP BE LIABLE FOR ANY DIRECT, INDIREC
      +                          T,
    66                           ; INCIDENTAL, SPECIAL, EXEMPLARY, OR CONSEQUENTIAL DAMAGES (INCLUDING BUT NOT LIMITED TO
    67                           ; PROCUREMENT OF SUBSTITUTE GOODS OR SERVICES; LOSS OF USE, DATA OR PROFITS; OR BUSINESS
    68                           ; INTERRUPTION) HOWSOEVER CAUSED AND ON ANY THEORY OF LIABILITY, WHETHER IN CONTRACT, ST
      +                          RICT
    69                           ; LIABILITY, OR TORT (INCLUDING NEGLIGENCE OR OTHERWISE) ARISING IN ANY WAY OUT OF THE U
      +                          SE OF
    70                           ; THIS SOFTWARE, EVEN IF ADVISED OF THE POSSIBILITY OF SUCH DAMAGE.
    71                           ; 
    72                           ; 
    73                           ; Code-generator required, PIC18F25K22 Definitions
    74                           ; 
    75                           ; SFR Addresses
    76  0000                     
    77                           	psect	idataBANK0
    78  00697D                     __pidataBANK0:
    79                           	callstack 0
    80                           
    81                           ;initializer for _miPantalla
    82  00697D  93                 	db	147
    83  00697E  0F                 	db	15
    84  00697F  81                 	db	129
    85  006980  0F                 	db	15
    86  006981  00                 	db	0
    87  006982  01                 	db	1
    88  006983  02                 	db	2
    89  006984  03                 	db	3
    90  006985  04                 	db	4
    91                           
    92                           ;initializer for _counterStr
    93  006986  30                 	db	48
    94  006987  00                 	db	0
    95  006988  00                 	db	0
    96  006989  00                 	db	0
    97  00698A  00                 	db	0
    98  00698B  00                 	db	0
    99  00698C  00                 	db	0
   100  00698D  00                 	db	0
   101  00698E  00                 	db	0
   102  00698F  00                 	db	0
   103  006990  00                 	db	0
   104  006991  00                 	db	0
   105  006992  00                 	db	0
   106  006993  00                 	db	0
   107  006994  00                 	db	0
   108  006995  00                 	db	0
   109  006996  00                 	db	0
   110  006997  00                 	db	0
   111  006998  00                 	db	0
   112  006999  00                 	db	0
   113                           
   114                           	psect	mediumconst
   115  007BC4                     __pmediumconst:
   116                           	callstack 0
   117  007BC4  00                 	db	0
   118  007BC5                     _EYR_ImageLogo:
   119                           	callstack 0
   120  007BC5  FF                 	db	255
   121  007BC6  01                 	db	1
   122  007BC7  FD                 	db	253
   123  007BC8  FD                 	db	253
   124  007BC9  FD                 	db	253
   125  007BCA  0D                 	db	13
   126  007BCB  0D                 	db	13
   127  007BCC  0D                 	db	13
   128  007BCD  0D                 	db	13
   129  007BCE  0D                 	db	13
   130  007BCF  0D                 	db	13
   131  007BD0  0D                 	db	13
   132  007BD1  0D                 	db	13
   133  007BD2  0D                 	db	13
   134  007BD3  0D                 	db	13
   135  007BD4  CD                 	db	205
   136  007BD5  CD                 	db	205
   137  007BD6  CD                 	db	205
   138  007BD7  CD                 	db	205
   139  007BD8  CD                 	db	205
   140  007BD9  CD                 	db	205
   141  007BDA  CD                 	db	205
   142  007BDB  CD                 	db	205
   143  007BDC  CD                 	db	205
   144  007BDD  CD                 	db	205
   145  007BDE  CD                 	db	205
   146  007BDF  CD                 	db	205
   147  007BE0  FD                 	db	253
   148  007BE1  FD                 	db	253
   149  007BE2  FD                 	db	253
   150  007BE3  FD                 	db	253
   151  007BE4  3D                 	db	61
   152  007BE5  3D                 	db	61
   153  007BE6  1D                 	db	29
   154  007BE7  1D                 	db	29
   155  007BE8  0D                 	db	13
   156  007BE9  0D                 	db	13
   157  007BEA  0D                 	db	13
   158  007BEB  2D                 	db	45
   159  007BEC  ED                 	db	237
   160  007BED  ED                 	db	237
   161  007BEE  CD                 	db	205
   162  007BEF  DD                 	db	221
   163  007BF0  1D                 	db	29
   164  007BF1  7D                 	db	125
   165  007BF2  FD                 	db	253
   166  007BF3  FD                 	db	253
   167  007BF4  FD                 	db	253
   168  007BF5  FD                 	db	253
   169  007BF6  FD                 	db	253
   170  007BF7  FD                 	db	253
   171  007BF8  FD                 	db	253
   172  007BF9  FD                 	db	253
   173  007BFA  FD                 	db	253
   174  007BFB  0D                 	db	13
   175  007BFC  0D                 	db	13
   176  007BFD  0D                 	db	13
   177  007BFE  0D                 	db	13
   178  007BFF  0D                 	db	13
   179  007C00  0D                 	db	13
   180  007C01  0D                 	db	13
   181  007C02  0D                 	db	13
   182  007C03  0D                 	db	13
   183  007C04  0D                 	db	13
   184  007C05  0D                 	db	13
   185  007C06  0D                 	db	13
   186  007C07  ED                 	db	237
   187  007C08  ED                 	db	237
   188  007C09  ED                 	db	237
   189  007C0A  ED                 	db	237
   190  007C0B  CD                 	db	205
   191  007C0C  DD                 	db	221
   192  007C0D  DD                 	db	221
   193  007C0E  9D                 	db	157
   194  007C0F  3D                 	db	61
   195  007C10  7D                 	db	125
   196  007C11  FD                 	db	253
   197  007C12  FD                 	db	253
   198  007C13  FD                 	db	253
   199  007C14  FD                 	db	253
   200  007C15  FD                 	db	253
   201  007C16  FD                 	db	253
   202  007C17  01                 	db	1
   203  007C18  FF                 	db	255
   204  007C19  FF                 	db	255
   205  007C1A  00                 	db	0
   206  007C1B  FF                 	db	255
   207  007C1C  FF                 	db	255
   208  007C1D  FF                 	db	255
   209  007C1E  00                 	db	0
   210  007C1F  00                 	db	0
   211  007C20  00                 	db	0
   212  007C21  00                 	db	0
   213  007C22  00                 	db	0
   214  007C23  00                 	db	0
   215  007C24  00                 	db	0
   216  007C25  00                 	db	0
   217  007C26  00                 	db	0
   218  007C27  00                 	db	0
   219  007C28  E7                 	db	231
   220  007C29  E7                 	db	231
   221  007C2A  E7                 	db	231
   222  007C2B  E7                 	db	231
   223  007C2C  E7                 	db	231
   224  007C2D  E7                 	db	231
   225  007C2E  E7                 	db	231
   226  007C2F  E7                 	db	231
   227  007C30  E7                 	db	231
   228  007C31  E7                 	db	231
   229  007C32  E7                 	db	231
   230  007C33  E7                 	db	231
   231  007C34  FF                 	db	255
   232  007C35  FF                 	db	255
   233  007C36  FF                 	db	255
   234  007C37  F0                 	db	240
   235  007C38  80                 	db	128
   236  007C39  00                 	db	0
   237  007C3A  00                 	db	0
   238  007C3B  00                 	db	0
   239  007C3C  00                 	db	0
   240  007C3D  00                 	db	0
   241  007C3E  00                 	db	0
   242  007C3F  00                 	db	0
   243  007C40  01                 	db	1
   244  007C41  0F                 	db	15
   245  007C42  0F                 	db	15
   246  007C43  67                 	db	103
   247  007C44  F0                 	db	240
   248  007C45  FC                 	db	252
   249  007C46  FF                 	db	255
   250  007C47  FF                 	db	255
   251  007C48  FF                 	db	255
   252  007C49  7F                 	db	127
   253  007C4A  7F                 	db	127
   254  007C4B  7F                 	db	127
   255  007C4C  7F                 	db	127
   256  007C4D  FF                 	db	255
   257  007C4E  FF                 	db	255
   258  007C4F  00                 	db	0
   259  007C50  00                 	db	0
   260  007C51  00                 	db	0
   261  007C52  00                 	db	0
   262  007C53  00                 	db	0
   263  007C54  00                 	db	0
   264  007C55  00                 	db	0
   265  007C56  00                 	db	0
   266  007C57  00                 	db	0
   267  007C58  00                 	db	0
   268  007C59  00                 	db	0
   269  007C5A  00                 	db	0
   270  007C5B  FF                 	db	255
   271  007C5C  FF                 	db	255
   272  007C5D  FF                 	db	255
   273  007C5E  FF                 	db	255
   274  007C5F  FF                 	db	255
   275  007C60  FF                 	db	255
   276  007C61  FF                 	db	255
   277  007C62  FF                 	db	255
   278  007C63  FF                 	db	255
   279  007C64  FE                 	db	254
   280  007C65  00                 	db	0
   281  007C66  07                 	db	7
   282  007C67  1F                 	db	31
   283  007C68  FF                 	db	255
   284  007C69  FF                 	db	255
   285  007C6A  FF                 	db	255
   286  007C6B  00                 	db	0
   287  007C6C  FF                 	db	255
   288  007C6D  FF                 	db	255
   289  007C6E  00                 	db	0
   290  007C6F  FF                 	db	255
   291  007C70  FF                 	db	255
   292  007C71  FF                 	db	255
   293  007C72  00                 	db	0
   294  007C73  00                 	db	0
   295  007C74  00                 	db	0
   296  007C75  00                 	db	0
   297  007C76  00                 	db	0
   298  007C77  00                 	db	0
   299  007C78  00                 	db	0
   300  007C79  00                 	db	0
   301  007C7A  00                 	db	0
   302  007C7B  00                 	db	0
   303  007C7C  FF                 	db	255
   304  007C7D  FF                 	db	255
   305  007C7E  FF                 	db	255
   306  007C7F  FF                 	db	255
   307  007C80  FF                 	db	255
   308  007C81  FF                 	db	255
   309  007C82  FF                 	db	255
   310  007C83  FF                 	db	255
   311  007C84  FF                 	db	255
   312  007C85  FF                 	db	255
   313  007C86  FF                 	db	255
   314  007C87  FF                 	db	255
   315  007C88  FF                 	db	255
   316  007C89  0F                 	db	15
   317  007C8A  07                 	db	7
   318  007C8B  C1                 	db	193
   319  007C8C  F8                 	db	248
   320  007C8D  FE                 	db	254
   321  007C8E  F8                 	db	248
   322  007C8F  E0                 	db	224
   323  007C90  C0                 	db	192
   324  007C91  00                 	db	0
   325  007C92  00                 	db	0
   326  007C93  00                 	db	0
   327  007C94  00                 	db	0
   328  007C95  00                 	db	0
   329  007C96  00                 	db	0
   330  007C97  00                 	db	0
   331  007C98  00                 	db	0
   332  007C99  07                 	db	7
   333  007C9A  07                 	db	7
   334  007C9B  11                 	db	17
   335  007C9C  78                 	db	120
   336  007C9D  FE                 	db	254
   337  007C9E  FF                 	db	255
   338  007C9F  FF                 	db	255
   339  007CA0  FF                 	db	255
   340  007CA1  FF                 	db	255
   341  007CA2  FF                 	db	255
   342  007CA3  00                 	db	0
   343  007CA4  00                 	db	0
   344  007CA5  00                 	db	0
   345  007CA6  00                 	db	0
   346  007CA7  00                 	db	0
   347  007CA8  00                 	db	0
   348  007CA9  00                 	db	0
   349  007CAA  00                 	db	0
   350  007CAB  00                 	db	0
   351  007CAC  00                 	db	0
   352  007CAD  00                 	db	0
   353  007CAE  00                 	db	0
   354  007CAF  1F                 	db	31
   355  007CB0  3F                 	db	63
   356  007CB1  7F                 	db	127
   357  007CB2  7F                 	db	127
   358  007CB3  7F                 	db	127
   359  007CB4  3F                 	db	63
   360  007CB5  BF                 	db	191
   361  007CB6  9F                 	db	159
   362  007CB7  CF                 	db	207
   363  007CB8  C7                 	db	199
   364  007CB9  F0                 	db	240
   365  007CBA  F8                 	db	248
   366  007CBB  FE                 	db	254
   367  007CBC  FF                 	db	255
   368  007CBD  FF                 	db	255
   369  007CBE  FF                 	db	255
   370  007CBF  00                 	db	0
   371  007CC0  FF                 	db	255
   372  007CC1  FF                 	db	255
   373  007CC2  00                 	db	0
   374  007CC3  FF                 	db	255
   375  007CC4  FF                 	db	255
   376  007CC5  FF                 	db	255
   377  007CC6  E0                 	db	224
   378  007CC7  E0                 	db	224
   379  007CC8  E0                 	db	224
   380  007CC9  E0                 	db	224
   381  007CCA  E0                 	db	224
   382  007CCB  E0                 	db	224
   383  007CCC  E0                 	db	224
   384  007CCD  E0                 	db	224
   385  007CCE  E0                 	db	224
   386  007CCF  E0                 	db	224
   387  007CD0  E7                 	db	231
   388  007CD1  E7                 	db	231
   389  007CD2  E7                 	db	231
   390  007CD3  E7                 	db	231
   391  007CD4  E7                 	db	231
   392  007CD5  E7                 	db	231
   393  007CD6  E7                 	db	231
   394  007CD7  E7                 	db	231
   395  007CD8  E7                 	db	231
   396  007CD9  E7                 	db	231
   397  007CDA  E7                 	db	231
   398  007CDB  E7                 	db	231
   399  007CDC  FF                 	db	255
   400  007CDD  FE                 	db	254
   401  007CDE  F0                 	db	240
   402  007CDF  F1                 	db	241
   403  007CE0  E7                 	db	231
   404  007CE1  EF                 	db	239
   405  007CE2  EF                 	db	239
   406  007CE3  EF                 	db	239
   407  007CE4  EF                 	db	239
   408  007CE5  E7                 	db	231
   409  007CE6  F6                 	db	246
   410  007CE7  F0                 	db	240
   411  007CE8  F0                 	db	240
   412  007CE9  E0                 	db	224
   413  007CEA  E0                 	db	224
   414  007CEB  E0                 	db	224
   415  007CEC  E0                 	db	224
   416  007CED  E0                 	db	224
   417  007CEE  E0                 	db	224
   418  007CEF  E0                 	db	224
   419  007CF0  E0                 	db	224
   420  007CF1  E0                 	db	224
   421  007CF2  E1                 	db	225
   422  007CF3  EF                 	db	239
   423  007CF4  EF                 	db	239
   424  007CF5  FF                 	db	255
   425  007CF6  FF                 	db	255
   426  007CF7  E0                 	db	224
   427  007CF8  E0                 	db	224
   428  007CF9  E0                 	db	224
   429  007CFA  E0                 	db	224
   430  007CFB  E0                 	db	224
   431  007CFC  E0                 	db	224
   432  007CFD  E0                 	db	224
   433  007CFE  E0                 	db	224
   434  007CFF  E0                 	db	224
   435  007D00  E0                 	db	224
   436  007D01  E0                 	db	224
   437  007D02  E0                 	db	224
   438  007D03  FF                 	db	255
   439  007D04  FF                 	db	255
   440  007D05  FE                 	db	254
   441  007D06  F8                 	db	248
   442  007D07  F9                 	db	249
   443  007D08  F1                 	db	241
   444  007D09  F7                 	db	247
   445  007D0A  E7                 	db	231
   446  007D0B  E7                 	db	231
   447  007D0C  EF                 	db	239
   448  007D0D  EF                 	db	239
   449  007D0E  FF                 	db	255
   450  007D0F  FF                 	db	255
   451  007D10  FF                 	db	255
   452  007D11  FF                 	db	255
   453  007D12  FF                 	db	255
   454  007D13  00                 	db	0
   455  007D14  FF                 	db	255
   456  007D15  FF                 	db	255
   457  007D16  00                 	db	0
   458  007D17  FF                 	db	255
   459  007D18  FF                 	db	255
   460  007D19  FF                 	db	255
   461  007D1A  FF                 	db	255
   462  007D1B  FF                 	db	255
   463  007D1C  83                 	db	131
   464  007D1D  FF                 	db	255
   465  007D1E  83                 	db	131
   466  007D1F  FF                 	db	255
   467  007D20  FF                 	db	255
   468  007D21  03                 	db	3
   469  007D22  C7                 	db	199
   470  007D23  3F                 	db	63
   471  007D24  C7                 	db	199
   472  007D25  03                 	db	3
   473  007D26  FF                 	db	255
   474  007D27  FF                 	db	255
   475  007D28  0F                 	db	15
   476  007D29  EF                 	db	239
   477  007D2A  EF                 	db	239
   478  007D2B  FF                 	db	255
   479  007D2C  07                 	db	7
   480  007D2D  FB                 	db	251
   481  007D2E  FB                 	db	251
   482  007D2F  FB                 	db	251
   483  007D30  77                 	db	119
   484  007D31  FF                 	db	255
   485  007D32  FF                 	db	255
   486  007D33  03                 	db	3
   487  007D34  EF                 	db	239
   488  007D35  EF                 	db	239
   489  007D36  0F                 	db	15
   490  007D37  FF                 	db	255
   491  007D38  FF                 	db	255
   492  007D39  0F                 	db	15
   493  007D3A  FF                 	db	255
   494  007D3B  FF                 	db	255
   495  007D3C  0F                 	db	15
   496  007D3D  FF                 	db	255
   497  007D3E  FF                 	db	255
   498  007D3F  0F                 	db	15
   499  007D40  EF                 	db	239
   500  007D41  EF                 	db	239
   501  007D42  0F                 	db	15
   502  007D43  FF                 	db	255
   503  007D44  FF                 	db	255
   504  007D45  0F                 	db	15
   505  007D46  EF                 	db	239
   506  007D47  4F                 	db	79
   507  007D48  FF                 	db	255
   508  007D49  FF                 	db	255
   509  007D4A  03                 	db	3
   510  007D4B  BF                 	db	191
   511  007D4C  4F                 	db	79
   512  007D4D  FF                 	db	255
   513  007D4E  FF                 	db	255
   514  007D4F  0F                 	db	15
   515  007D50  FF                 	db	255
   516  007D51  FF                 	db	255
   517  007D52  0F                 	db	15
   518  007D53  FF                 	db	255
   519  007D54  FF                 	db	255
   520  007D55  0F                 	db	15
   521  007D56  AF                 	db	175
   522  007D57  8F                 	db	143
   523  007D58  FF                 	db	255
   524  007D59  FF                 	db	255
   525  007D5A  0F                 	db	15
   526  007D5B  AF                 	db	175
   527  007D5C  8F                 	db	143
   528  007D5D  FF                 	db	255
   529  007D5E  FF                 	db	255
   530  007D5F  83                 	db	131
   531  007D60  FF                 	db	255
   532  007D61  83                 	db	131
   533  007D62  FF                 	db	255
   534  007D63  FF                 	db	255
   535  007D64  FF                 	db	255
   536  007D65  FF                 	db	255
   537  007D66  FF                 	db	255
   538  007D67  00                 	db	0
   539  007D68  FF                 	db	255
   540  007D69  FF                 	db	255
   541  007D6A  80                 	db	128
   542  007D6B  BF                 	db	191
   543  007D6C  BF                 	db	191
   544  007D6D  BF                 	db	191
   545  007D6E  BF                 	db	191
   546  007D6F  BF                 	db	191
   547  007D70  BE                 	db	190
   548  007D71  BF                 	db	191
   549  007D72  BE                 	db	190
   550  007D73  BF                 	db	191
   551  007D74  BF                 	db	191
   552  007D75  BE                 	db	190
   553  007D76  BF                 	db	191
   554  007D77  BE                 	db	190
   555  007D78  BF                 	db	191
   556  007D79  BE                 	db	190
   557  007D7A  BF                 	db	191
   558  007D7B  BF                 	db	191
   559  007D7C  BE                 	db	190
   560  007D7D  BF                 	db	191
   561  007D7E  BF                 	db	191
   562  007D7F  BF                 	db	191
   563  007D80  BF                 	db	191
   564  007D81  BE                 	db	190
   565  007D82  BE                 	db	190
   566  007D83  BE                 	db	190
   567  007D84  BF                 	db	191
   568  007D85  BF                 	db	191
   569  007D86  BF                 	db	191
   570  007D87  BE                 	db	190
   571  007D88  BF                 	db	191
   572  007D89  BF                 	db	191
   573  007D8A  BE                 	db	190
   574  007D8B  BF                 	db	191
   575  007D8C  BF                 	db	191
   576  007D8D  BE                 	db	190
   577  007D8E  BE                 	db	190
   578  007D8F  BE                 	db	190
   579  007D90  BE                 	db	190
   580  007D91  BF                 	db	191
   581  007D92  BF                 	db	191
   582  007D93  BE                 	db	190
   583  007D94  BF                 	db	191
   584  007D95  BF                 	db	191
   585  007D96  BE                 	db	190
   586  007D97  BF                 	db	191
   587  007D98  BF                 	db	191
   588  007D99  BE                 	db	190
   589  007D9A  BE                 	db	190
   590  007D9B  BE                 	db	190
   591  007D9C  BF                 	db	191
   592  007D9D  BF                 	db	191
   593  007D9E  BE                 	db	190
   594  007D9F  BF                 	db	191
   595  007DA0  BE                 	db	190
   596  007DA1  BE                 	db	190
   597  007DA2  BF                 	db	191
   598  007DA3  BE                 	db	190
   599  007DA4  BE                 	db	190
   600  007DA5  BE                 	db	190
   601  007DA6  BE                 	db	190
   602  007DA7  BF                 	db	191
   603  007DA8  BF                 	db	191
   604  007DA9  BE                 	db	190
   605  007DAA  BE                 	db	190
   606  007DAB  BE                 	db	190
   607  007DAC  BF                 	db	191
   608  007DAD  BF                 	db	191
   609  007DAE  BE                 	db	190
   610  007DAF  BE                 	db	190
   611  007DB0  BE                 	db	190
   612  007DB1  BF                 	db	191
   613  007DB2  BF                 	db	191
   614  007DB3  BE                 	db	190
   615  007DB4  BF                 	db	191
   616  007DB5  BE                 	db	190
   617  007DB6  BF                 	db	191
   618  007DB7  BF                 	db	191
   619  007DB8  BF                 	db	191
   620  007DB9  BF                 	db	191
   621  007DBA  BF                 	db	191
   622  007DBB  80                 	db	128
   623  007DBC  FF                 	db	255
   624  007DBD                     __end_of_EYR_ImageLogo:
   625                           	callstack 0
   626  007DBD                     _FONT_NORMAL:
   627                           	callstack 0
   628  007DBD  00                 	db	0
   629  007DBE  00                 	db	0
   630  007DBF  00                 	db	0
   631  007DC0  00                 	db	0
   632  007DC1  00                 	db	0
   633  007DC2  00                 	db	0
   634  007DC3  00                 	db	0
   635  007DC4  5F                 	db	95
   636  007DC5  00                 	db	0
   637  007DC6  00                 	db	0
   638  007DC7  00                 	db	0
   639  007DC8  07                 	db	7
   640  007DC9  00                 	db	0
   641  007DCA  07                 	db	7
   642  007DCB  00                 	db	0
   643  007DCC  14                 	db	20
   644  007DCD  7F                 	db	127
   645  007DCE  14                 	db	20
   646  007DCF  7F                 	db	127
   647  007DD0  14                 	db	20
   648  007DD1  24                 	db	36
   649  007DD2  2A                 	db	42
   650  007DD3  7F                 	db	127
   651  007DD4  2A                 	db	42
   652  007DD5  12                 	db	18
   653  007DD6  23                 	db	35
   654  007DD7  13                 	db	19
   655  007DD8  08                 	db	8
   656  007DD9  64                 	db	100
   657  007DDA  62                 	db	98
   658  007DDB  36                 	db	54
   659  007DDC  49                 	db	73
   660  007DDD  55                 	db	85
   661  007DDE  22                 	db	34
   662  007DDF  50                 	db	80
   663  007DE0  00                 	db	0
   664  007DE1  05                 	db	5
   665  007DE2  03                 	db	3
   666  007DE3  00                 	db	0
   667  007DE4  00                 	db	0
   668  007DE5  00                 	db	0
   669  007DE6  1C                 	db	28
   670  007DE7  22                 	db	34
   671  007DE8  41                 	db	65
   672  007DE9  00                 	db	0
   673  007DEA  00                 	db	0
   674  007DEB  41                 	db	65
   675  007DEC  22                 	db	34
   676  007DED  1C                 	db	28
   677  007DEE  00                 	db	0
   678  007DEF  14                 	db	20
   679  007DF0  08                 	db	8
   680  007DF1  3E                 	db	62
   681  007DF2  08                 	db	8
   682  007DF3  14                 	db	20
   683  007DF4  08                 	db	8
   684  007DF5  08                 	db	8
   685  007DF6  3E                 	db	62
   686  007DF7  08                 	db	8
   687  007DF8  08                 	db	8
   688  007DF9  00                 	db	0
   689  007DFA  50                 	db	80
   690  007DFB  30                 	db	48
   691  007DFC  00                 	db	0
   692  007DFD  00                 	db	0
   693  007DFE  08                 	db	8
   694  007DFF  08                 	db	8
   695  007E00  08                 	db	8
   696  007E01  08                 	db	8
   697  007E02  08                 	db	8
   698  007E03  00                 	db	0
   699  007E04  60                 	db	96
   700  007E05  60                 	db	96
   701  007E06  00                 	db	0
   702  007E07  00                 	db	0
   703  007E08  20                 	db	32
   704  007E09  10                 	db	16
   705  007E0A  08                 	db	8
   706  007E0B  04                 	db	4
   707  007E0C  02                 	db	2
   708  007E0D  3E                 	db	62
   709  007E0E  51                 	db	81
   710  007E0F  49                 	db	73
   711  007E10  45                 	db	69
   712  007E11  3E                 	db	62
   713  007E12  00                 	db	0
   714  007E13  42                 	db	66
   715  007E14  7F                 	db	127
   716  007E15  40                 	db	64
   717  007E16  00                 	db	0
   718  007E17  42                 	db	66
   719  007E18  61                 	db	97
   720  007E19  51                 	db	81
   721  007E1A  49                 	db	73
   722  007E1B  46                 	db	70
   723  007E1C  21                 	db	33
   724  007E1D  41                 	db	65
   725  007E1E  45                 	db	69
   726  007E1F  4B                 	db	75
   727  007E20  31                 	db	49
   728  007E21  18                 	db	24
   729  007E22  14                 	db	20
   730  007E23  12                 	db	18
   731  007E24  7F                 	db	127
   732  007E25  10                 	db	16
   733  007E26  27                 	db	39
   734  007E27  45                 	db	69
   735  007E28  45                 	db	69
   736  007E29  45                 	db	69
   737  007E2A  39                 	db	57
   738  007E2B  3C                 	db	60
   739  007E2C  4A                 	db	74
   740  007E2D  49                 	db	73
   741  007E2E  49                 	db	73
   742  007E2F  30                 	db	48
   743  007E30  01                 	db	1
   744  007E31  71                 	db	113
   745  007E32  09                 	db	9
   746  007E33  05                 	db	5
   747  007E34  03                 	db	3
   748  007E35  36                 	db	54
   749  007E36  49                 	db	73
   750  007E37  49                 	db	73
   751  007E38  49                 	db	73
   752  007E39  36                 	db	54
   753  007E3A  06                 	db	6
   754  007E3B  49                 	db	73
   755  007E3C  49                 	db	73
   756  007E3D  29                 	db	41
   757  007E3E  1E                 	db	30
   758  007E3F  00                 	db	0
   759  007E40  36                 	db	54
   760  007E41  36                 	db	54
   761  007E42  00                 	db	0
   762  007E43  00                 	db	0
   763  007E44  00                 	db	0
   764  007E45  56                 	db	86
   765  007E46  36                 	db	54
   766  007E47  00                 	db	0
   767  007E48  00                 	db	0
   768  007E49  08                 	db	8
   769  007E4A  14                 	db	20
   770  007E4B  22                 	db	34
   771  007E4C  41                 	db	65
   772  007E4D  00                 	db	0
   773  007E4E  14                 	db	20
   774  007E4F  14                 	db	20
   775  007E50  14                 	db	20
   776  007E51  14                 	db	20
   777  007E52  14                 	db	20
   778  007E53  00                 	db	0
   779  007E54  41                 	db	65
   780  007E55  22                 	db	34
   781  007E56  14                 	db	20
   782  007E57  08                 	db	8
   783  007E58  02                 	db	2
   784  007E59  01                 	db	1
   785  007E5A  51                 	db	81
   786  007E5B  09                 	db	9
   787  007E5C  06                 	db	6
   788  007E5D  32                 	db	50
   789  007E5E  49                 	db	73
   790  007E5F  79                 	db	121
   791  007E60  41                 	db	65
   792  007E61  3E                 	db	62
   793  007E62  7E                 	db	126
   794  007E63  11                 	db	17
   795  007E64  11                 	db	17
   796  007E65  11                 	db	17
   797  007E66  7E                 	db	126
   798  007E67  7F                 	db	127
   799  007E68  49                 	db	73
   800  007E69  49                 	db	73
   801  007E6A  49                 	db	73
   802  007E6B  36                 	db	54
   803  007E6C  3E                 	db	62
   804  007E6D  41                 	db	65
   805  007E6E  41                 	db	65
   806  007E6F  41                 	db	65
   807  007E70  22                 	db	34
   808  007E71  7F                 	db	127
   809  007E72  41                 	db	65
   810  007E73  41                 	db	65
   811  007E74  22                 	db	34
   812  007E75  1C                 	db	28
   813  007E76  7F                 	db	127
   814  007E77  49                 	db	73
   815  007E78  49                 	db	73
   816  007E79  49                 	db	73
   817  007E7A  41                 	db	65
   818  007E7B  7F                 	db	127
   819  007E7C  09                 	db	9
   820  007E7D  09                 	db	9
   821  007E7E  09                 	db	9
   822  007E7F  01                 	db	1
   823  007E80  3E                 	db	62
   824  007E81  41                 	db	65
   825  007E82  49                 	db	73
   826  007E83  49                 	db	73
   827  007E84  7A                 	db	122
   828  007E85  7F                 	db	127
   829  007E86  08                 	db	8
   830  007E87  08                 	db	8
   831  007E88  08                 	db	8
   832  007E89  7F                 	db	127
   833  007E8A  00                 	db	0
   834  007E8B  41                 	db	65
   835  007E8C  7F                 	db	127
   836  007E8D  41                 	db	65
   837  007E8E  00                 	db	0
   838  007E8F  20                 	db	32
   839  007E90  40                 	db	64
   840  007E91  41                 	db	65
   841  007E92  3F                 	db	63
   842  007E93  01                 	db	1
   843  007E94  7F                 	db	127
   844  007E95  08                 	db	8
   845  007E96  14                 	db	20
   846  007E97  22                 	db	34
   847  007E98  41                 	db	65
   848  007E99  7F                 	db	127
   849  007E9A  40                 	db	64
   850  007E9B  40                 	db	64
   851  007E9C  40                 	db	64
   852  007E9D  40                 	db	64
   853  007E9E  7F                 	db	127
   854  007E9F  02                 	db	2
   855  007EA0  0C                 	db	12
   856  007EA1  02                 	db	2
   857  007EA2  7F                 	db	127
   858  007EA3  7F                 	db	127
   859  007EA4  04                 	db	4
   860  007EA5  08                 	db	8
   861  007EA6  10                 	db	16
   862  007EA7  7F                 	db	127
   863  007EA8  3E                 	db	62
   864  007EA9  41                 	db	65
   865  007EAA  41                 	db	65
   866  007EAB  41                 	db	65
   867  007EAC  3E                 	db	62
   868  007EAD  7F                 	db	127
   869  007EAE  09                 	db	9
   870  007EAF  09                 	db	9
   871  007EB0  09                 	db	9
   872  007EB1  06                 	db	6
   873  007EB2  3E                 	db	62
   874  007EB3  41                 	db	65
   875  007EB4  51                 	db	81
   876  007EB5  21                 	db	33
   877  007EB6  5E                 	db	94
   878  007EB7  7F                 	db	127
   879  007EB8  09                 	db	9
   880  007EB9  19                 	db	25
   881  007EBA  29                 	db	41
   882  007EBB  46                 	db	70
   883  007EBC  46                 	db	70
   884  007EBD  49                 	db	73
   885  007EBE  49                 	db	73
   886  007EBF  49                 	db	73
   887  007EC0  31                 	db	49
   888  007EC1  01                 	db	1
   889  007EC2  01                 	db	1
   890  007EC3  7F                 	db	127
   891  007EC4  01                 	db	1
   892  007EC5  01                 	db	1
   893  007EC6  3F                 	db	63
   894  007EC7  40                 	db	64
   895  007EC8  40                 	db	64
   896  007EC9  40                 	db	64
   897  007ECA  3F                 	db	63
   898  007ECB  1F                 	db	31
   899  007ECC  20                 	db	32
   900  007ECD  40                 	db	64
   901  007ECE  20                 	db	32
   902  007ECF  1F                 	db	31
   903  007ED0  3F                 	db	63
   904  007ED1  40                 	db	64
   905  007ED2  38                 	db	56
   906  007ED3  40                 	db	64
   907  007ED4  3F                 	db	63
   908  007ED5  63                 	db	99
   909  007ED6  14                 	db	20
   910  007ED7  08                 	db	8
   911  007ED8  14                 	db	20
   912  007ED9  63                 	db	99
   913  007EDA  07                 	db	7
   914  007EDB  08                 	db	8
   915  007EDC  70                 	db	112
   916  007EDD  08                 	db	8
   917  007EDE  07                 	db	7
   918  007EDF  61                 	db	97
   919  007EE0  51                 	db	81
   920  007EE1  49                 	db	73
   921  007EE2  45                 	db	69
   922  007EE3  43                 	db	67
   923  007EE4  00                 	db	0
   924  007EE5  7F                 	db	127
   925  007EE6  41                 	db	65
   926  007EE7  41                 	db	65
   927  007EE8  00                 	db	0
   928  007EE9  02                 	db	2
   929  007EEA  04                 	db	4
   930  007EEB  08                 	db	8
   931  007EEC  10                 	db	16
   932  007EED  20                 	db	32
   933  007EEE  00                 	db	0
   934  007EEF  41                 	db	65
   935  007EF0  41                 	db	65
   936  007EF1  7F                 	db	127
   937  007EF2  00                 	db	0
   938  007EF3  04                 	db	4
   939  007EF4  02                 	db	2
   940  007EF5  01                 	db	1
   941  007EF6  02                 	db	2
   942  007EF7  04                 	db	4
   943  007EF8  40                 	db	64
   944  007EF9  40                 	db	64
   945  007EFA  40                 	db	64
   946  007EFB  40                 	db	64
   947  007EFC  40                 	db	64
   948  007EFD  00                 	db	0
   949  007EFE  01                 	db	1
   950  007EFF  02                 	db	2
   951  007F00  04                 	db	4
   952  007F01  00                 	db	0
   953  007F02  20                 	db	32
   954  007F03  54                 	db	84
   955  007F04  54                 	db	84
   956  007F05  54                 	db	84
   957  007F06  78                 	db	120
   958  007F07  7F                 	db	127
   959  007F08  48                 	db	72
   960  007F09  44                 	db	68
   961  007F0A  44                 	db	68
   962  007F0B  38                 	db	56
   963  007F0C  38                 	db	56
   964  007F0D  44                 	db	68
   965  007F0E  44                 	db	68
   966  007F0F  44                 	db	68
   967  007F10  20                 	db	32
   968  007F11  38                 	db	56
   969  007F12  44                 	db	68
   970  007F13  44                 	db	68
   971  007F14  48                 	db	72
   972  007F15  7F                 	db	127
   973  007F16  38                 	db	56
   974  007F17  54                 	db	84
   975  007F18  54                 	db	84
   976  007F19  54                 	db	84
   977  007F1A  18                 	db	24
   978  007F1B  08                 	db	8
   979  007F1C  7E                 	db	126
   980  007F1D  09                 	db	9
   981  007F1E  01                 	db	1
   982  007F1F  02                 	db	2
   983  007F20  0C                 	db	12
   984  007F21  52                 	db	82
   985  007F22  52                 	db	82
   986  007F23  52                 	db	82
   987  007F24  3E                 	db	62
   988  007F25  7F                 	db	127
   989  007F26  08                 	db	8
   990  007F27  04                 	db	4
   991  007F28  04                 	db	4
   992  007F29  78                 	db	120
   993  007F2A  00                 	db	0
   994  007F2B  44                 	db	68
   995  007F2C  7D                 	db	125
   996  007F2D  40                 	db	64
   997  007F2E  00                 	db	0
   998  007F2F  20                 	db	32
   999  007F30  40                 	db	64
  1000  007F31  44                 	db	68
  1001  007F32  3D                 	db	61
  1002  007F33  00                 	db	0
  1003  007F34  7F                 	db	127
  1004  007F35  10                 	db	16
  1005  007F36  28                 	db	40
  1006  007F37  44                 	db	68
  1007  007F38  00                 	db	0
  1008  007F39  00                 	db	0
  1009  007F3A  41                 	db	65
  1010  007F3B  7F                 	db	127
  1011  007F3C  40                 	db	64
  1012  007F3D  00                 	db	0
  1013  007F3E  7C                 	db	124
  1014  007F3F  04                 	db	4
  1015  007F40  18                 	db	24
  1016  007F41  04                 	db	4
  1017  007F42  78                 	db	120
  1018  007F43  7C                 	db	124
  1019  007F44  08                 	db	8
  1020  007F45  04                 	db	4
  1021  007F46  04                 	db	4
  1022  007F47  78                 	db	120
  1023  007F48  38                 	db	56
  1024  007F49  44                 	db	68
  1025  007F4A  44                 	db	68
  1026  007F4B  44                 	db	68
  1027  007F4C  38                 	db	56
  1028  007F4D  7C                 	db	124
  1029  007F4E  14                 	db	20
  1030  007F4F  14                 	db	20
  1031  007F50  14                 	db	20
  1032  007F51  08                 	db	8
  1033  007F52  08                 	db	8
  1034  007F53  14                 	db	20
  1035  007F54  14                 	db	20
  1036  007F55  18                 	db	24
  1037  007F56  7C                 	db	124
  1038  007F57  7C                 	db	124
  1039  007F58  08                 	db	8
  1040  007F59  04                 	db	4
  1041  007F5A  04                 	db	4
  1042  007F5B  08                 	db	8
  1043  007F5C  48                 	db	72
  1044  007F5D  54                 	db	84
  1045  007F5E  54                 	db	84
  1046  007F5F  54                 	db	84
  1047  007F60  20                 	db	32
  1048  007F61  04                 	db	4
  1049  007F62  3F                 	db	63
  1050  007F63  44                 	db	68
  1051  007F64  40                 	db	64
  1052  007F65  20                 	db	32
  1053  007F66  3C                 	db	60
  1054  007F67  40                 	db	64
  1055  007F68  40                 	db	64
  1056  007F69  20                 	db	32
  1057  007F6A  7C                 	db	124
  1058  007F6B  1C                 	db	28
  1059  007F6C  20                 	db	32
  1060  007F6D  40                 	db	64
  1061  007F6E  20                 	db	32
  1062  007F6F  1C                 	db	28
  1063  007F70  3C                 	db	60
  1064  007F71  40                 	db	64
  1065  007F72  30                 	db	48
  1066  007F73  40                 	db	64
  1067  007F74  3C                 	db	60
  1068  007F75  44                 	db	68
  1069  007F76  28                 	db	40
  1070  007F77  10                 	db	16
  1071  007F78  28                 	db	40
  1072  007F79  44                 	db	68
  1073  007F7A  0C                 	db	12
  1074  007F7B  50                 	db	80
  1075  007F7C  50                 	db	80
  1076  007F7D  50                 	db	80
  1077  007F7E  3C                 	db	60
  1078  007F7F  44                 	db	68
  1079  007F80  64                 	db	100
  1080  007F81  54                 	db	84
  1081  007F82  4C                 	db	76
  1082  007F83  44                 	db	68
  1083  007F84  00                 	db	0
  1084  007F85  08                 	db	8
  1085  007F86  36                 	db	54
  1086  007F87  41                 	db	65
  1087  007F88  00                 	db	0
  1088  007F89  00                 	db	0
  1089  007F8A  00                 	db	0
  1090  007F8B  7F                 	db	127
  1091  007F8C  00                 	db	0
  1092  007F8D  00                 	db	0
  1093  007F8E  00                 	db	0
  1094  007F8F  41                 	db	65
  1095  007F90  36                 	db	54
  1096  007F91  08                 	db	8
  1097  007F92  00                 	db	0
  1098  007F93  10                 	db	16
  1099  007F94  08                 	db	8
  1100  007F95  08                 	db	8
  1101  007F96  10                 	db	16
  1102  007F97  08                 	db	8
  1103  007F98  78                 	db	120
  1104  007F99  46                 	db	70
  1105  007F9A  41                 	db	65
  1106  007F9B  46                 	db	70
  1107  007F9C  78                 	db	120
  1108  007F9D                     __end_of_FONT_NORMAL:
  1109                           	callstack 0
  1110  007F9D                     _carita:
  1111                           	callstack 0
  1112  007F9D  FC                 	db	252
  1113  007F9E  07                 	db	7
  1114  007F9F  01                 	db	1
  1115  007FA0  00                 	db	0
  1116  007FA1  3C                 	db	60
  1117  007FA2  24                 	db	36
  1118  007FA3  3C                 	db	60
  1119  007FA4  00                 	db	0
  1120  007FA5  80                 	db	128
  1121  007FA6  00                 	db	0
  1122  007FA7  7C                 	db	124
  1123  007FA8  44                 	db	68
  1124  007FA9  44                 	db	68
  1125  007FAA  7C                 	db	124
  1126  007FAB  00                 	db	0
  1127  007FAC  01                 	db	1
  1128  007FAD  1F                 	db	31
  1129  007FAE  70                 	db	112
  1130  007FAF  C0                 	db	192
  1131  007FB0  80                 	db	128
  1132  007FB1  0E                 	db	14
  1133  007FB2  38                 	db	56
  1134  007FB3  20                 	db	32
  1135  007FB4  61                 	db	97
  1136  007FB5  41                 	db	65
  1137  007FB6  40                 	db	64
  1138  007FB7  60                 	db	96
  1139  007FB8  22                 	db	34
  1140  007FB9  3A                 	db	58
  1141  007FBA  0E                 	db	14
  1142  007FBB  82                 	db	130
  1143  007FBC  C2                 	db	194
  1144  007FBD                     __end_of_carita:
  1145                           	callstack 0
  1146  0000                     _ANSELC	set	3898
  1147  0000                     _ANSELB	set	3897
  1148  0000                     _ANSELA	set	3896
  1149  0000                     _PORTB	set	3969
  1150  0000                     _TRISB	set	3987
  1151  0000                     _OSCCONbits	set	4051
  1152  007FBD                     STR_4:
  1153  007FBD  4D                 	db	77	;'M'
  1154  007FBE  50                 	db	80	;'P'
  1155  007FBF  4C                 	db	76	;'L'
  1156  007FC0  41                 	db	65	;'A'
  1157  007FC1  42                 	db	66	;'B'
  1158  007FC2  58                 	db	88	;'X'
  1159  007FC3  20                 	db	32
  1160  007FC4  26                 	db	38
  1161  007FC5  20                 	db	32
  1162  007FC6  58                 	db	88	;'X'
  1163  007FC7  43                 	db	67	;'C'
  1164  007FC8  38                 	db	56	;'8'
  1165  007FC9  00                 	db	0
  1166  007FCA                     STR_1:
  1167  007FCA  4C                 	db	76	;'L'
  1168  007FCB  69                 	db	105	;'i'
  1169  007FCC  62                 	db	98	;'b'
  1170  007FCD  72                 	db	114	;'r'
  1171  007FCE  65                 	db	101	;'e'
  1172  007FCF  72                 	db	114	;'r'
  1173  007FD0  69                 	db	105	;'i'
  1174  007FD1  61                 	db	97	;'a'
  1175  007FD2  20                 	db	32
  1176  007FD3  4C                 	db	76	;'L'
  1177  007FD4  43                 	db	67	;'C'
  1178  007FD5  44                 	db	68	;'D'
  1179  007FD6  00                 	db	0
  1180  007FD7                     STR_3:
  1181  007FD7  4D                 	db	77	;'M'
  1182  007FD8  72                 	db	114	;'r'
  1183  007FD9  43                 	db	67	;'C'
  1184  007FDA  68                 	db	104	;'h'
  1185  007FDB  75                 	db	117	;'u'
  1186  007FDC  6E                 	db	110	;'n'
  1187  007FDD  63                 	db	99	;'c'
  1188  007FDE  6B                 	db	107	;'k'
  1189  007FDF  75                 	db	117	;'u'
  1190  007FE0  65                 	db	101	;'e'
  1191  007FE1  65                 	db	101	;'e'
  1192  007FE2  00                 	db	0
  1193  007FE3                     STR_2:
  1194  007FE3  4E                 	db	78	;'N'
  1195  007FE4  6F                 	db	111	;'o'
  1196  007FE5  6B                 	db	107	;'k'
  1197  007FE6  69                 	db	105	;'i'
  1198  007FE7  61                 	db	97	;'a'
  1199  007FE8  20                 	db	32
  1200  007FE9  35                 	db	53	;'5'
  1201  007FEA  31                 	db	49	;'1'
  1202  007FEB  31                 	db	49	;'1'
  1203  007FEC  30                 	db	48	;'0'
  1204  007FED  00                 	db	0
  1205  007FEE                     STR_5:
  1206  007FEE  43                 	db	67	;'C'
  1207  007FEF  6F                 	db	111	;'o'
  1208  007FF0  6E                 	db	110	;'n'
  1209  007FF1  74                 	db	116	;'t'
  1210  007FF2  65                 	db	101	;'e'
  1211  007FF3  6F                 	db	111	;'o'
  1212  007FF4  3A                 	db	58	;':'
  1213  007FF5  00                 	db	0
  1214  007FF6                     STR_7:
  1215  007FF6  20                 	db	32
  1216  007FF7  20                 	db	32
  1217  007FF8  20                 	db	32
  1218  007FF9  20                 	db	32
  1219  007FFA  00                 	db	0
  1220  007FFB                     STR_6:
  1221  007FFB  25                 	db	37
  1222  007FFC  64                 	db	100	;'d'
  1223  007FFD  00                 	db	0
  1224  007FFE  00                 	db	0	; dummy byte at the end
  1225  0000                     
  1226                           ; #config settings
  1227                           
  1228                           	psect	cinit
  1229  0069D0                     __pcinit:
  1230                           	callstack 0
  1231  0069D0                     start_initialization:
  1232                           	callstack 0
  1233  0069D0                     __initialization:
  1234                           	callstack 0
  1235                           
  1236                           ; Initialize objects allocated to BANK0 (29 bytes)
  1237                           ; load TBLPTR registers with __pidataBANK0
  1238  0069D0  0E7D               	movlw	low __pidataBANK0
  1239  0069D2  6EF6               	movwf	tblptrl,c
  1240  0069D4  0E69               	movlw	high __pidataBANK0
  1241  0069D6  6EF7               	movwf	tblptrh,c
  1242  0069D8  0E00               	movlw	low (__pidataBANK0 shr (0+16))
  1243  0069DA  6EF8               	movwf	tblptru,c
  1244  0069DC  EE00  F093         	lfsr	0,__pdataBANK0
  1245  0069E0  EE10 F01D          	lfsr	1,29
  1246  0069E4                     copy_data0:
  1247  0069E4  0009               	tblrd		*+
  1248  0069E6  CFF5 FFEE          	movff	tablat,postinc0
  1249  0069EA  50E5               	movf	postdec1,w,c
  1250  0069EC  50E1               	movf	fsr1l,w,c
  1251  0069EE  E1FA               	bnz	copy_data0
  1252                           
  1253                           ; Clear objects allocated to BANK0 (51 bytes)
  1254  0069F0  EE00  F060         	lfsr	0,__pbssBANK0
  1255  0069F4  0E33               	movlw	51
  1256  0069F6                     clear_0:
  1257  0069F6  6AEE               	clrf	postinc0,c
  1258  0069F8  06E8               	decf	wreg,f,c
  1259  0069FA  E1FD               	bnz	clear_0
  1260  0069FC                     end_of_initialization:
  1261                           	callstack 0
  1262  0069FC                     __end_of__initialization:
  1263                           	callstack 0
  1264  0069FC  0E00               	movlw	low (__Lmediumconst shr (0+16))
  1265  0069FE  6EF8               	movwf	tblptru,c
  1266  006A00  0100               	movlb	0
  1267  006A02  EF46  F039         	goto	_main	;jump to C main() function
  1268                           
  1269                           	psect	bssBANK0
  1270  000060                     __pbssBANK0:
  1271                           	callstack 0
  1272  000060                     _Nokia5110:
  1273                           	callstack 0
  1274  000060                     	ds	9
  1275  000069                     _nout:
  1276                           	callstack 0
  1277  000069                     	ds	2
  1278  00006B                     _width:
  1279                           	callstack 0
  1280  00006B                     	ds	2
  1281  00006D                     _prec:
  1282                           	callstack 0
  1283  00006D                     	ds	2
  1284  00006F                     _flags:
  1285                           	callstack 0
  1286  00006F                     	ds	2
  1287  000071                     _counter:
  1288                           	callstack 0
  1289  000071                     	ds	2
  1290  000073                     _dbuf:
  1291                           	callstack 0
  1292  000073                     	ds	32
  1293                           
  1294                           	psect	dataBANK0
  1295  000093                     __pdataBANK0:
  1296                           	callstack 0
  1297  000093                     _miPantalla:
  1298                           	callstack 0
  1299  000093                     	ds	9
  1300  00009C                     _counterStr:
  1301                           	callstack 0
  1302  00009C                     	ds	20
  1303                           
  1304                           	psect	cstackBANK0
  1305  0000B0                     __pcstackBANK0:
  1306                           	callstack 0
  1307  0000B0                     sprintf@ap:
  1308                           	callstack 0
  1309                           
  1310                           ; 2 bytes @ 0x0
  1311  0000B0                     	ds	2
  1312  0000B2                     sprintf@f:
  1313                           	callstack 0
  1314                           
  1315                           ; 11 bytes @ 0x2
  1316  0000B2                     	ds	11
  1317                           
  1318                           	psect	cstackCOMRAM
  1319  000001                     __pcstackCOMRAM:
  1320                           	callstack 0
  1321  000001                     ??_LCDNokia5110_WriteSPI:
  1322  000001                     ?_strlen:
  1323                           	callstack 0
  1324  000001                     ?___awdiv:
  1325                           	callstack 0
  1326  000001                     ?___aodiv:
  1327                           	callstack 0
  1328  000001                     ?___aomod:
  1329                           	callstack 0
  1330  000001                     ___awdiv@dividend:
  1331                           	callstack 0
  1332  000001                     fputc@c:
  1333                           	callstack 0
  1334  000001                     strlen@s:
  1335                           	callstack 0
  1336  000001                     ___aodiv@dividend:
  1337                           	callstack 0
  1338  000001                     ___aomod@dividend:
  1339                           	callstack 0
  1340                           
  1341                           ; 8 bytes @ 0x0
  1342  000001                     	ds	2
  1343  000003                     ___awdiv@divisor:
  1344                           	callstack 0
  1345  000003                     fputc@fp:
  1346                           	callstack 0
  1347  000003                     strlen@a:
  1348                           	callstack 0
  1349                           
  1350                           ; 2 bytes @ 0x2
  1351  000003                     	ds	1
  1352  000004                     LCDNokia5110_WriteSPI@outData:
  1353                           	callstack 0
  1354                           
  1355                           ; 1 bytes @ 0x3
  1356  000004                     	ds	1
  1357  000005                     ??_fputc:
  1358  000005                     LCDNokia5110_WriteSPI@i:
  1359                           	callstack 0
  1360  000005                     ___awdiv@counter:
  1361                           	callstack 0
  1362                           
  1363                           ; 1 bytes @ 0x4
  1364  000005                     	ds	1
  1365  000006                     LCDNokia5110_Write@data:
  1366                           	callstack 0
  1367  000006                     ___awdiv@sign:
  1368                           	callstack 0
  1369                           
  1370                           ; 1 bytes @ 0x5
  1371  000006                     	ds	1
  1372  000007                     ??_LCDNokia5110_Write:
  1373  000007                     ___awdiv@quotient:
  1374                           	callstack 0
  1375                           
  1376                           ; 2 bytes @ 0x6
  1377  000007                     	ds	2
  1378  000009                     ___aodiv@divisor:
  1379                           	callstack 0
  1380  000009                     ___aomod@divisor:
  1381                           	callstack 0
  1382                           
  1383                           ; 8 bytes @ 0x8
  1384  000009                     	ds	1
  1385  00000A                     LCDNokia5110_Write@mode:
  1386                           	callstack 0
  1387  00000A                     fputs@s:
  1388                           	callstack 0
  1389                           
  1390                           ; 2 bytes @ 0x9
  1391  00000A                     	ds	1
  1392  00000B                     ??_LCDNokia5110_putC:
  1393  00000B                     LCDNokia5110_GotoXY@y:
  1394                           	callstack 0
  1395  00000B                     LCDNokia5110_Initialize@lcd:
  1396                           	callstack 0
  1397                           
  1398                           ; 9 bytes @ 0xA
  1399  00000B                     	ds	1
  1400  00000C                     LCDNokia5110_GotoXY@x:
  1401                           	callstack 0
  1402  00000C                     fputs@fp:
  1403                           	callstack 0
  1404                           
  1405                           ; 2 bytes @ 0xB
  1406  00000C                     	ds	1
  1407  00000D                     LCDNokia5110_Clear@index:
  1408                           	callstack 0
  1409  00000D                     LCDNokia5110_Image@IMAGE:
  1410                           	callstack 0
  1411  00000D                     LCDNokia5110_Bitmap@BITMAP:
  1412                           	callstack 0
  1413                           
  1414                           ; 2 bytes @ 0xC
  1415  00000D                     	ds	1
  1416  00000E                     fputs@c:
  1417                           	callstack 0
  1418                           
  1419                           ; 1 bytes @ 0xD
  1420  00000E                     	ds	1
  1421  00000F                     LCDNokia5110_putC@data:
  1422                           	callstack 0
  1423  00000F                     LCDNokia5110_Image@x:
  1424                           	callstack 0
  1425  00000F                     LCDNokia5110_Bitmap@x:
  1426                           	callstack 0
  1427  00000F                     fputs@i:
  1428                           	callstack 0
  1429                           
  1430                           ; 2 bytes @ 0xE
  1431  00000F                     	ds	1
  1432  000010                     LCDNokia5110_Image@y:
  1433                           	callstack 0
  1434  000010                     LCDNokia5110_Bitmap@y:
  1435                           	callstack 0
  1436  000010                     LCDNokia5110_putC@index:
  1437                           	callstack 0
  1438                           
  1439                           ; 2 bytes @ 0xF
  1440  000010                     	ds	1
  1441  000011                     ??_LCDNokia5110_Image:
  1442  000011                     ?_pad:
  1443                           	callstack 0
  1444  000011                     LCDNokia5110_Bitmap@width:
  1445                           	callstack 0
  1446  000011                     ___aodiv@counter:
  1447                           	callstack 0
  1448  000011                     ___aomod@counter:
  1449                           	callstack 0
  1450  000011                     pad@fp:
  1451                           	callstack 0
  1452                           
  1453                           ; 2 bytes @ 0x10
  1454  000011                     	ds	1
  1455  000012                     LCDNokia5110_Bitmap@height:
  1456                           	callstack 0
  1457  000012                     ___aodiv@sign:
  1458                           	callstack 0
  1459  000012                     ___aomod@sign:
  1460                           	callstack 0
  1461  000012                     LCDNokia5110_putStr@dataStr:
  1462                           	callstack 0
  1463                           
  1464                           ; 2 bytes @ 0x11
  1465  000012                     	ds	1
  1466  000013                     ??_LCDNokia5110_Bitmap:
  1467  000013                     ?_abs:
  1468                           	callstack 0
  1469  000013                     LCDNokia5110_Image@index:
  1470                           	callstack 0
  1471  000013                     pad@buf:
  1472                           	callstack 0
  1473  000013                     abs@a:
  1474                           	callstack 0
  1475  000013                     ___aodiv@quotient:
  1476                           	callstack 0
  1477                           
  1478                           ; 8 bytes @ 0x12
  1479  000013                     	ds	1
  1480  000014                     ??_LCDNokia5110_Initialize:
  1481  000014                     LCDNokia5110_putStr@x:
  1482                           	callstack 0
  1483                           
  1484                           ; 1 bytes @ 0x13
  1485  000014                     	ds	1
  1486  000015                     ??_abs:
  1487  000015                     LCDNokia5110_putStr@y:
  1488                           	callstack 0
  1489  000015                     pad@p:
  1490                           	callstack 0
  1491                           
  1492                           ; 2 bytes @ 0x14
  1493  000015                     	ds	1
  1494  000016                     LCDNokia5110_Bitmap@i:
  1495                           	callstack 0
  1496                           
  1497                           ; 1 bytes @ 0x15
  1498  000016                     	ds	1
  1499  000017                     ??_pad:
  1500  000017                     LCDNokia5110_Bitmap@p:
  1501                           	callstack 0
  1502                           
  1503                           ; 1 bytes @ 0x16
  1504  000017                     	ds	1
  1505  000018                     pad@i:
  1506                           	callstack 0
  1507                           
  1508                           ; 2 bytes @ 0x17
  1509  000018                     	ds	2
  1510  00001A                     pad@w:
  1511                           	callstack 0
  1512                           
  1513                           ; 2 bytes @ 0x19
  1514  00001A                     	ds	2
  1515  00001C                     ?_dtoa:
  1516                           	callstack 0
  1517  00001C                     dtoa@fp:
  1518                           	callstack 0
  1519                           
  1520                           ; 2 bytes @ 0x1B
  1521  00001C                     	ds	2
  1522  00001E                     dtoa@d:
  1523                           	callstack 0
  1524                           
  1525                           ; 8 bytes @ 0x1D
  1526  00001E                     	ds	8
  1527  000026                     ??_dtoa:
  1528                           
  1529                           ; 1 bytes @ 0x25
  1530  000026                     	ds	8
  1531  00002E                     _dtoa$748:
  1532                           	callstack 0
  1533                           
  1534                           ; 2 bytes @ 0x2D
  1535  00002E                     	ds	2
  1536  000030                     dtoa@p:
  1537                           	callstack 0
  1538                           
  1539                           ; 2 bytes @ 0x2F
  1540  000030                     	ds	2
  1541  000032                     dtoa@w:
  1542                           	callstack 0
  1543                           
  1544                           ; 2 bytes @ 0x31
  1545  000032                     	ds	2
  1546  000034                     dtoa@s:
  1547                           	callstack 0
  1548                           
  1549                           ; 2 bytes @ 0x33
  1550  000034                     	ds	2
  1551  000036                     dtoa@n:
  1552                           	callstack 0
  1553                           
  1554                           ; 8 bytes @ 0x35
  1555  000036                     	ds	8
  1556  00003E                     dtoa@i:
  1557                           	callstack 0
  1558                           
  1559                           ; 2 bytes @ 0x3D
  1560  00003E                     	ds	2
  1561  000040                     ?_vfpfcnvrt:
  1562                           	callstack 0
  1563  000040                     vfpfcnvrt@fp:
  1564                           	callstack 0
  1565                           
  1566                           ; 2 bytes @ 0x3F
  1567  000040                     	ds	2
  1568  000042                     vfpfcnvrt@fmt:
  1569                           	callstack 0
  1570                           
  1571                           ; 2 bytes @ 0x41
  1572  000042                     	ds	2
  1573  000044                     vfpfcnvrt@ap:
  1574                           	callstack 0
  1575                           
  1576                           ; 2 bytes @ 0x43
  1577  000044                     	ds	2
  1578  000046                     ??_vfpfcnvrt:
  1579                           
  1580                           ; 1 bytes @ 0x45
  1581  000046                     	ds	2
  1582  000048                     vfpfcnvrt@ll:
  1583                           	callstack 0
  1584                           
  1585                           ; 8 bytes @ 0x47
  1586  000048                     	ds	8
  1587  000050                     ?_vfprintf:
  1588                           	callstack 0
  1589  000050                     vfprintf@fp:
  1590                           	callstack 0
  1591                           
  1592                           ; 2 bytes @ 0x4F
  1593  000050                     	ds	2
  1594  000052                     vfprintf@fmt:
  1595                           	callstack 0
  1596                           
  1597                           ; 2 bytes @ 0x51
  1598  000052                     	ds	2
  1599  000054                     vfprintf@ap:
  1600                           	callstack 0
  1601                           
  1602                           ; 2 bytes @ 0x53
  1603  000054                     	ds	2
  1604  000056                     vfprintf@cfmt:
  1605                           	callstack 0
  1606                           
  1607                           ; 2 bytes @ 0x55
  1608  000056                     	ds	2
  1609  000058                     ?_sprintf:
  1610                           	callstack 0
  1611  000058                     sprintf@s:
  1612                           	callstack 0
  1613                           
  1614                           ; 2 bytes @ 0x57
  1615  000058                     	ds	2
  1616  00005A                     sprintf@fmt:
  1617                           	callstack 0
  1618                           
  1619                           ; 2 bytes @ 0x59
  1620  00005A                     	ds	4
  1621  00005E                     ??_main:
  1622                           
  1623                           ; 1 bytes @ 0x5D
  1624  00005E                     	ds	2
  1625                           
  1626 ;;
  1627 ;;Main: autosize = 0, tempsize = 2, incstack = 0, save=0
  1628 ;;
  1629 ;; *************** function _main *****************
  1630 ;; Defined at:
  1631 ;;		line 49 in file "main.c"
  1632 ;; Parameters:    Size  Location     Type
  1633 ;;		None
  1634 ;; Auto vars:     Size  Location     Type
  1635 ;;		None
  1636 ;; Return value:  Size  Location     Type
  1637 ;;                  1    wreg      void 
  1638 ;; Registers used:
  1639 ;;		wreg, fsr0l, fsr0h, fsr1l, fsr1h, fsr2l, fsr2h, status,2, status,0, tblptrl, tblptrh, tblptru, prodl, prodh, cstack
  1640 ;; Tracked objects:
  1641 ;;		On entry : 0/0
  1642 ;;		On exit  : 0/0
  1643 ;;		Unchanged: 0/0
  1644 ;; Data sizes:     COMRAM   BANK0   BANK1   BANK2   BANK3   BANK4   BANK5
  1645 ;;      Params:         0       0       0       0       0       0       0
  1646 ;;      Locals:         0       0       0       0       0       0       0
  1647 ;;      Temps:          2       0       0       0       0       0       0
  1648 ;;      Totals:         2       0       0       0       0       0       0
  1649 ;;Total ram usage:        2 bytes
  1650 ;; Hardware stack levels required when called: 8
  1651 ;; This function calls:
  1652 ;;		_LCDNokia5110_Bitmap
  1653 ;;		_LCDNokia5110_Clear
  1654 ;;		_LCDNokia5110_Image
  1655 ;;		_LCDNokia5110_Initialize
  1656 ;;		_LCDNokia5110_putStr
  1657 ;;		_MCU_Initialize
  1658 ;;		_sprintf
  1659 ;; This function is called by:
  1660 ;;		Startup code after reset
  1661 ;; This function uses a non-reentrant model
  1662 ;;
  1663                           
  1664                           	psect	text0
  1665  00728C                     __ptext0:
  1666                           	callstack 0
  1667  00728C                     _main:
  1668                           	callstack 23
  1669  00728C                     
  1670                           ;main.c: 50:     MCU_Initialize();
  1671  00728C  ECB0  F034         	call	_MCU_Initialize	;wreg free
  1672  007290                     
  1673                           ;main.c: 52:     LCDNokia5110_Initialize(miPantalla);
  1674  007290  EE20  F093         	lfsr	2,_miPantalla
  1675  007294  EE00  F00B         	lfsr	0,LCDNokia5110_Initialize@lcd
  1676  007298  0E08               	movlw	8
  1677  00729A                     u1591:
  1678  00729A  CFDB FFEB          	movff	plusw2,plusw0
  1679  00729E  06E8               	decf	wreg,f,c
  1680  0072A0  E2FC               	bc	u1591
  1681  0072A2  ECCB  F03A         	call	_LCDNokia5110_Initialize	;wreg free
  1682  0072A6                     
  1683                           ;main.c: 53:     LCDNokia5110_Clear();
  1684  0072A6  EC03  F035         	call	_LCDNokia5110_Clear	;wreg free
  1685  0072AA                     
  1686                           ;main.c: 54:     _delay((unsigned long)((10)*(8000000/4000.0)));
  1687  0072AA  0E1A               	movlw	26
  1688  0072AC  6E5E               	movwf	??_main^0,c
  1689  0072AE  0EF8               	movlw	248
  1690  0072B0                     u1617:
  1691  0072B0  2EE8               	decfsz	wreg,f,c
  1692  0072B2  D7FE               	bra	u1617
  1693  0072B4  2E5E               	decfsz	??_main^0,f,c
  1694  0072B6  D7FC               	bra	u1617
  1695  0072B8  D000               	nop2	
  1696  0072BA                     
  1697                           ;main.c: 57:     LCDNokia5110_Image(EYR_ImageLogo, 0, 0);
  1698  0072BA  0EC5               	movlw	low _EYR_ImageLogo
  1699  0072BC  6E0D               	movwf	LCDNokia5110_Image@IMAGE^0,c
  1700  0072BE  0E7B               	movlw	high _EYR_ImageLogo
  1701  0072C0  6E0E               	movwf	(LCDNokia5110_Image@IMAGE+1)^0,c
  1702  0072C2  0E00               	movlw	0
  1703  0072C4  6E0F               	movwf	LCDNokia5110_Image@x^0,c
  1704  0072C6  0E00               	movlw	0
  1705  0072C8  6E10               	movwf	LCDNokia5110_Image@y^0,c
  1706  0072CA  EC8D  F035         	call	_LCDNokia5110_Image	;wreg free
  1707  0072CE                     
  1708                           ;main.c: 58:     _delay((unsigned long)((2000)*(8000000/4000.0)));
  1709  0072CE  0E15               	movlw	21
  1710  0072D0  6E5F               	movwf	(??_main+1)^0,c
  1711  0072D2  0E4B               	movlw	75
  1712  0072D4  6E5E               	movwf	??_main^0,c
  1713  0072D6  0EBE               	movlw	190
  1714  0072D8                     u1627:
  1715  0072D8  2EE8               	decfsz	wreg,f,c
  1716  0072DA  D7FE               	bra	u1627
  1717  0072DC  2E5E               	decfsz	??_main^0,f,c
  1718  0072DE  D7FC               	bra	u1627
  1719  0072E0  2E5F               	decfsz	(??_main+1)^0,f,c
  1720  0072E2  D7FA               	bra	u1627
  1721  0072E4  D000               	nop2	
  1722  0072E6                     
  1723                           ;main.c: 59:     LCDNokia5110_Clear();
  1724  0072E6  EC03  F035         	call	_LCDNokia5110_Clear	;wreg free
  1725  0072EA                     
  1726                           ;main.c: 60:     LCDNokia5110_putStr("Libreria LCD", 0, 0);
  1727  0072EA  0ECA               	movlw	low STR_1
  1728  0072EC  6E12               	movwf	LCDNokia5110_putStr@dataStr^0,c
  1729  0072EE  0E7F               	movlw	high STR_1
  1730  0072F0  6E13               	movwf	(LCDNokia5110_putStr@dataStr+1)^0,c
  1731  0072F2  0E00               	movlw	0
  1732  0072F4  6E14               	movwf	LCDNokia5110_putStr@x^0,c
  1733  0072F6  0E00               	movlw	0
  1734  0072F8  6E15               	movwf	LCDNokia5110_putStr@y^0,c
  1735  0072FA  ECE8  F035         	call	_LCDNokia5110_putStr	;wreg free
  1736  0072FE                     
  1737                           ;main.c: 61:     LCDNokia5110_putStr("Nokia 5110", 0, 1);
  1738  0072FE  0EE3               	movlw	low STR_2
  1739  007300  6E12               	movwf	LCDNokia5110_putStr@dataStr^0,c
  1740  007302  0E7F               	movlw	high STR_2
  1741  007304  6E13               	movwf	(LCDNokia5110_putStr@dataStr+1)^0,c
  1742  007306  0E00               	movlw	0
  1743  007308  6E14               	movwf	LCDNokia5110_putStr@x^0,c
  1744  00730A  0E01               	movlw	1
  1745  00730C  6E15               	movwf	LCDNokia5110_putStr@y^0,c
  1746  00730E  ECE8  F035         	call	_LCDNokia5110_putStr	;wreg free
  1747  007312                     
  1748                           ;main.c: 62:     LCDNokia5110_putStr("MrChunckuee", 0, 2);
  1749  007312  0ED7               	movlw	low STR_3
  1750  007314  6E12               	movwf	LCDNokia5110_putStr@dataStr^0,c
  1751  007316  0E7F               	movlw	high STR_3
  1752  007318  6E13               	movwf	(LCDNokia5110_putStr@dataStr+1)^0,c
  1753  00731A  0E00               	movlw	0
  1754  00731C  6E14               	movwf	LCDNokia5110_putStr@x^0,c
  1755  00731E  0E02               	movlw	2
  1756  007320  6E15               	movwf	LCDNokia5110_putStr@y^0,c
  1757  007322  ECE8  F035         	call	_LCDNokia5110_putStr	;wreg free
  1758  007326                     
  1759                           ;main.c: 63:     LCDNokia5110_putStr("MPLABX & XC8", 0, 3);
  1760  007326  0EBD               	movlw	low STR_4
  1761  007328  6E12               	movwf	LCDNokia5110_putStr@dataStr^0,c
  1762  00732A  0E7F               	movlw	high STR_4
  1763  00732C  6E13               	movwf	(LCDNokia5110_putStr@dataStr+1)^0,c
  1764  00732E  0E00               	movlw	0
  1765  007330  6E14               	movwf	LCDNokia5110_putStr@x^0,c
  1766  007332  0E03               	movlw	3
  1767  007334  6E15               	movwf	LCDNokia5110_putStr@y^0,c
  1768  007336  ECE8  F035         	call	_LCDNokia5110_putStr	;wreg free
  1769  00733A                     
  1770                           ;main.c: 64:     _delay((unsigned long)((2000)*(8000000/4000.0)));
  1771  00733A  0E15               	movlw	21
  1772  00733C  6E5F               	movwf	(??_main+1)^0,c
  1773  00733E  0E4B               	movlw	75
  1774  007340  6E5E               	movwf	??_main^0,c
  1775  007342  0EBE               	movlw	190
  1776  007344                     u1637:
  1777  007344  2EE8               	decfsz	wreg,f,c
  1778  007346  D7FE               	bra	u1637
  1779  007348  2E5E               	decfsz	??_main^0,f,c
  1780  00734A  D7FC               	bra	u1637
  1781  00734C  2E5F               	decfsz	(??_main+1)^0,f,c
  1782  00734E  D7FA               	bra	u1637
  1783  007350  D000               	nop2	
  1784  007352                     
  1785                           ;main.c: 65:     LCDNokia5110_Clear();
  1786  007352  EC03  F035         	call	_LCDNokia5110_Clear	;wreg free
  1787  007356                     
  1788                           ;main.c: 67:     LCDNokia5110_Bitmap(carita, 40, 3, 16, 16);
  1789  007356  0E9D               	movlw	low _carita
  1790  007358  6E0D               	movwf	LCDNokia5110_Bitmap@BITMAP^0,c
  1791  00735A  0E7F               	movlw	high _carita
  1792  00735C  6E0E               	movwf	(LCDNokia5110_Bitmap@BITMAP+1)^0,c
  1793  00735E  0E28               	movlw	40
  1794  007360  6E0F               	movwf	LCDNokia5110_Bitmap@x^0,c
  1795  007362  0E03               	movlw	3
  1796  007364  6E10               	movwf	LCDNokia5110_Bitmap@y^0,c
  1797  007366  0E10               	movlw	16
  1798  007368  6E11               	movwf	LCDNokia5110_Bitmap@width^0,c
  1799  00736A  0E10               	movlw	16
  1800  00736C  6E12               	movwf	LCDNokia5110_Bitmap@height^0,c
  1801  00736E  EC5C  F036         	call	_LCDNokia5110_Bitmap	;wreg free
  1802  007372                     l1861:
  1803                           
  1804                           ;main.c: 70:         counter++;
  1805  007372  0100               	movlb	0	; () banked
  1806  007374  4B71               	infsnz	_counter& (0+255),f,b
  1807  007376  2B72               	incf	(_counter+1)& (0+255),f,b
  1808  007378                     
  1809                           ; BSR set to: 0
  1810                           ;main.c: 71:         if(counter>=1234)
  1811  007378  0ED2               	movlw	210
  1812  00737A  5D71               	subwf	_counter& (0+255),w,b
  1813  00737C  0E04               	movlw	4
  1814  00737E  5972               	subwfb	(_counter+1)& (0+255),w,b
  1815  007380  A0D8               	btfss	status,0,c
  1816  007382  EFC5  F039         	goto	u1601
  1817  007386  EFC7  F039         	goto	u1600
  1818  00738A                     u1601:
  1819  00738A  EFCB  F039         	goto	l1867
  1820  00738E                     u1600:
  1821  00738E                     
  1822                           ; BSR set to: 0
  1823                           ;main.c: 72:             counter = 0;
  1824  00738E  0E00               	movlw	0
  1825  007390  6F72               	movwf	(_counter+1)& (0+255),b
  1826  007392  0E00               	movlw	0
  1827  007394  6F71               	movwf	_counter& (0+255),b
  1828  007396                     l1867:
  1829                           
  1830                           ; BSR set to: 0
  1831                           ;main.c: 73:         LCDNokia5110_putStr("Conteo:", 0, 0);
  1832  007396  0EEE               	movlw	low STR_5
  1833  007398  6E12               	movwf	LCDNokia5110_putStr@dataStr^0,c
  1834  00739A  0E7F               	movlw	high STR_5
  1835  00739C  6E13               	movwf	(LCDNokia5110_putStr@dataStr+1)^0,c
  1836  00739E  0E00               	movlw	0
  1837  0073A0  6E14               	movwf	LCDNokia5110_putStr@x^0,c
  1838  0073A2  0E00               	movlw	0
  1839  0073A4  6E15               	movwf	LCDNokia5110_putStr@y^0,c
  1840  0073A6  ECE8  F035         	call	_LCDNokia5110_putStr	;wreg free
  1841  0073AA                     
  1842                           ;main.c: 74:         sprintf(counterStr, "%d", counter);
  1843  0073AA  0E9C               	movlw	low _counterStr
  1844  0073AC  6E58               	movwf	sprintf@s^0,c
  1845  0073AE  0E00               	movlw	high _counterStr
  1846  0073B0  6E59               	movwf	(sprintf@s+1)^0,c
  1847  0073B2  0EFB               	movlw	low STR_6
  1848  0073B4  6E5A               	movwf	sprintf@fmt^0,c
  1849  0073B6  0E7F               	movlw	high STR_6
  1850  0073B8  6E5B               	movwf	(sprintf@fmt+1)^0,c
  1851  0073BA  C071  F05C         	movff	_counter,?_sprintf+4
  1852  0073BE  C072  F05D         	movff	_counter+1,?_sprintf+5
  1853  0073C2  EC64  F035         	call	_sprintf	;wreg free
  1854  0073C6                     
  1855                           ;main.c: 75:         LCDNokia5110_putStr("    ", 20, 1);
  1856  0073C6  0EF6               	movlw	low STR_7
  1857  0073C8  6E12               	movwf	LCDNokia5110_putStr@dataStr^0,c
  1858  0073CA  0E7F               	movlw	high STR_7
  1859  0073CC  6E13               	movwf	(LCDNokia5110_putStr@dataStr+1)^0,c
  1860  0073CE  0E14               	movlw	20
  1861  0073D0  6E14               	movwf	LCDNokia5110_putStr@x^0,c
  1862  0073D2  0E01               	movlw	1
  1863  0073D4  6E15               	movwf	LCDNokia5110_putStr@y^0,c
  1864  0073D6  ECE8  F035         	call	_LCDNokia5110_putStr	;wreg free
  1865  0073DA                     
  1866                           ;main.c: 76:         LCDNokia5110_putStr(counterStr, 20, 1);
  1867  0073DA  0E9C               	movlw	low _counterStr
  1868  0073DC  6E12               	movwf	LCDNokia5110_putStr@dataStr^0,c
  1869  0073DE  0E00               	movlw	high _counterStr
  1870  0073E0  6E13               	movwf	(LCDNokia5110_putStr@dataStr+1)^0,c
  1871  0073E2  0E14               	movlw	20
  1872  0073E4  6E14               	movwf	LCDNokia5110_putStr@x^0,c
  1873  0073E6  0E01               	movlw	1
  1874  0073E8  6E15               	movwf	LCDNokia5110_putStr@y^0,c
  1875  0073EA  ECE8  F035         	call	_LCDNokia5110_putStr	;wreg free
  1876  0073EE                     
  1877                           ;main.c: 77:         _delay((unsigned long)((200)*(8000000/4000.0)));
  1878  0073EE  0E03               	movlw	3
  1879  0073F0  6E5F               	movwf	(??_main+1)^0,c
  1880  0073F2  0E08               	movlw	8
  1881  0073F4  6E5E               	movwf	??_main^0,c
  1882  0073F6  0E77               	movlw	119
  1883  0073F8                     u1647:
  1884  0073F8  2EE8               	decfsz	wreg,f,c
  1885  0073FA  D7FE               	bra	u1647
  1886  0073FC  2E5E               	decfsz	??_main^0,f,c
  1887  0073FE  D7FC               	bra	u1647
  1888  007400  2E5F               	decfsz	(??_main+1)^0,f,c
  1889  007402  D7FA               	bra	u1647
  1890  007404  F000               	nop	
  1891  007406  EFB9  F039         	goto	l1861
  1892  00740A  EF00  F000         	goto	start
  1893  00740E                     __end_of_main:
  1894                           	callstack 0
  1895                           
  1896 ;; *************** function _sprintf *****************
  1897 ;; Defined at:
  1898 ;;		line 9 in file "C:\Program Files\Microchip\xc8\v2.36\pic\sources\c99\common\nf_sprintf.c"
  1899 ;; Parameters:    Size  Location     Type
  1900 ;;  s               2   87[COMRAM] PTR unsigned char 
  1901 ;;		 -> counterStr(20), 
  1902 ;;  fmt             2   89[COMRAM] PTR const unsigned char 
  1903 ;;		 -> STR_6(3), 
  1904 ;; Auto vars:     Size  Location     Type
  1905 ;;  f              11    2[BANK0 ] struct _IO_FILE
  1906 ;;  ap              2    0[BANK0 ] PTR void [1]
  1907 ;;		 -> ?_sprintf(2), 
  1908 ;;  ret             2    0        int 
  1909 ;; Return value:  Size  Location     Type
  1910 ;;                  2   87[COMRAM] int 
  1911 ;; Registers used:
  1912 ;;		wreg, fsr1l, fsr1h, fsr2l, fsr2h, status,2, status,0, tblptrl, tblptrh, tblptru, cstack
  1913 ;; Tracked objects:
  1914 ;;		On entry : 0/0
  1915 ;;		On exit  : 0/0
  1916 ;;		Unchanged: 0/0
  1917 ;; Data sizes:     COMRAM   BANK0   BANK1   BANK2   BANK3   BANK4   BANK5
  1918 ;;      Params:         6       0       0       0       0       0       0
  1919 ;;      Locals:         0      13       0       0       0       0       0
  1920 ;;      Temps:          0       0       0       0       0       0       0
  1921 ;;      Totals:         6      13       0       0       0       0       0
  1922 ;;Total ram usage:       19 bytes
  1923 ;; Hardware stack levels used: 1
  1924 ;; Hardware stack levels required when called: 7
  1925 ;; This function calls:
  1926 ;;		_vfprintf
  1927 ;; This function is called by:
  1928 ;;		_main
  1929 ;; This function uses a non-reentrant model
  1930 ;;
  1931                           
  1932                           	psect	text1
  1933  006AC8                     __ptext1:
  1934                           	callstack 0
  1935  006AC8                     _sprintf:
  1936                           	callstack 23
  1937  006AC8  0E5C               	movlw	low (?_sprintf+4)
  1938  006ACA  0100               	movlb	0	; () banked
  1939  006ACC  6FB0               	movwf	sprintf@ap& (0+255),b
  1940  006ACE  0E00               	movlw	high (?_sprintf+4)
  1941  006AD0  6FB1               	movwf	(sprintf@ap+1)& (0+255),b
  1942  006AD2  C058  F0B2         	movff	sprintf@s,sprintf@f
  1943  006AD6  C059  F0B3         	movff	sprintf@s+1,sprintf@f+1
  1944  006ADA                     
  1945                           ; BSR set to: 0
  1946  006ADA  0E00               	movlw	0
  1947  006ADC  6FB6               	movwf	(sprintf@f+4)& (0+255),b
  1948  006ADE  0E00               	movlw	0
  1949  006AE0  6FB5               	movwf	(sprintf@f+3)& (0+255),b
  1950  006AE2                     
  1951                           ; BSR set to: 0
  1952  006AE2  0E00               	movlw	0
  1953  006AE4  6FBC               	movwf	(sprintf@f+10)& (0+255),b
  1954  006AE6  0E00               	movlw	0
  1955  006AE8  6FBB               	movwf	(sprintf@f+9)& (0+255),b
  1956  006AEA                     
  1957                           ; BSR set to: 0
  1958  006AEA  0EB2               	movlw	low sprintf@f
  1959  006AEC  6E50               	movwf	vfprintf@fp^0,c
  1960  006AEE  0E00               	movlw	high sprintf@f
  1961  006AF0  6E51               	movwf	(vfprintf@fp+1)^0,c
  1962  006AF2  C05A  F052         	movff	sprintf@fmt,vfprintf@fmt
  1963  006AF6  C05B  F053         	movff	sprintf@fmt+1,vfprintf@fmt+1
  1964  006AFA  0EB0               	movlw	low sprintf@ap
  1965  006AFC  6E54               	movwf	vfprintf@ap^0,c
  1966  006AFE  0E00               	movlw	high sprintf@ap
  1967  006B00  6E55               	movwf	(vfprintf@ap+1)^0,c
  1968  006B02  ECB7  F035         	call	_vfprintf	;wreg free
  1969  006B06  0100               	movlb	0	; () banked
  1970  006B08  51B5               	movf	(sprintf@f+3)& (0+255),w,b
  1971  006B0A  2458               	addwf	sprintf@s^0,w,c
  1972  006B0C  6ED9               	movwf	fsr2l,c
  1973  006B0E  51B6               	movf	(sprintf@f+4)& (0+255),w,b
  1974  006B10  2059               	addwfc	(sprintf@s+1)^0,w,c
  1975  006B12  6EDA               	movwf	fsr2h,c
  1976  006B14  0E00               	movlw	0
  1977  006B16  6EDF               	movwf	indf2,c
  1978  006B18                     
  1979                           ; BSR set to: 0
  1980  006B18  0012               	return		;funcret
  1981  006B1A                     __end_of_sprintf:
  1982                           	callstack 0
  1983                           
  1984 ;; *************** function _vfprintf *****************
  1985 ;; Defined at:
  1986 ;;		line 1390 in file "C:\Program Files\Microchip\xc8\v2.36\pic\sources\c99\common\doprnt.c"
  1987 ;; Parameters:    Size  Location     Type
  1988 ;;  fp              2   79[COMRAM] PTR struct _IO_FILE
  1989 ;;		 -> sprintf@f(11), 
  1990 ;;  fmt             2   81[COMRAM] PTR const unsigned char 
  1991 ;;		 -> STR_6(3), 
  1992 ;;  ap              2   83[COMRAM] PTR PTR void 
  1993 ;;		 -> sprintf@ap(2), 
  1994 ;; Auto vars:     Size  Location     Type
  1995 ;;  cfmt            2   85[COMRAM] PTR unsigned char 
  1996 ;;		 -> STR_6(3), 
  1997 ;; Return value:  Size  Location     Type
  1998 ;;                  2   79[COMRAM] int 
  1999 ;; Registers used:
  2000 ;;		wreg, fsr1l, fsr1h, fsr2l, fsr2h, status,2, status,0, tblptrl, tblptrh, tblptru, cstack
  2001 ;; Tracked objects:
  2002 ;;		On entry : 0/0
  2003 ;;		On exit  : 0/0
  2004 ;;		Unchanged: 0/0
  2005 ;; Data sizes:     COMRAM   BANK0   BANK1   BANK2   BANK3   BANK4   BANK5
  2006 ;;      Params:         6       0       0       0       0       0       0
  2007 ;;      Locals:         2       0       0       0       0       0       0
  2008 ;;      Temps:          0       0       0       0       0       0       0
  2009 ;;      Totals:         8       0       0       0       0       0       0
  2010 ;;Total ram usage:        8 bytes
  2011 ;; Hardware stack levels used: 1
  2012 ;; Hardware stack levels required when called: 6
  2013 ;; This function calls:
  2014 ;;		_vfpfcnvrt
  2015 ;; This function is called by:
  2016 ;;		_sprintf
  2017 ;; This function uses a non-reentrant model
  2018 ;;
  2019                           
  2020                           	psect	text2
  2021  006B6E                     __ptext2:
  2022                           	callstack 0
  2023  006B6E                     _vfprintf:
  2024                           	callstack 23
  2025  006B6E                     
  2026                           ;C:\Program Files\Microchip\xc8\v2.36\pic\sources\c99\common\doprnt.c: 1390: int vfprint
      +                          f(FILE *fp, const char *fmt, va_list ap);C:\Program Files\Microchip\xc8\v2.36\pic\source
      +                          s\c99\common\doprnt.c: 1391: {;C:\Program Files\Microchip\xc8\v2.36\pic\sources\c99\comm
      +                          on\doprnt.c: 1393:     char *cfmt;;C:\Program Files\Microchip\xc8\v2.36\pic\sources\c99\
      +                          common\doprnt.c: 1395:     cfmt = (char *)fmt;
  2027  006B6E  C052  F056         	movff	vfprintf@fmt,vfprintf@cfmt
  2028  006B72  C053  F057         	movff	vfprintf@fmt+1,vfprintf@cfmt+1
  2029  006B76                     
  2030                           ;C:\Program Files\Microchip\xc8\v2.36\pic\sources\c99\common\doprnt.c: 1396:     nout = 
      +                          0;
  2031  006B76  0E00               	movlw	0
  2032  006B78  0100               	movlb	0	; () banked
  2033  006B7A  6F6A               	movwf	(_nout+1)& (0+255),b
  2034  006B7C  0E00               	movlw	0
  2035  006B7E  6F69               	movwf	_nout& (0+255),b
  2036                           
  2037                           ;C:\Program Files\Microchip\xc8\v2.36\pic\sources\c99\common\doprnt.c: 1397:     while (
      +                          *cfmt) {
  2038  006B80  EFD5  F035         	goto	l1731
  2039  006B84                     l1729:
  2040                           
  2041                           ; BSR set to: 0
  2042                           ;C:\Program Files\Microchip\xc8\v2.36\pic\sources\c99\common\doprnt.c: 1398:         nou
      +                          t += vfpfcnvrt(fp, &cfmt, ap);
  2043  006B84  C050  F040         	movff	vfprintf@fp,vfpfcnvrt@fp
  2044  006B88  C051  F041         	movff	vfprintf@fp+1,vfpfcnvrt@fp+1
  2045  006B8C  0E56               	movlw	low vfprintf@cfmt
  2046  006B8E  6E42               	movwf	vfpfcnvrt@fmt^0,c
  2047  006B90  0E00               	movlw	high vfprintf@cfmt
  2048  006B92  6E43               	movwf	(vfpfcnvrt@fmt+1)^0,c
  2049  006B94  C054  F044         	movff	vfprintf@ap,vfpfcnvrt@ap
  2050  006B98  C055  F045         	movff	vfprintf@ap+1,vfpfcnvrt@ap+1
  2051  006B9C  EC97  F03B         	call	_vfpfcnvrt	;wreg free
  2052  006BA0  5040               	movf	?_vfpfcnvrt^0,w,c
  2053  006BA2  0100               	movlb	0	; () banked
  2054  006BA4  2769               	addwf	_nout& (0+255),f,b
  2055  006BA6  5041               	movf	(?_vfpfcnvrt+1)^0,w,c
  2056  006BA8  236A               	addwfc	(_nout+1)& (0+255),f,b
  2057  006BAA                     l1731:
  2058                           
  2059                           ; BSR set to: 0
  2060                           ;C:\Program Files\Microchip\xc8\v2.36\pic\sources\c99\common\doprnt.c: 1397:     while (
      +                          *cfmt) {
  2061  006BAA  C056  FFF6         	movff	vfprintf@cfmt,tblptrl
  2062  006BAE  C057  FFF7         	movff	vfprintf@cfmt+1,tblptrh
  2063  006BB2                     	if	0	;tblptru may be non-zero
  2064  006BB2                     	endif
  2065  006BB2                     	if	0	;tblptru may be non-zero
  2066  006BB2                     	endif
  2067  006BB2  0008               	tblrd		*
  2068  006BB4  50F5               	movf	tablat,w,c
  2069  006BB6  0900               	iorlw	0
  2070  006BB8  A4D8               	btfss	status,2,c
  2071  006BBA  EFE1  F035         	goto	u1421
  2072  006BBE  EFE3  F035         	goto	u1420
  2073  006BC2                     u1421:
  2074  006BC2  EFC2  F035         	goto	l1729
  2075  006BC6                     u1420:
  2076  006BC6                     
  2077                           ; BSR set to: 0
  2078                           ;C:\Program Files\Microchip\xc8\v2.36\pic\sources\c99\common\doprnt.c: 1400:     return 
      +                          nout;
  2079  006BC6  C069  F050         	movff	_nout,?_vfprintf
  2080  006BCA  C06A  F051         	movff	_nout+1,?_vfprintf+1
  2081  006BCE                     
  2082                           ; BSR set to: 0
  2083  006BCE  0012               	return		;funcret
  2084  006BD0                     __end_of_vfprintf:
  2085                           	callstack 0
  2086                           
  2087 ;; *************** function _vfpfcnvrt *****************
  2088 ;; Defined at:
  2089 ;;		line 692 in file "C:\Program Files\Microchip\xc8\v2.36\pic\sources\c99\common\doprnt.c"
  2090 ;; Parameters:    Size  Location     Type
  2091 ;;  fp              2   63[COMRAM] PTR struct _IO_FILE
  2092 ;;		 -> sprintf@f(11), 
  2093 ;;  fmt             2   65[COMRAM] PTR PTR unsigned char 
  2094 ;;		 -> vfprintf@cfmt(2), 
  2095 ;;  ap              2   67[COMRAM] PTR PTR void 
  2096 ;;		 -> sprintf@ap(2), 
  2097 ;; Auto vars:     Size  Location     Type
  2098 ;;  ll              8   71[COMRAM] long long 
  2099 ;;  llu             8    0        unsigned long long 
  2100 ;;  f               4    0        unsigned long long 
  2101 ;;  vp              3    0        PTR void 
  2102 ;;  ct              3    0        unsigned char [3]
  2103 ;;  cp              3    0        PTR unsigned char 
  2104 ;;  i               2    0        int 
  2105 ;;  done            2    0        int 
  2106 ;;  c               1    0        unsigned char 
  2107 ;; Return value:  Size  Location     Type
  2108 ;;                  2   63[COMRAM] int 
  2109 ;; Registers used:
  2110 ;;		wreg, fsr1l, fsr1h, fsr2l, fsr2h, status,2, status,0, tblptrl, tblptrh, tblptru, cstack
  2111 ;; Tracked objects:
  2112 ;;		On entry : 0/0
  2113 ;;		On exit  : 0/0
  2114 ;;		Unchanged: 0/0
  2115 ;; Data sizes:     COMRAM   BANK0   BANK1   BANK2   BANK3   BANK4   BANK5
  2116 ;;      Params:         6       0       0       0       0       0       0
  2117 ;;      Locals:         8       0       0       0       0       0       0
  2118 ;;      Temps:          2       0       0       0       0       0       0
  2119 ;;      Totals:        16       0       0       0       0       0       0
  2120 ;;Total ram usage:       16 bytes
  2121 ;; Hardware stack levels used: 1
  2122 ;; Hardware stack levels required when called: 5
  2123 ;; This function calls:
  2124 ;;		_dtoa
  2125 ;;		_fputc
  2126 ;; This function is called by:
  2127 ;;		_vfprintf
  2128 ;; This function uses a non-reentrant model
  2129 ;;
  2130                           
  2131                           	psect	text3
  2132  00772E                     __ptext3:
  2133                           	callstack 0
  2134  00772E                     _vfpfcnvrt:
  2135                           	callstack 23
  2136  00772E                     
  2137                           ;C:\Program Files\Microchip\xc8\v2.36\pic\sources\c99\common\doprnt.c: 692: static int v
      +                          fpfcnvrt(FILE *fp, char *fmt[], va_list ap);C:\Program Files\Microchip\xc8\v2.36\pic\sou
      +                          rces\c99\common\doprnt.c: 693: {;C:\Program Files\Microchip\xc8\v2.36\pic\sources\c99\co
      +                          mmon\doprnt.c: 694:     char c, *cp, ct[3];;C:\Program Files\Microchip\xc8\v2.36\pic\sou
      +                          rces\c99\common\doprnt.c: 695:     int done, i;;C:\Program Files\Microchip\xc8\v2.36\pic
      +                          \sources\c99\common\doprnt.c: 696:     long long ll;;C:\Program Files\Microchip\xc8\v2.3
      +                          6\pic\sources\c99\common\doprnt.c: 697:     unsigned long long llu;
  2138  00772E  C042  FFD9         	movff	vfpfcnvrt@fmt,fsr2l
  2139  007732  C043  FFDA         	movff	vfpfcnvrt@fmt+1,fsr2h
  2140  007736  CFDE FFF6          	movff	postinc2,tblptrl
  2141  00773A  CFDD FFF7          	movff	postdec2,tblptrh
  2142  00773E                     	if	0	;tblptru may be non-zero
  2143  00773E                     	endif
  2144  00773E                     	if	0	;tblptru may be non-zero
  2145  00773E                     	endif
  2146  00773E  0008               	tblrd		*
  2147  007740  50F5               	movf	tablat,w,c
  2148  007742  0A25               	xorlw	37
  2149  007744  A4D8               	btfss	status,2,c
  2150  007746  EFA7  F03B         	goto	u1311
  2151  00774A  EFA9  F03B         	goto	u1310
  2152  00774E                     u1311:
  2153  00774E  EF55  F03C         	goto	l1655
  2154  007752                     u1310:
  2155  007752                     
  2156                           ;C:\Program Files\Microchip\xc8\v2.36\pic\sources\c99\common\doprnt.c: 703:         ++*f
      +                          mt;
  2157  007752  C042  FFD9         	movff	vfpfcnvrt@fmt,fsr2l
  2158  007756  C043  FFDA         	movff	vfpfcnvrt@fmt+1,fsr2h
  2159  00775A  2ADE               	incf	postinc2,f,c
  2160  00775C  0E00               	movlw	0
  2161  00775E  22DD               	addwfc	postdec2,f,c
  2162  007760                     
  2163                           ;C:\Program Files\Microchip\xc8\v2.36\pic\sources\c99\common\doprnt.c: 705:         flag
      +                          s = width = 0;
  2164  007760  0E00               	movlw	0
  2165  007762  0100               	movlb	0	; () banked
  2166  007764  6F6C               	movwf	(_width+1)& (0+255),b
  2167  007766  0E00               	movlw	0
  2168  007768  6F6B               	movwf	_width& (0+255),b
  2169  00776A  C06B  F06F         	movff	_width,_flags
  2170  00776E  C06C  F070         	movff	_width+1,_flags+1
  2171  007772                     
  2172                           ; BSR set to: 0
  2173                           ;C:\Program Files\Microchip\xc8\v2.36\pic\sources\c99\common\doprnt.c: 706:         prec
      +                           = -1;
  2174  007772  696D               	setf	_prec& (0+255),b
  2175  007774  696E               	setf	(_prec+1)& (0+255),b
  2176  007776                     
  2177                           ; BSR set to: 0
  2178                           ;C:\Program Files\Microchip\xc8\v2.36\pic\sources\c99\common\doprnt.c: 847:         if (
      +                          (*fmt[0] == 'd') || (*fmt[0] == 'i')) {
  2179  007776  C042  FFD9         	movff	vfpfcnvrt@fmt,fsr2l
  2180  00777A  C043  FFDA         	movff	vfpfcnvrt@fmt+1,fsr2h
  2181  00777E  CFDE FFF6          	movff	postinc2,tblptrl
  2182  007782  CFDD FFF7          	movff	postdec2,tblptrh
  2183  007786                     	if	0	;tblptru may be non-zero
  2184  007786                     	endif
  2185  007786                     	if	0	;tblptru may be non-zero
  2186  007786                     	endif
  2187  007786  0008               	tblrd		*
  2188  007788  50F5               	movf	tablat,w,c
  2189  00778A  0A64               	xorlw	100
  2190  00778C  B4D8               	btfsc	status,2,c
  2191  00778E  EFCB  F03B         	goto	u1321
  2192  007792  EFCD  F03B         	goto	u1320
  2193  007796                     u1321:
  2194  007796  EFDF  F03B         	goto	l1633
  2195  00779A                     u1320:
  2196  00779A                     
  2197                           ; BSR set to: 0
  2198  00779A  C042  FFD9         	movff	vfpfcnvrt@fmt,fsr2l
  2199  00779E  C043  FFDA         	movff	vfpfcnvrt@fmt+1,fsr2h
  2200  0077A2  CFDE FFF6          	movff	postinc2,tblptrl
  2201  0077A6  CFDD FFF7          	movff	postdec2,tblptrh
  2202  0077AA                     	if	0	;tblptru may be non-zero
  2203  0077AA                     	endif
  2204  0077AA                     	if	0	;tblptru may be non-zero
  2205  0077AA                     	endif
  2206  0077AA  0008               	tblrd		*
  2207  0077AC  50F5               	movf	tablat,w,c
  2208  0077AE  0A69               	xorlw	105
  2209  0077B0  A4D8               	btfss	status,2,c
  2210  0077B2  EFDD  F03B         	goto	u1331
  2211  0077B6  EFDF  F03B         	goto	u1330
  2212  0077BA                     u1331:
  2213  0077BA  EF1F  F03C         	goto	l1639
  2214  0077BE                     u1330:
  2215  0077BE                     l1633:
  2216                           
  2217                           ; BSR set to: 0
  2218                           ;C:\Program Files\Microchip\xc8\v2.36\pic\sources\c99\common\doprnt.c: 849:             
      +                          ++*fmt;
  2219  0077BE  C042  FFD9         	movff	vfpfcnvrt@fmt,fsr2l
  2220  0077C2  C043  FFDA         	movff	vfpfcnvrt@fmt+1,fsr2h
  2221  0077C6  2ADE               	incf	postinc2,f,c
  2222  0077C8  0E00               	movlw	0
  2223  0077CA  22DD               	addwfc	postdec2,f,c
  2224                           
  2225                           ;C:\Program Files\Microchip\xc8\v2.36\pic\sources\c99\common\doprnt.c: 850:             
      +                          ll = (long long)(*(int *)__va_arg(*(int **)ap, (int)0));
  2226  0077CC  C044  FFD9         	movff	vfpfcnvrt@ap,fsr2l
  2227  0077D0  C045  FFDA         	movff	vfpfcnvrt@ap+1,fsr2h
  2228  0077D4  CFDF F046          	movff	indf2,??_vfpfcnvrt
  2229  0077D8  0E02               	movlw	2
  2230  0077DA  26DE               	addwf	postinc2,f,c
  2231  0077DC  CFDF F047          	movff	indf2,??_vfpfcnvrt+1
  2232  0077E0  0E00               	movlw	0
  2233  0077E2  22DD               	addwfc	postdec2,f,c
  2234  0077E4  C046  FFD9         	movff	??_vfpfcnvrt,fsr2l
  2235  0077E8  C047  FFDA         	movff	??_vfpfcnvrt+1,fsr2h
  2236  0077EC  CFDE F048          	movff	postinc2,vfpfcnvrt@ll
  2237  0077F0  CFDD F049          	movff	postdec2,vfpfcnvrt@ll+1
  2238  0077F4  0E00               	movlw	0
  2239  0077F6  BE49               	btfsc	(vfpfcnvrt@ll+1)^0,7,c
  2240  0077F8  0EFF               	movlw	-1
  2241  0077FA  6E4A               	movwf	(vfpfcnvrt@ll+2)^0,c
  2242  0077FC  6E4B               	movwf	(vfpfcnvrt@ll+3)^0,c
  2243  0077FE  6E4C               	movwf	(vfpfcnvrt@ll+4)^0,c
  2244  007800  6E4D               	movwf	(vfpfcnvrt@ll+5)^0,c
  2245  007802  6E4E               	movwf	(vfpfcnvrt@ll+6)^0,c
  2246  007804  6E4F               	movwf	(vfpfcnvrt@ll+7)^0,c
  2247  007806                     
  2248                           ; BSR set to: 0
  2249                           ;C:\Program Files\Microchip\xc8\v2.36\pic\sources\c99\common\doprnt.c: 852:             
      +                          return dtoa(fp, ll);
  2250  007806  C040  F01C         	movff	vfpfcnvrt@fp,dtoa@fp
  2251  00780A  C041  F01D         	movff	vfpfcnvrt@fp+1,dtoa@fp+1
  2252  00780E  C048  F01E         	movff	vfpfcnvrt@ll,dtoa@d
  2253  007812  C049  F01F         	movff	vfpfcnvrt@ll+1,dtoa@d+1
  2254  007816  C04A  F020         	movff	vfpfcnvrt@ll+2,dtoa@d+2
  2255  00781A  C04B  F021         	movff	vfpfcnvrt@ll+3,dtoa@d+3
  2256  00781E  C04C  F022         	movff	vfpfcnvrt@ll+4,dtoa@d+4
  2257  007822  C04D  F023         	movff	vfpfcnvrt@ll+5,dtoa@d+5
  2258  007826  C04E  F024         	movff	vfpfcnvrt@ll+6,dtoa@d+6
  2259  00782A  C04F  F025         	movff	vfpfcnvrt@ll+7,dtoa@d+7
  2260  00782E  EC71  F03C         	call	_dtoa	;wreg free
  2261  007832  C01C  F040         	movff	?_dtoa,?_vfpfcnvrt
  2262  007836  C01D  F041         	movff	?_dtoa+1,?_vfpfcnvrt+1
  2263  00783A  EF70  F03C         	goto	l860
  2264  00783E                     l1639:
  2265                           
  2266                           ; BSR set to: 0
  2267                           ;C:\Program Files\Microchip\xc8\v2.36\pic\sources\c99\common\doprnt.c: 1372:         if 
      +                          ((*fmt)[0] == '%') {
  2268  00783E  C042  FFD9         	movff	vfpfcnvrt@fmt,fsr2l
  2269  007842  C043  FFDA         	movff	vfpfcnvrt@fmt+1,fsr2h
  2270  007846  CFDE FFF6          	movff	postinc2,tblptrl
  2271  00784A  CFDD FFF7          	movff	postdec2,tblptrh
  2272  00784E                     	if	0	;tblptru may be non-zero
  2273  00784E                     	endif
  2274  00784E                     	if	0	;tblptru may be non-zero
  2275  00784E                     	endif
  2276  00784E  0008               	tblrd		*
  2277  007850  50F5               	movf	tablat,w,c
  2278  007852  0A25               	xorlw	37
  2279  007854  A4D8               	btfss	status,2,c
  2280  007856  EF2F  F03C         	goto	u1341
  2281  00785A  EF31  F03C         	goto	u1340
  2282  00785E                     u1341:
  2283  00785E  EF48  F03C         	goto	l1649
  2284  007862                     u1340:
  2285  007862                     
  2286                           ; BSR set to: 0
  2287                           ;C:\Program Files\Microchip\xc8\v2.36\pic\sources\c99\common\doprnt.c: 1373:            
      +                           ++*fmt;
  2288  007862  C042  FFD9         	movff	vfpfcnvrt@fmt,fsr2l
  2289  007866  C043  FFDA         	movff	vfpfcnvrt@fmt+1,fsr2h
  2290  00786A  2ADE               	incf	postinc2,f,c
  2291  00786C  0E00               	movlw	0
  2292  00786E  22DD               	addwfc	postdec2,f,c
  2293  007870                     
  2294                           ; BSR set to: 0
  2295                           ;C:\Program Files\Microchip\xc8\v2.36\pic\sources\c99\common\doprnt.c: 1374:            
      +                           fputc((int)'%', fp);
  2296  007870  0E00               	movlw	0
  2297  007872  6E02               	movwf	(fputc@c+1)^0,c
  2298  007874  0E25               	movlw	37
  2299  007876  6E01               	movwf	fputc@c^0,c
  2300  007878  C040  F003         	movff	vfpfcnvrt@fp,fputc@fp
  2301  00787C  C041  F004         	movff	vfpfcnvrt@fp+1,fputc@fp+1
  2302  007880  ECC9  F037         	call	_fputc	;wreg free
  2303  007884                     l1645:
  2304                           
  2305                           ;C:\Program Files\Microchip\xc8\v2.36\pic\sources\c99\common\doprnt.c: 1375:            
      +                           return 1;
  2306  007884  0E00               	movlw	0
  2307  007886  6E41               	movwf	(?_vfpfcnvrt+1)^0,c
  2308  007888  0E01               	movlw	1
  2309  00788A  6E40               	movwf	?_vfpfcnvrt^0,c
  2310  00788C  EF70  F03C         	goto	l860
  2311  007890                     l1649:
  2312                           
  2313                           ; BSR set to: 0
  2314                           ;C:\Program Files\Microchip\xc8\v2.36\pic\sources\c99\common\doprnt.c: 1379:         ++*
      +                          fmt;
  2315  007890  C042  FFD9         	movff	vfpfcnvrt@fmt,fsr2l
  2316  007894  C043  FFDA         	movff	vfpfcnvrt@fmt+1,fsr2h
  2317  007898  2ADE               	incf	postinc2,f,c
  2318  00789A  0E00               	movlw	0
  2319  00789C  22DD               	addwfc	postdec2,f,c
  2320  00789E                     
  2321                           ; BSR set to: 0
  2322                           ;C:\Program Files\Microchip\xc8\v2.36\pic\sources\c99\common\doprnt.c: 1380:         ret
      +                          urn 0;
  2323  00789E  0E00               	movlw	0
  2324  0078A0  6E41               	movwf	(?_vfpfcnvrt+1)^0,c
  2325  0078A2  0E00               	movlw	0
  2326  0078A4  6E40               	movwf	?_vfpfcnvrt^0,c
  2327  0078A6  EF70  F03C         	goto	l860
  2328  0078AA                     l1655:
  2329                           
  2330                           ;C:\Program Files\Microchip\xc8\v2.36\pic\sources\c99\common\doprnt.c: 1384:     fputc((
      +                          int)(*fmt)[0], fp);
  2331  0078AA  C042  FFD9         	movff	vfpfcnvrt@fmt,fsr2l
  2332  0078AE  C043  FFDA         	movff	vfpfcnvrt@fmt+1,fsr2h
  2333  0078B2  CFDE FFF6          	movff	postinc2,tblptrl
  2334  0078B6  CFDD FFF7          	movff	postdec2,tblptrh
  2335  0078BA                     	if	0	;tblptru may be non-zero
  2336  0078BA                     	endif
  2337  0078BA                     	if	0	;tblptru may be non-zero
  2338  0078BA                     	endif
  2339  0078BA  0008               	tblrd		*
  2340  0078BC  50F5               	movf	tablat,w,c
  2341  0078BE  6E01               	movwf	fputc@c^0,c
  2342  0078C0  6A02               	clrf	(fputc@c+1)^0,c
  2343  0078C2  C040  F003         	movff	vfpfcnvrt@fp,fputc@fp
  2344  0078C6  C041  F004         	movff	vfpfcnvrt@fp+1,fputc@fp+1
  2345  0078CA  ECC9  F037         	call	_fputc	;wreg free
  2346  0078CE                     
  2347                           ;C:\Program Files\Microchip\xc8\v2.36\pic\sources\c99\common\doprnt.c: 1385:     ++*fmt;
  2348  0078CE  C042  FFD9         	movff	vfpfcnvrt@fmt,fsr2l
  2349  0078D2  C043  FFDA         	movff	vfpfcnvrt@fmt+1,fsr2h
  2350  0078D6  2ADE               	incf	postinc2,f,c
  2351  0078D8  0E00               	movlw	0
  2352  0078DA  22DD               	addwfc	postdec2,f,c
  2353  0078DC  EF42  F03C         	goto	l1645
  2354  0078E0                     l860:
  2355  0078E0  0012               	return		;funcret
  2356  0078E2                     __end_of_vfpfcnvrt:
  2357                           	callstack 0
  2358                           
  2359 ;; *************** function _dtoa *****************
  2360 ;; Defined at:
  2361 ;;		line 287 in file "C:\Program Files\Microchip\xc8\v2.36\pic\sources\c99\common\doprnt.c"
  2362 ;; Parameters:    Size  Location     Type
  2363 ;;  fp              2   27[COMRAM] PTR struct _IO_FILE
  2364 ;;		 -> sprintf@f(11), 
  2365 ;;  d               8   29[COMRAM] long long 
  2366 ;; Auto vars:     Size  Location     Type
  2367 ;;  n               8   53[COMRAM] long long 
  2368 ;;  i               2   61[COMRAM] int 
  2369 ;;  s               2   51[COMRAM] int 
  2370 ;;  w               2   49[COMRAM] int 
  2371 ;;  p               2   47[COMRAM] int 
  2372 ;; Return value:  Size  Location     Type
  2373 ;;                  2   27[COMRAM] int 
  2374 ;; Registers used:
  2375 ;;		wreg, fsr1l, fsr1h, fsr2l, fsr2h, status,2, status,0, cstack
  2376 ;; Tracked objects:
  2377 ;;		On entry : 0/0
  2378 ;;		On exit  : 0/0
  2379 ;;		Unchanged: 0/0
  2380 ;; Data sizes:     COMRAM   BANK0   BANK1   BANK2   BANK3   BANK4   BANK5
  2381 ;;      Params:        10       0       0       0       0       0       0
  2382 ;;      Locals:        18       0       0       0       0       0       0
  2383 ;;      Temps:          8       0       0       0       0       0       0
  2384 ;;      Totals:        36       0       0       0       0       0       0
  2385 ;;Total ram usage:       36 bytes
  2386 ;; Hardware stack levels used: 1
  2387 ;; Hardware stack levels required when called: 4
  2388 ;; This function calls:
  2389 ;;		___aodiv
  2390 ;;		___aomod
  2391 ;;		_abs
  2392 ;;		_pad
  2393 ;; This function is called by:
  2394 ;;		_vfpfcnvrt
  2395 ;; This function uses a non-reentrant model
  2396 ;;
  2397                           
  2398                           	psect	text4
  2399  0078E2                     __ptext4:
  2400                           	callstack 0
  2401  0078E2                     _dtoa:
  2402                           	callstack 23
  2403  0078E2                     
  2404                           ;C:\Program Files\Microchip\xc8\v2.36\pic\sources\c99\common\doprnt.c: 287: static int d
      +                          toa(FILE *fp, long long d);C:\Program Files\Microchip\xc8\v2.36\pic\sources\c99\common\d
      +                          oprnt.c: 288: {;C:\Program Files\Microchip\xc8\v2.36\pic\sources\c99\common\doprnt.c: 28
      +                          9:     int i, p, s, w;;C:\Program Files\Microchip\xc8\v2.36\pic\sources\c99\common\doprn
      +                          t.c: 290:     long long n;;C:\Program Files\Microchip\xc8\v2.36\pic\sources\c99\common\d
      +                          oprnt.c: 293:     n = d;
  2405  0078E2  C01E  F036         	movff	dtoa@d,dtoa@n
  2406  0078E6  C01F  F037         	movff	dtoa@d+1,dtoa@n+1
  2407  0078EA  C020  F038         	movff	dtoa@d+2,dtoa@n+2
  2408  0078EE  C021  F039         	movff	dtoa@d+3,dtoa@n+3
  2409  0078F2  C022  F03A         	movff	dtoa@d+4,dtoa@n+4
  2410  0078F6  C023  F03B         	movff	dtoa@d+5,dtoa@n+5
  2411  0078FA  C024  F03C         	movff	dtoa@d+6,dtoa@n+6
  2412  0078FE  C025  F03D         	movff	dtoa@d+7,dtoa@n+7
  2413  007902                     
  2414                           ;C:\Program Files\Microchip\xc8\v2.36\pic\sources\c99\common\doprnt.c: 294:     s = n < 
      +                          0 ? 1 : 0;
  2415  007902  BE3D               	btfsc	(dtoa@n+7)^0,7,c
  2416  007904  EF86  F03C         	goto	u1111
  2417  007908  EF89  F03C         	goto	u1110
  2418  00790C                     u1111:
  2419  00790C  0E01               	movlw	1
  2420  00790E  EF8A  F03C         	goto	u1120
  2421  007912                     u1110:
  2422  007912  0E00               	movlw	0
  2423  007914                     u1120:
  2424  007914  6E34               	movwf	dtoa@s^0,c
  2425  007916  6A35               	clrf	(dtoa@s+1)^0,c
  2426                           
  2427                           ;C:\Program Files\Microchip\xc8\v2.36\pic\sources\c99\common\doprnt.c: 295:     if (s) {
  2428  007918  5034               	movf	dtoa@s^0,w,c
  2429  00791A  1035               	iorwf	(dtoa@s+1)^0,w,c
  2430  00791C  B4D8               	btfsc	status,2,c
  2431  00791E  EF93  F03C         	goto	u1131
  2432  007922  EF95  F03C         	goto	u1130
  2433  007926                     u1131:
  2434  007926  EFA5  F03C         	goto	l1555
  2435  00792A                     u1130:
  2436  00792A                     
  2437                           ;C:\Program Files\Microchip\xc8\v2.36\pic\sources\c99\common\doprnt.c: 296:         n = 
      +                          -n;
  2438  00792A  1E3D               	comf	(dtoa@n+7)^0,f,c
  2439  00792C  1E3C               	comf	(dtoa@n+6)^0,f,c
  2440  00792E  1E3B               	comf	(dtoa@n+5)^0,f,c
  2441  007930  1E3A               	comf	(dtoa@n+4)^0,f,c
  2442  007932  1E39               	comf	(dtoa@n+3)^0,f,c
  2443  007934  1E38               	comf	(dtoa@n+2)^0,f,c
  2444  007936  1E37               	comf	(dtoa@n+1)^0,f,c
  2445  007938  6C36               	negf	dtoa@n^0,c
  2446  00793A  0E00               	movlw	0
  2447  00793C  2237               	addwfc	(dtoa@n+1)^0,f,c
  2448  00793E  2238               	addwfc	(dtoa@n+2)^0,f,c
  2449  007940  2239               	addwfc	(dtoa@n+3)^0,f,c
  2450  007942  223A               	addwfc	(dtoa@n+4)^0,f,c
  2451  007944  223B               	addwfc	(dtoa@n+5)^0,f,c
  2452  007946  223C               	addwfc	(dtoa@n+6)^0,f,c
  2453  007948  223D               	addwfc	(dtoa@n+7)^0,f,c
  2454  00794A                     l1555:
  2455                           
  2456                           ;C:\Program Files\Microchip\xc8\v2.36\pic\sources\c99\common\doprnt.c: 300:     if (!(pr
      +                          ec < 0)) {
  2457  00794A  0100               	movlb	0	; () banked
  2458  00794C  BF6E               	btfsc	(_prec+1)& (0+255),7,b
  2459  00794E  EFAB  F03C         	goto	u1141
  2460  007952  EFAD  F03C         	goto	u1140
  2461  007956                     u1141:
  2462  007956  EFAE  F03C         	goto	l1559
  2463  00795A                     u1140:
  2464  00795A                     
  2465                           ; BSR set to: 0
  2466                           ;C:\Program Files\Microchip\xc8\v2.36\pic\sources\c99\common\doprnt.c: 301:         flag
      +                          s &= ~(1 << 1);
  2467  00795A  936F               	bcf	_flags& (0+255),1,b
  2468  00795C                     l1559:
  2469                           
  2470                           ; BSR set to: 0
  2471                           ;C:\Program Files\Microchip\xc8\v2.36\pic\sources\c99\common\doprnt.c: 303:     p = (0 <
      +                           prec) ? prec : 1;
  2472  00795C  BF6E               	btfsc	(_prec+1)& (0+255),7,b
  2473  00795E  EFBB  F03C         	goto	u1150
  2474  007962  516E               	movf	(_prec+1)& (0+255),w,b
  2475  007964  E106               	bnz	u1151
  2476  007966  056D               	decf	_prec& (0+255),w,b
  2477  007968  B0D8               	btfsc	status,0,c
  2478  00796A  EFB9  F03C         	goto	u1151
  2479  00796E  EFBB  F03C         	goto	u1150
  2480  007972                     u1151:
  2481  007972  EFC1  F03C         	goto	l833
  2482  007976                     u1150:
  2483  007976                     
  2484                           ; BSR set to: 0
  2485  007976  0E00               	movlw	0
  2486  007978  6E31               	movwf	(dtoa@p+1)^0,c
  2487  00797A  0E01               	movlw	1
  2488  00797C  6E30               	movwf	dtoa@p^0,c
  2489  00797E  EFC5  F03C         	goto	l835
  2490  007982                     l833:
  2491                           
  2492                           ; BSR set to: 0
  2493  007982  C06D  F030         	movff	_prec,dtoa@p
  2494  007986  C06E  F031         	movff	_prec+1,dtoa@p+1
  2495  00798A                     l835:
  2496                           
  2497                           ; BSR set to: 0
  2498                           ;C:\Program Files\Microchip\xc8\v2.36\pic\sources\c99\common\doprnt.c: 304:     w = widt
      +                          h;
  2499  00798A  C06B  F032         	movff	_width,dtoa@w
  2500  00798E  C06C  F033         	movff	_width+1,dtoa@w+1
  2501  007992                     
  2502                           ; BSR set to: 0
  2503                           ;C:\Program Files\Microchip\xc8\v2.36\pic\sources\c99\common\doprnt.c: 305:     if (s ||
      +                           (flags & (1 << 2))) {
  2504  007992  5034               	movf	dtoa@s^0,w,c
  2505  007994  1035               	iorwf	(dtoa@s+1)^0,w,c
  2506  007996  A4D8               	btfss	status,2,c
  2507  007998  EFD0  F03C         	goto	u1161
  2508  00799C  EFD2  F03C         	goto	u1160
  2509  0079A0                     u1161:
  2510  0079A0  EFD9  F03C         	goto	l1567
  2511  0079A4                     u1160:
  2512  0079A4                     
  2513                           ; BSR set to: 0
  2514  0079A4  A56F               	btfss	_flags& (0+255),2,b
  2515  0079A6  EFD7  F03C         	goto	u1171
  2516  0079AA  EFD9  F03C         	goto	u1170
  2517  0079AE                     u1171:
  2518  0079AE  EFDC  F03C         	goto	l1569
  2519  0079B2                     u1170:
  2520  0079B2                     l1567:
  2521                           
  2522                           ; BSR set to: 0
  2523                           ;C:\Program Files\Microchip\xc8\v2.36\pic\sources\c99\common\doprnt.c: 306:         --w;
  2524  0079B2  0632               	decf	dtoa@w^0,f,c
  2525  0079B4  A0D8               	btfss	status,0,c
  2526  0079B6  0633               	decf	(dtoa@w+1)^0,f,c
  2527  0079B8                     l1569:
  2528                           
  2529                           ; BSR set to: 0
  2530                           ;C:\Program Files\Microchip\xc8\v2.36\pic\sources\c99\common\doprnt.c: 310:     i = size
      +                          of(dbuf) - 1;
  2531  0079B8  0E00               	movlw	0
  2532  0079BA  6E3F               	movwf	(dtoa@i+1)^0,c
  2533  0079BC  0E1F               	movlw	31
  2534  0079BE  6E3E               	movwf	dtoa@i^0,c
  2535  0079C0                     
  2536                           ; BSR set to: 0
  2537                           ;C:\Program Files\Microchip\xc8\v2.36\pic\sources\c99\common\doprnt.c: 311:     dbuf[i] 
      +                          = '\0';
  2538  0079C0  0E00               	movlw	0
  2539  0079C2  6F92               	movwf	(_dbuf+31)& (0+255),b
  2540                           
  2541                           ;C:\Program Files\Microchip\xc8\v2.36\pic\sources\c99\common\doprnt.c: 312:     while (!
      +                          (i < 1) && (n || (0 < p) || ((0 < w) && (flags & (1 << 1))))) {
  2542  0079C4  EF60  F03D         	goto	l1583
  2543  0079C8                     l1573:
  2544                           
  2545                           ;C:\Program Files\Microchip\xc8\v2.36\pic\sources\c99\common\doprnt.c: 313:         --i;
  2546  0079C8  063E               	decf	dtoa@i^0,f,c
  2547  0079CA  A0D8               	btfss	status,0,c
  2548  0079CC  063F               	decf	(dtoa@i+1)^0,f,c
  2549  0079CE                     
  2550                           ;C:\Program Files\Microchip\xc8\v2.36\pic\sources\c99\common\doprnt.c: 314:         dbuf
      +                          [i] = (char)((int)'0' + abs(n % 10));
  2551  0079CE  0E73               	movlw	low _dbuf
  2552  0079D0  243E               	addwf	dtoa@i^0,w,c
  2553  0079D2  6ED9               	movwf	fsr2l,c
  2554  0079D4  0E00               	movlw	high _dbuf
  2555  0079D6  203F               	addwfc	(dtoa@i+1)^0,w,c
  2556  0079D8  6EDA               	movwf	fsr2h,c
  2557  0079DA  C036  F001         	movff	dtoa@n,___aomod@dividend
  2558  0079DE  C037  F002         	movff	dtoa@n+1,___aomod@dividend+1
  2559  0079E2  C038  F003         	movff	dtoa@n+2,___aomod@dividend+2
  2560  0079E6  C039  F004         	movff	dtoa@n+3,___aomod@dividend+3
  2561  0079EA  C03A  F005         	movff	dtoa@n+4,___aomod@dividend+4
  2562  0079EE  C03B  F006         	movff	dtoa@n+5,___aomod@dividend+5
  2563  0079F2  C03C  F007         	movff	dtoa@n+6,___aomod@dividend+6
  2564  0079F6  C03D  F008         	movff	dtoa@n+7,___aomod@dividend+7
  2565  0079FA  0E0A               	movlw	10
  2566  0079FC  6E09               	movwf	___aomod@divisor^0,c
  2567  0079FE  0E00               	movlw	0
  2568  007A00  6E0A               	movwf	(___aomod@divisor+1)^0,c
  2569  007A02  0E00               	movlw	0
  2570  007A04  6E0B               	movwf	(___aomod@divisor+2)^0,c
  2571  007A06  0E00               	movlw	0
  2572  007A08  6E0C               	movwf	(___aomod@divisor+3)^0,c
  2573  007A0A  0E00               	movlw	0
  2574  007A0C  6E0D               	movwf	(___aomod@divisor+4)^0,c
  2575  007A0E  0E00               	movlw	0
  2576  007A10  6E0E               	movwf	(___aomod@divisor+5)^0,c
  2577  007A12  0E00               	movlw	0
  2578  007A14  6E0F               	movwf	(___aomod@divisor+6)^0,c
  2579  007A16  0E00               	movlw	0
  2580  007A18  6E10               	movwf	(___aomod@divisor+7)^0,c
  2581  007A1A  EC94  F038         	call	___aomod	;wreg free
  2582  007A1E  C001  F026         	movff	?___aomod,??_dtoa
  2583  007A22  C002  F027         	movff	?___aomod+1,??_dtoa+1
  2584  007A26  C003  F028         	movff	?___aomod+2,??_dtoa+2
  2585  007A2A  C004  F029         	movff	?___aomod+3,??_dtoa+3
  2586  007A2E  C005  F02A         	movff	?___aomod+4,??_dtoa+4
  2587  007A32  C006  F02B         	movff	?___aomod+5,??_dtoa+5
  2588  007A36  C007  F02C         	movff	?___aomod+6,??_dtoa+6
  2589  007A3A  C008  F02D         	movff	?___aomod+7,??_dtoa+7
  2590  007A3E  C026  F013         	movff	??_dtoa,abs@a
  2591  007A42  C028  F014         	movff	??_dtoa+2,abs@a+1
  2592  007A46  EC22  F035         	call	_abs	;wreg free
  2593  007A4A  5013               	movf	?_abs^0,w,c
  2594  007A4C  0F30               	addlw	48
  2595  007A4E  6EDF               	movwf	indf2,c
  2596  007A50                     
  2597                           ;C:\Program Files\Microchip\xc8\v2.36\pic\sources\c99\common\doprnt.c: 315:         --p;
  2598  007A50  0630               	decf	dtoa@p^0,f,c
  2599  007A52  A0D8               	btfss	status,0,c
  2600  007A54  0631               	decf	(dtoa@p+1)^0,f,c
  2601  007A56                     
  2602                           ;C:\Program Files\Microchip\xc8\v2.36\pic\sources\c99\common\doprnt.c: 316:         --w;
  2603  007A56  0632               	decf	dtoa@w^0,f,c
  2604  007A58  A0D8               	btfss	status,0,c
  2605  007A5A  0633               	decf	(dtoa@w+1)^0,f,c
  2606  007A5C                     
  2607                           ;C:\Program Files\Microchip\xc8\v2.36\pic\sources\c99\common\doprnt.c: 317:         n = 
      +                          n / 10;
  2608  007A5C  C036  F001         	movff	dtoa@n,___aodiv@dividend
  2609  007A60  C037  F002         	movff	dtoa@n+1,___aodiv@dividend+1
  2610  007A64  C038  F003         	movff	dtoa@n+2,___aodiv@dividend+2
  2611  007A68  C039  F004         	movff	dtoa@n+3,___aodiv@dividend+3
  2612  007A6C  C03A  F005         	movff	dtoa@n+4,___aodiv@dividend+4
  2613  007A70  C03B  F006         	movff	dtoa@n+5,___aodiv@dividend+5
  2614  007A74  C03C  F007         	movff	dtoa@n+6,___aodiv@dividend+6
  2615  007A78  C03D  F008         	movff	dtoa@n+7,___aodiv@dividend+7
  2616  007A7C  0E0A               	movlw	10
  2617  007A7E  6E09               	movwf	___aodiv@divisor^0,c
  2618  007A80  0E00               	movlw	0
  2619  007A82  6E0A               	movwf	(___aodiv@divisor+1)^0,c
  2620  007A84  0E00               	movlw	0
  2621  007A86  6E0B               	movwf	(___aodiv@divisor+2)^0,c
  2622  007A88  0E00               	movlw	0
  2623  007A8A  6E0C               	movwf	(___aodiv@divisor+3)^0,c
  2624  007A8C  0E00               	movlw	0
  2625  007A8E  6E0D               	movwf	(___aodiv@divisor+4)^0,c
  2626  007A90  0E00               	movlw	0
  2627  007A92  6E0E               	movwf	(___aodiv@divisor+5)^0,c
  2628  007A94  0E00               	movlw	0
  2629  007A96  6E0F               	movwf	(___aodiv@divisor+6)^0,c
  2630  007A98  0E00               	movlw	0
  2631  007A9A  6E10               	movwf	(___aodiv@divisor+7)^0,c
  2632  007A9C  EC07  F03A         	call	___aodiv	;wreg free
  2633  007AA0  C001  F036         	movff	?___aodiv,dtoa@n
  2634  007AA4  C002  F037         	movff	?___aodiv+1,dtoa@n+1
  2635  007AA8  C003  F038         	movff	?___aodiv+2,dtoa@n+2
  2636  007AAC  C004  F039         	movff	?___aodiv+3,dtoa@n+3
  2637  007AB0  C005  F03A         	movff	?___aodiv+4,dtoa@n+4
  2638  007AB4  C006  F03B         	movff	?___aodiv+5,dtoa@n+5
  2639  007AB8  C007  F03C         	movff	?___aodiv+6,dtoa@n+6
  2640  007ABC  C008  F03D         	movff	?___aodiv+7,dtoa@n+7
  2641  007AC0                     l1583:
  2642                           
  2643                           ;C:\Program Files\Microchip\xc8\v2.36\pic\sources\c99\common\doprnt.c: 312:     while (!
      +                          (i < 1) && (n || (0 < p) || ((0 < w) && (flags & (1 << 1))))) {
  2644  007AC0  BE3F               	btfsc	(dtoa@i+1)^0,7,c
  2645  007AC2  EF6B  F03D         	goto	u1181
  2646  007AC6  503F               	movf	(dtoa@i+1)^0,w,c
  2647  007AC8  E108               	bnz	u1180
  2648  007ACA  043E               	decf	dtoa@i^0,w,c
  2649  007ACC  A0D8               	btfss	status,0,c
  2650  007ACE  EF6B  F03D         	goto	u1181
  2651  007AD2  EF6D  F03D         	goto	u1180
  2652  007AD6                     u1181:
  2653  007AD6  EF9E  F03D         	goto	l1593
  2654  007ADA                     u1180:
  2655  007ADA  5036               	movf	dtoa@n^0,w,c
  2656  007ADC  1037               	iorwf	(dtoa@n+1)^0,w,c
  2657  007ADE  1038               	iorwf	(dtoa@n+2)^0,w,c
  2658  007AE0  1039               	iorwf	(dtoa@n+3)^0,w,c
  2659  007AE2  103A               	iorwf	(dtoa@n+4)^0,w,c
  2660  007AE4  103B               	iorwf	(dtoa@n+5)^0,w,c
  2661  007AE6  103C               	iorwf	(dtoa@n+6)^0,w,c
  2662  007AE8  103D               	iorwf	(dtoa@n+7)^0,w,c
  2663  007AEA  A4D8               	btfss	status,2,c
  2664  007AEC  EF7A  F03D         	goto	u1191
  2665  007AF0  EF7C  F03D         	goto	u1190
  2666  007AF4                     u1191:
  2667  007AF4  EFE4  F03C         	goto	l1573
  2668  007AF8                     u1190:
  2669  007AF8  BE31               	btfsc	(dtoa@p+1)^0,7,c
  2670  007AFA  EF89  F03D         	goto	u1200
  2671  007AFE  5031               	movf	(dtoa@p+1)^0,w,c
  2672  007B00  E106               	bnz	u1201
  2673  007B02  0430               	decf	dtoa@p^0,w,c
  2674  007B04  B0D8               	btfsc	status,0,c
  2675  007B06  EF87  F03D         	goto	u1201
  2676  007B0A  EF89  F03D         	goto	u1200
  2677  007B0E                     u1201:
  2678  007B0E  EFE4  F03C         	goto	l1573
  2679  007B12                     u1200:
  2680  007B12  BE33               	btfsc	(dtoa@w+1)^0,7,c
  2681  007B14  EF94  F03D         	goto	u1211
  2682  007B18  5033               	movf	(dtoa@w+1)^0,w,c
  2683  007B1A  E108               	bnz	u1210
  2684  007B1C  0432               	decf	dtoa@w^0,w,c
  2685  007B1E  A0D8               	btfss	status,0,c
  2686  007B20  EF94  F03D         	goto	u1211
  2687  007B24  EF96  F03D         	goto	u1210
  2688  007B28                     u1211:
  2689  007B28  EF9E  F03D         	goto	l1593
  2690  007B2C                     u1210:
  2691  007B2C  0100               	movlb	0	; () banked
  2692  007B2E  B36F               	btfsc	_flags& (0+255),1,b
  2693  007B30  EF9C  F03D         	goto	u1221
  2694  007B34  EF9E  F03D         	goto	u1220
  2695  007B38                     u1221:
  2696  007B38  EFE4  F03C         	goto	l1573
  2697  007B3C                     u1220:
  2698  007B3C                     l1593:
  2699                           
  2700                           ;C:\Program Files\Microchip\xc8\v2.36\pic\sources\c99\common\doprnt.c: 321:     if (s ||
      +                           (flags & (1 << 2))) {
  2701  007B3C  5034               	movf	dtoa@s^0,w,c
  2702  007B3E  1035               	iorwf	(dtoa@s+1)^0,w,c
  2703  007B40  A4D8               	btfss	status,2,c
  2704  007B42  EFA5  F03D         	goto	u1231
  2705  007B46  EFA7  F03D         	goto	u1230
  2706  007B4A                     u1231:
  2707  007B4A  EFAF  F03D         	goto	l1597
  2708  007B4E                     u1230:
  2709  007B4E  0100               	movlb	0	; () banked
  2710  007B50  A56F               	btfss	_flags& (0+255),2,b
  2711  007B52  EFAD  F03D         	goto	u1241
  2712  007B56  EFAF  F03D         	goto	u1240
  2713  007B5A                     u1241:
  2714  007B5A  EFCD  F03D         	goto	l1607
  2715  007B5E                     u1240:
  2716  007B5E                     l1597:
  2717                           
  2718                           ;C:\Program Files\Microchip\xc8\v2.36\pic\sources\c99\common\doprnt.c: 322:         --i;
  2719  007B5E  063E               	decf	dtoa@i^0,f,c
  2720  007B60  A0D8               	btfss	status,0,c
  2721  007B62  063F               	decf	(dtoa@i+1)^0,f,c
  2722  007B64                     
  2723                           ;C:\Program Files\Microchip\xc8\v2.36\pic\sources\c99\common\doprnt.c: 323:         dbuf
      +                          [i] = s ? '-' : '+';
  2724  007B64  5034               	movf	dtoa@s^0,w,c
  2725  007B66  1035               	iorwf	(dtoa@s+1)^0,w,c
  2726  007B68  A4D8               	btfss	status,2,c
  2727  007B6A  EFB9  F03D         	goto	u1251
  2728  007B6E  EFBB  F03D         	goto	u1250
  2729  007B72                     u1251:
  2730  007B72  EFC1  F03D         	goto	l1603
  2731  007B76                     u1250:
  2732  007B76  0E00               	movlw	0
  2733  007B78  6E2F               	movwf	(_dtoa$748+1)^0,c
  2734  007B7A  0E2B               	movlw	43
  2735  007B7C  6E2E               	movwf	_dtoa$748^0,c
  2736  007B7E  EFC5  F03D         	goto	l1605
  2737  007B82                     l1603:
  2738  007B82  0E00               	movlw	0
  2739  007B84  6E2F               	movwf	(_dtoa$748+1)^0,c
  2740  007B86  0E2D               	movlw	45
  2741  007B88  6E2E               	movwf	_dtoa$748^0,c
  2742  007B8A                     l1605:
  2743  007B8A  0E73               	movlw	low _dbuf
  2744  007B8C  243E               	addwf	dtoa@i^0,w,c
  2745  007B8E  6ED9               	movwf	fsr2l,c
  2746  007B90  0E00               	movlw	high _dbuf
  2747  007B92  203F               	addwfc	(dtoa@i+1)^0,w,c
  2748  007B94  6EDA               	movwf	fsr2h,c
  2749  007B96  C02E  FFDF         	movff	_dtoa$748,indf2
  2750  007B9A                     l1607:
  2751                           
  2752                           ;C:\Program Files\Microchip\xc8\v2.36\pic\sources\c99\common\doprnt.c: 327:     return p
      +                          ad(fp, &dbuf[i], w);
  2753  007B9A  C01C  F011         	movff	dtoa@fp,pad@fp
  2754  007B9E  C01D  F012         	movff	dtoa@fp+1,pad@fp+1
  2755  007BA2  0E73               	movlw	low _dbuf
  2756  007BA4  243E               	addwf	dtoa@i^0,w,c
  2757  007BA6  6E13               	movwf	pad@buf^0,c
  2758  007BA8  0E00               	movlw	high _dbuf
  2759  007BAA  203F               	addwfc	(dtoa@i+1)^0,w,c
  2760  007BAC  6E14               	movwf	(pad@buf+1)^0,c
  2761  007BAE  C032  F015         	movff	dtoa@w,pad@p
  2762  007BB2  C033  F016         	movff	dtoa@w+1,pad@p+1
  2763  007BB6  EC66  F037         	call	_pad	;wreg free
  2764  007BBA  C011  F01C         	movff	?_pad,?_dtoa
  2765  007BBE  C012  F01D         	movff	?_pad+1,?_dtoa+1
  2766  007BC2  0012               	return		;funcret
  2767  007BC4                     __end_of_dtoa:
  2768                           	callstack 0
  2769                           
  2770 ;; *************** function _pad *****************
  2771 ;; Defined at:
  2772 ;;		line 72 in file "C:\Program Files\Microchip\xc8\v2.36\pic\sources\c99\common\doprnt.c"
  2773 ;; Parameters:    Size  Location     Type
  2774 ;;  fp              2   16[COMRAM] PTR struct _IO_FILE
  2775 ;;		 -> sprintf@f(11), 
  2776 ;;  buf             2   18[COMRAM] PTR unsigned char 
  2777 ;;		 -> dbuf(32), 
  2778 ;;  p               2   20[COMRAM] int 
  2779 ;; Auto vars:     Size  Location     Type
  2780 ;;  w               2   25[COMRAM] int 
  2781 ;;  i               2   23[COMRAM] int 
  2782 ;; Return value:  Size  Location     Type
  2783 ;;                  2   16[COMRAM] int 
  2784 ;; Registers used:
  2785 ;;		wreg, fsr1l, fsr1h, fsr2l, fsr2h, status,2, status,0, cstack
  2786 ;; Tracked objects:
  2787 ;;		On entry : 0/0
  2788 ;;		On exit  : 0/0
  2789 ;;		Unchanged: 0/0
  2790 ;; Data sizes:     COMRAM   BANK0   BANK1   BANK2   BANK3   BANK4   BANK5
  2791 ;;      Params:         6       0       0       0       0       0       0
  2792 ;;      Locals:         4       0       0       0       0       0       0
  2793 ;;      Temps:          1       0       0       0       0       0       0
  2794 ;;      Totals:        11       0       0       0       0       0       0
  2795 ;;Total ram usage:       11 bytes
  2796 ;; Hardware stack levels used: 1
  2797 ;; Hardware stack levels required when called: 3
  2798 ;; This function calls:
  2799 ;;		_fputc
  2800 ;;		_fputs
  2801 ;;		_strlen
  2802 ;; This function is called by:
  2803 ;;		_dtoa
  2804 ;; This function uses a non-reentrant model
  2805 ;;
  2806                           
  2807                           	psect	text5
  2808  006ECC                     __ptext5:
  2809                           	callstack 0
  2810  006ECC                     _pad:
  2811                           	callstack 23
  2812  006ECC                     
  2813                           ;C:\Program Files\Microchip\xc8\v2.36\pic\sources\c99\common\doprnt.c: 72: static int pa
      +                          d(FILE *fp, char *buf, int p);C:\Program Files\Microchip\xc8\v2.36\pic\sources\c99\commo
      +                          n\doprnt.c: 73: {;C:\Program Files\Microchip\xc8\v2.36\pic\sources\c99\common\doprnt.c: 
      +                          74:     int i, w;;C:\Program Files\Microchip\xc8\v2.36\pic\sources\c99\common\doprnt.c: 
      +                          77:     if (flags & (1 << 0)) {
  2814  006ECC  0100               	movlb	0	; () banked
  2815  006ECE  A16F               	btfss	_flags& (0+255),0,b
  2816  006ED0  EF6C  F037         	goto	u1001
  2817  006ED4  EF6E  F037         	goto	u1000
  2818  006ED8                     u1001:
  2819  006ED8  EF78  F037         	goto	l1507
  2820  006EDC                     u1000:
  2821  006EDC                     
  2822                           ; BSR set to: 0
  2823                           ;C:\Program Files\Microchip\xc8\v2.36\pic\sources\c99\common\doprnt.c: 78:         fputs
      +                          ((const char *)buf, fp);
  2824  006EDC  C013  F00A         	movff	pad@buf,fputs@s
  2825  006EE0  C014  F00B         	movff	pad@buf+1,fputs@s+1
  2826  006EE4  C011  F00C         	movff	pad@fp,fputs@fp
  2827  006EE8  C012  F00D         	movff	pad@fp+1,fputs@fp+1
  2828  006EEC  EC42  F035         	call	_fputs	;wreg free
  2829  006EF0                     l1507:
  2830                           
  2831                           ;C:\Program Files\Microchip\xc8\v2.36\pic\sources\c99\common\doprnt.c: 82:     w = (p < 
      +                          0) ? 0 : p;
  2832  006EF0  BE16               	btfsc	(pad@p+1)^0,7,c
  2833  006EF2  EF7D  F037         	goto	u1011
  2834  006EF6  EF7F  F037         	goto	u1010
  2835  006EFA                     u1011:
  2836  006EFA  EF85  F037         	goto	l1511
  2837  006EFE                     u1010:
  2838  006EFE  C015  F01A         	movff	pad@p,pad@w
  2839  006F02  C016  F01B         	movff	pad@p+1,pad@w+1
  2840  006F06  EF89  F037         	goto	l822
  2841  006F0A                     l1511:
  2842  006F0A  0E00               	movlw	0
  2843  006F0C  6E1B               	movwf	(pad@w+1)^0,c
  2844  006F0E  0E00               	movlw	0
  2845  006F10  6E1A               	movwf	pad@w^0,c
  2846  006F12                     l822:
  2847                           
  2848                           ;C:\Program Files\Microchip\xc8\v2.36\pic\sources\c99\common\doprnt.c: 83:     i = 0;
  2849  006F12  0E00               	movlw	0
  2850  006F14  6E19               	movwf	(pad@i+1)^0,c
  2851  006F16  0E00               	movlw	0
  2852  006F18  6E18               	movwf	pad@i^0,c
  2853                           
  2854                           ;C:\Program Files\Microchip\xc8\v2.36\pic\sources\c99\common\doprnt.c: 84:     while (i 
      +                          < w) {
  2855  006F1A  EF9B  F037         	goto	l1517
  2856  006F1E                     l1513:
  2857                           
  2858                           ;C:\Program Files\Microchip\xc8\v2.36\pic\sources\c99\common\doprnt.c: 85:         fputc
      +                          (' ', fp);
  2859  006F1E  0E00               	movlw	0
  2860  006F20  6E02               	movwf	(fputc@c+1)^0,c
  2861  006F22  0E20               	movlw	32
  2862  006F24  6E01               	movwf	fputc@c^0,c
  2863  006F26  C011  F003         	movff	pad@fp,fputc@fp
  2864  006F2A  C012  F004         	movff	pad@fp+1,fputc@fp+1
  2865  006F2E  ECC9  F037         	call	_fputc	;wreg free
  2866  006F32                     
  2867                           ;C:\Program Files\Microchip\xc8\v2.36\pic\sources\c99\common\doprnt.c: 86:         ++i;
  2868  006F32  4A18               	infsnz	pad@i^0,f,c
  2869  006F34  2A19               	incf	(pad@i+1)^0,f,c
  2870  006F36                     l1517:
  2871                           
  2872                           ;C:\Program Files\Microchip\xc8\v2.36\pic\sources\c99\common\doprnt.c: 84:     while (i 
      +                          < w) {
  2873  006F36  501A               	movf	pad@w^0,w,c
  2874  006F38  5C18               	subwf	pad@i^0,w,c
  2875  006F3A  5019               	movf	(pad@i+1)^0,w,c
  2876  006F3C  0A80               	xorlw	128
  2877  006F3E  6E17               	movwf	??_pad^0,c
  2878  006F40  501B               	movf	(pad@w+1)^0,w,c
  2879  006F42  0A80               	xorlw	128
  2880  006F44  5817               	subwfb	??_pad^0,w,c
  2881  006F46  A0D8               	btfss	status,0,c
  2882  006F48  EFA8  F037         	goto	u1021
  2883  006F4C  EFAA  F037         	goto	u1020
  2884  006F50                     u1021:
  2885  006F50  EF8F  F037         	goto	l1513
  2886  006F54                     u1020:
  2887  006F54                     
  2888                           ;C:\Program Files\Microchip\xc8\v2.36\pic\sources\c99\common\doprnt.c: 90:     if (!(fla
      +                          gs & (1 << 0))) {
  2889  006F54  0100               	movlb	0	; () banked
  2890  006F56  B16F               	btfsc	_flags& (0+255),0,b
  2891  006F58  EFB0  F037         	goto	u1031
  2892  006F5C  EFB2  F037         	goto	u1030
  2893  006F60                     u1031:
  2894  006F60  EFBC  F037         	goto	l1521
  2895  006F64                     u1030:
  2896  006F64                     
  2897                           ; BSR set to: 0
  2898                           ;C:\Program Files\Microchip\xc8\v2.36\pic\sources\c99\common\doprnt.c: 91:         fputs
      +                          ((const char *)buf, fp);
  2899  006F64  C013  F00A         	movff	pad@buf,fputs@s
  2900  006F68  C014  F00B         	movff	pad@buf+1,fputs@s+1
  2901  006F6C  C011  F00C         	movff	pad@fp,fputs@fp
  2902  006F70  C012  F00D         	movff	pad@fp+1,fputs@fp+1
  2903  006F74  EC42  F035         	call	_fputs	;wreg free
  2904  006F78                     l1521:
  2905                           
  2906                           ;C:\Program Files\Microchip\xc8\v2.36\pic\sources\c99\common\doprnt.c: 94:     return (i
      +                          nt)(strlen(buf) + (size_t)w);
  2907  006F78  C013  F001         	movff	pad@buf,strlen@s
  2908  006F7C  C014  F002         	movff	pad@buf+1,strlen@s+1
  2909  006F80  ECCD  F034         	call	_strlen	;wreg free
  2910  006F84  501A               	movf	pad@w^0,w,c
  2911  006F86  2401               	addwf	?_strlen^0,w,c
  2912  006F88  6E11               	movwf	?_pad^0,c
  2913  006F8A  501B               	movf	(pad@w+1)^0,w,c
  2914  006F8C  2002               	addwfc	(?_strlen+1)^0,w,c
  2915  006F8E  6E12               	movwf	(?_pad+1)^0,c
  2916  006F90  0012               	return		;funcret
  2917  006F92                     __end_of_pad:
  2918                           	callstack 0
  2919                           
  2920 ;; *************** function _strlen *****************
  2921 ;; Defined at:
  2922 ;;		line 5 in file "C:\Program Files\Microchip\xc8\v2.36\pic\sources\c99\common\strlen.c"
  2923 ;; Parameters:    Size  Location     Type
  2924 ;;  s               2    0[COMRAM] PTR const unsigned char 
  2925 ;;		 -> dbuf(32), 
  2926 ;; Auto vars:     Size  Location     Type
  2927 ;;  a               2    2[COMRAM] PTR const unsigned char 
  2928 ;;		 -> dbuf(32), 
  2929 ;; Return value:  Size  Location     Type
  2930 ;;                  2    0[COMRAM] unsigned int 
  2931 ;; Registers used:
  2932 ;;		wreg, fsr2l, fsr2h, status,2, status,0
  2933 ;; Tracked objects:
  2934 ;;		On entry : 0/0
  2935 ;;		On exit  : 0/0
  2936 ;;		Unchanged: 0/0
  2937 ;; Data sizes:     COMRAM   BANK0   BANK1   BANK2   BANK3   BANK4   BANK5
  2938 ;;      Params:         2       0       0       0       0       0       0
  2939 ;;      Locals:         2       0       0       0       0       0       0
  2940 ;;      Temps:          0       0       0       0       0       0       0
  2941 ;;      Totals:         4       0       0       0       0       0       0
  2942 ;;Total ram usage:        4 bytes
  2943 ;; Hardware stack levels used: 1
  2944 ;; This function calls:
  2945 ;;		Nothing
  2946 ;; This function is called by:
  2947 ;;		_pad
  2948 ;; This function uses a non-reentrant model
  2949 ;;
  2950                           
  2951                           	psect	text6
  2952  00699A                     __ptext6:
  2953                           	callstack 0
  2954  00699A                     _strlen:
  2955                           	callstack 25
  2956  00699A  C001  F003         	movff	strlen@s,strlen@a
  2957  00699E  C002  F004         	movff	strlen@s+1,strlen@a+1
  2958  0069A2  EFD5  F034         	goto	l1417
  2959  0069A6                     l1415:
  2960  0069A6  4A01               	infsnz	strlen@s^0,f,c
  2961  0069A8  2A02               	incf	(strlen@s+1)^0,f,c
  2962  0069AA                     l1417:
  2963  0069AA  C001  FFD9         	movff	strlen@s,fsr2l
  2964  0069AE  C002  FFDA         	movff	strlen@s+1,fsr2h
  2965  0069B2  50DF               	movf	indf2,w,c
  2966  0069B4  A4D8               	btfss	status,2,c
  2967  0069B6  EFDF  F034         	goto	u861
  2968  0069BA  EFE1  F034         	goto	u860
  2969  0069BE                     u861:
  2970  0069BE  EFD3  F034         	goto	l1415
  2971  0069C2                     u860:
  2972  0069C2  5003               	movf	strlen@a^0,w,c
  2973  0069C4  5C01               	subwf	strlen@s^0,w,c
  2974  0069C6  6E01               	movwf	?_strlen^0,c
  2975  0069C8  5004               	movf	(strlen@a+1)^0,w,c
  2976  0069CA  5802               	subwfb	(strlen@s+1)^0,w,c
  2977  0069CC  6E02               	movwf	(?_strlen+1)^0,c
  2978  0069CE  0012               	return		;funcret
  2979  0069D0                     __end_of_strlen:
  2980                           	callstack 0
  2981                           
  2982 ;; *************** function _fputs *****************
  2983 ;; Defined at:
  2984 ;;		line 8 in file "C:\Program Files\Microchip\xc8\v2.36\pic\sources\c99\common\nf_fputs.c"
  2985 ;; Parameters:    Size  Location     Type
  2986 ;;  s               2    9[COMRAM] PTR const unsigned char 
  2987 ;;		 -> dbuf(32), 
  2988 ;;  fp              2   11[COMRAM] PTR struct _IO_FILE
  2989 ;;		 -> sprintf@f(11), 
  2990 ;; Auto vars:     Size  Location     Type
  2991 ;;  i               2   14[COMRAM] int 
  2992 ;;  c               1   13[COMRAM] unsigned char 
  2993 ;; Return value:  Size  Location     Type
  2994 ;;                  2    9[COMRAM] int 
  2995 ;; Registers used:
  2996 ;;		wreg, fsr1l, fsr1h, fsr2l, fsr2h, status,2, status,0, cstack
  2997 ;; Tracked objects:
  2998 ;;		On entry : 0/0
  2999 ;;		On exit  : 0/0
  3000 ;;		Unchanged: 0/0
  3001 ;; Data sizes:     COMRAM   BANK0   BANK1   BANK2   BANK3   BANK4   BANK5
  3002 ;;      Params:         4       0       0       0       0       0       0
  3003 ;;      Locals:         3       0       0       0       0       0       0
  3004 ;;      Temps:          0       0       0       0       0       0       0
  3005 ;;      Totals:         7       0       0       0       0       0       0
  3006 ;;Total ram usage:        7 bytes
  3007 ;; Hardware stack levels used: 1
  3008 ;; Hardware stack levels required when called: 2
  3009 ;; This function calls:
  3010 ;;		_fputc
  3011 ;; This function is called by:
  3012 ;;		_pad
  3013 ;; This function uses a non-reentrant model
  3014 ;;
  3015                           
  3016                           	psect	text7
  3017  006A84                     __ptext7:
  3018                           	callstack 0
  3019  006A84                     _fputs:
  3020                           	callstack 23
  3021  006A84  0E00               	movlw	0
  3022  006A86  6E10               	movwf	(fputs@i+1)^0,c
  3023  006A88  0E00               	movlw	0
  3024  006A8A  6E0F               	movwf	fputs@i^0,c
  3025  006A8C  EF53  F035         	goto	l1411
  3026  006A90                     l1407:
  3027  006A90  C00E  F001         	movff	fputs@c,fputc@c
  3028  006A94  6A02               	clrf	(fputc@c+1)^0,c
  3029  006A96  C00C  F003         	movff	fputs@fp,fputc@fp
  3030  006A9A  C00D  F004         	movff	fputs@fp+1,fputc@fp+1
  3031  006A9E  ECC9  F037         	call	_fputc	;wreg free
  3032  006AA2  4A0F               	infsnz	fputs@i^0,f,c
  3033  006AA4  2A10               	incf	(fputs@i+1)^0,f,c
  3034  006AA6                     l1411:
  3035  006AA6  500F               	movf	fputs@i^0,w,c
  3036  006AA8  240A               	addwf	fputs@s^0,w,c
  3037  006AAA  6ED9               	movwf	fsr2l,c
  3038  006AAC  5010               	movf	(fputs@i+1)^0,w,c
  3039  006AAE  200B               	addwfc	(fputs@s+1)^0,w,c
  3040  006AB0  6EDA               	movwf	fsr2h,c
  3041  006AB2  50DF               	movf	indf2,w,c
  3042  006AB4  6E0E               	movwf	fputs@c^0,c
  3043  006AB6  500E               	movf	fputs@c^0,w,c
  3044  006AB8  A4D8               	btfss	status,2,c
  3045  006ABA  EF61  F035         	goto	u851
  3046  006ABE  EF63  F035         	goto	u850
  3047  006AC2                     u851:
  3048  006AC2  EF48  F035         	goto	l1407
  3049  006AC6                     u850:
  3050  006AC6  0012               	return		;funcret
  3051  006AC8                     __end_of_fputs:
  3052                           	callstack 0
  3053                           
  3054 ;; *************** function _fputc *****************
  3055 ;; Defined at:
  3056 ;;		line 8 in file "C:\Program Files\Microchip\xc8\v2.36\pic\sources\c99\common\nf_fputc.c"
  3057 ;; Parameters:    Size  Location     Type
  3058 ;;  c               2    0[COMRAM] int 
  3059 ;;  fp              2    2[COMRAM] PTR struct _IO_FILE
  3060 ;;		 -> sprintf@f(11), 
  3061 ;; Auto vars:     Size  Location     Type
  3062 ;;		None
  3063 ;; Return value:  Size  Location     Type
  3064 ;;                  2    0[COMRAM] int 
  3065 ;; Registers used:
  3066 ;;		wreg, fsr1l, fsr1h, fsr2l, fsr2h, status,2, status,0, cstack
  3067 ;; Tracked objects:
  3068 ;;		On entry : 0/0
  3069 ;;		On exit  : 0/0
  3070 ;;		Unchanged: 0/0
  3071 ;; Data sizes:     COMRAM   BANK0   BANK1   BANK2   BANK3   BANK4   BANK5
  3072 ;;      Params:         4       0       0       0       0       0       0
  3073 ;;      Locals:         0       0       0       0       0       0       0
  3074 ;;      Temps:          5       0       0       0       0       0       0
  3075 ;;      Totals:         9       0       0       0       0       0       0
  3076 ;;Total ram usage:        9 bytes
  3077 ;; Hardware stack levels used: 1
  3078 ;; Hardware stack levels required when called: 1
  3079 ;; This function calls:
  3080 ;;		_putch
  3081 ;; This function is called by:
  3082 ;;		_pad
  3083 ;;		_vfpfcnvrt
  3084 ;;		_fputs
  3085 ;; This function uses a non-reentrant model
  3086 ;;
  3087                           
  3088                           	psect	text8
  3089  006F92                     __ptext8:
  3090                           	callstack 0
  3091  006F92                     _fputc:
  3092                           	callstack 26
  3093  006F92  5003               	movf	fputc@fp^0,w,c
  3094  006F94  1004               	iorwf	(fputc@fp+1)^0,w,c
  3095  006F96  B4D8               	btfsc	status,2,c
  3096  006F98  EFD0  F037         	goto	u811
  3097  006F9C  EFD2  F037         	goto	u810
  3098  006FA0                     u811:
  3099  006FA0  EFDB  F037         	goto	l1395
  3100  006FA4                     u810:
  3101  006FA4  5003               	movf	fputc@fp^0,w,c
  3102  006FA6  1004               	iorwf	(fputc@fp+1)^0,w,c
  3103  006FA8  A4D8               	btfss	status,2,c
  3104  006FAA  EFD9  F037         	goto	u821
  3105  006FAE  EFDB  F037         	goto	u820
  3106  006FB2                     u821:
  3107  006FB2  EFE0  F037         	goto	l1397
  3108  006FB6                     u820:
  3109  006FB6                     l1395:
  3110  006FB6  5001               	movf	fputc@c^0,w,c
  3111  006FB8  ECA1  F034         	call	_putch
  3112  006FBC  EF2D  F038         	goto	l886
  3113  006FC0                     l1397:
  3114  006FC0  EE20 F009          	lfsr	2,9
  3115  006FC4  5003               	movf	fputc@fp^0,w,c
  3116  006FC6  26D9               	addwf	fsr2l,f,c
  3117  006FC8  5004               	movf	(fputc@fp+1)^0,w,c
  3118  006FCA  22DA               	addwfc	fsr2h,f,c
  3119  006FCC  50DE               	movf	postinc2,w,c
  3120  006FCE  10DE               	iorwf	postinc2,w,c
  3121  006FD0  B4D8               	btfsc	status,2,c
  3122  006FD2  EFED  F037         	goto	u831
  3123  006FD6  EFEF  F037         	goto	u830
  3124  006FDA                     u831:
  3125  006FDA  EF0A  F038         	goto	l1401
  3126  006FDE                     u830:
  3127  006FDE  EE20 F009          	lfsr	2,9
  3128  006FE2  5003               	movf	fputc@fp^0,w,c
  3129  006FE4  26D9               	addwf	fsr2l,f,c
  3130  006FE6  5004               	movf	(fputc@fp+1)^0,w,c
  3131  006FE8  22DA               	addwfc	fsr2h,f,c
  3132  006FEA  EE10 F003          	lfsr	1,3
  3133  006FEE  5003               	movf	fputc@fp^0,w,c
  3134  006FF0  26E1               	addwf	fsr1l,f,c
  3135  006FF2  5004               	movf	(fputc@fp+1)^0,w,c
  3136  006FF4  22E2               	addwfc	fsr1h,f,c
  3137  006FF6  50DE               	movf	postinc2,w,c
  3138  006FF8  5CE6               	subwf	postinc1,w,c
  3139  006FFA  50E6               	movf	postinc1,w,c
  3140  006FFC  0A80               	xorlw	128
  3141  006FFE  6E09               	movwf	(??_fputc+4)^0,c
  3142  007000  50DE               	movf	postinc2,w,c
  3143  007002  0A80               	xorlw	128
  3144  007004  5809               	subwfb	(??_fputc+4)^0,w,c
  3145  007006  B0D8               	btfsc	status,0,c
  3146  007008  EF08  F038         	goto	u841
  3147  00700C  EF0A  F038         	goto	u840
  3148  007010                     u841:
  3149  007010  EF2D  F038         	goto	l886
  3150  007014                     u840:
  3151  007014                     l1401:
  3152  007014  EE20 F003          	lfsr	2,3
  3153  007018  5003               	movf	fputc@fp^0,w,c
  3154  00701A  26D9               	addwf	fsr2l,f,c
  3155  00701C  5004               	movf	(fputc@fp+1)^0,w,c
  3156  00701E  22DA               	addwfc	fsr2h,f,c
  3157  007020  CFDE F005          	movff	postinc2,??_fputc
  3158  007024  CFDD F006          	movff	postdec2,??_fputc+1
  3159  007028  C003  FFD9         	movff	fputc@fp,fsr2l
  3160  00702C  C004  FFDA         	movff	fputc@fp+1,fsr2h
  3161  007030  CFDE F007          	movff	postinc2,??_fputc+2
  3162  007034  CFDD F008          	movff	postdec2,??_fputc+3
  3163  007038  5005               	movf	??_fputc^0,w,c
  3164  00703A  2407               	addwf	(??_fputc+2)^0,w,c
  3165  00703C  6ED9               	movwf	fsr2l,c
  3166  00703E  5006               	movf	(??_fputc+1)^0,w,c
  3167  007040  2008               	addwfc	(??_fputc+3)^0,w,c
  3168  007042  6EDA               	movwf	fsr2h,c
  3169  007044  C001  FFDF         	movff	fputc@c,indf2
  3170  007048  EE20 F003          	lfsr	2,3
  3171  00704C  5003               	movf	fputc@fp^0,w,c
  3172  00704E  26D9               	addwf	fsr2l,f,c
  3173  007050  5004               	movf	(fputc@fp+1)^0,w,c
  3174  007052  22DA               	addwfc	fsr2h,f,c
  3175  007054  2ADE               	incf	postinc2,f,c
  3176  007056  0E00               	movlw	0
  3177  007058  22DD               	addwfc	postdec2,f,c
  3178  00705A                     l886:
  3179  00705A  0012               	return		;funcret
  3180  00705C                     __end_of_fputc:
  3181                           	callstack 0
  3182                           
  3183 ;; *************** function _putch *****************
  3184 ;; Defined at:
  3185 ;;		line 7 in file "C:\Program Files\Microchip\xc8\v2.36\pic\sources\c99\common\putch.c"
  3186 ;; Parameters:    Size  Location     Type
  3187 ;;  c               1    wreg     unsigned char 
  3188 ;; Auto vars:     Size  Location     Type
  3189 ;;  c               1    0[COMRAM] unsigned char 
  3190 ;; Return value:  Size  Location     Type
  3191 ;;                  1    wreg      void 
  3192 ;; Registers used:
  3193 ;;		wreg
  3194 ;; Tracked objects:
  3195 ;;		On entry : 0/0
  3196 ;;		On exit  : 0/0
  3197 ;;		Unchanged: 0/0
  3198 ;; Data sizes:     COMRAM   BANK0   BANK1   BANK2   BANK3   BANK4   BANK5
  3199 ;;      Params:         0       0       0       0       0       0       0
  3200 ;;      Locals:         0       0       0       0       0       0       0
  3201 ;;      Temps:          0       0       0       0       0       0       0
  3202 ;;      Totals:         0       0       0       0       0       0       0
  3203 ;;Total ram usage:        0 bytes
  3204 ;; Hardware stack levels used: 1
  3205 ;; This function calls:
  3206 ;;		Nothing
  3207 ;; This function is called by:
  3208 ;;		_fputc
  3209 ;; This function uses a non-reentrant model
  3210 ;;
  3211                           
  3212                           	psect	text9
  3213  006942                     __ptext9:
  3214                           	callstack 0
  3215  006942                     _putch:
  3216                           	callstack 26
  3217  006942  0012               	return		;funcret
  3218  006944                     __end_of_putch:
  3219                           	callstack 0
  3220                           
  3221 ;; *************** function _abs *****************
  3222 ;; Defined at:
  3223 ;;		line 1 in file "C:\Program Files\Microchip\xc8\v2.36\pic\sources\c99\common\abs.c"
  3224 ;; Parameters:    Size  Location     Type
  3225 ;;  a               2   18[COMRAM] int 
  3226 ;; Auto vars:     Size  Location     Type
  3227 ;;		None
  3228 ;; Return value:  Size  Location     Type
  3229 ;;                  2   18[COMRAM] int 
  3230 ;; Registers used:
  3231 ;;		wreg, status,2, status,0
  3232 ;; Tracked objects:
  3233 ;;		On entry : 0/0
  3234 ;;		On exit  : 0/0
  3235 ;;		Unchanged: 0/0
  3236 ;; Data sizes:     COMRAM   BANK0   BANK1   BANK2   BANK3   BANK4   BANK5
  3237 ;;      Params:         2       0       0       0       0       0       0
  3238 ;;      Locals:         0       0       0       0       0       0       0
  3239 ;;      Temps:          2       0       0       0       0       0       0
  3240 ;;      Totals:         4       0       0       0       0       0       0
  3241 ;;Total ram usage:        4 bytes
  3242 ;; Hardware stack levels used: 1
  3243 ;; This function calls:
  3244 ;;		Nothing
  3245 ;; This function is called by:
  3246 ;;		_dtoa
  3247 ;; This function uses a non-reentrant model
  3248 ;;
  3249                           
  3250                           	psect	text10
  3251  006A44                     __ptext10:
  3252                           	callstack 0
  3253  006A44                     _abs:
  3254                           	callstack 26
  3255  006A44  BE14               	btfsc	(abs@a+1)^0,7,c
  3256  006A46  EF2F  F035         	goto	u1040
  3257  006A4A  5014               	movf	(abs@a+1)^0,w,c
  3258  006A4C  E106               	bnz	u1041
  3259  006A4E  0413               	decf	abs@a^0,w,c
  3260  006A50  B0D8               	btfsc	status,0,c
  3261  006A52  EF2D  F035         	goto	u1041
  3262  006A56  EF2F  F035         	goto	u1040
  3263  006A5A                     u1041:
  3264  006A5A  EF3D  F035         	goto	l871
  3265  006A5E                     u1040:
  3266  006A5E  C013  F015         	movff	abs@a,??_abs
  3267  006A62  C014  F016         	movff	abs@a+1,??_abs+1
  3268  006A66  1E15               	comf	??_abs^0,f,c
  3269  006A68  1E16               	comf	(??_abs+1)^0,f,c
  3270  006A6A  4A15               	infsnz	??_abs^0,f,c
  3271  006A6C  2A16               	incf	(??_abs+1)^0,f,c
  3272  006A6E  C015  F013         	movff	??_abs,?_abs
  3273  006A72  C016  F014         	movff	??_abs+1,?_abs+1
  3274  006A76  EF41  F035         	goto	l874
  3275  006A7A                     l871:
  3276  006A7A  C013  F013         	movff	abs@a,?_abs
  3277  006A7E  C014  F014         	movff	abs@a+1,?_abs+1
  3278  006A82                     l874:
  3279  006A82  0012               	return		;funcret
  3280  006A84                     __end_of_abs:
  3281                           	callstack 0
  3282                           
  3283 ;; *************** function ___aomod *****************
  3284 ;; Defined at:
  3285 ;;		line 9 in file "C:\Program Files\Microchip\xc8\v2.36\pic\sources\c99\common\aomod.c"
  3286 ;; Parameters:    Size  Location     Type
  3287 ;;  dividend        8    0[COMRAM] long long 
  3288 ;;  divisor         8    8[COMRAM] long long 
  3289 ;; Auto vars:     Size  Location     Type
  3290 ;;  sign            1   17[COMRAM] unsigned char 
  3291 ;;  counter         1   16[COMRAM] unsigned char 
  3292 ;; Return value:  Size  Location     Type
  3293 ;;                  8    0[COMRAM] long long 
  3294 ;; Registers used:
  3295 ;;		wreg, status,2, status,0
  3296 ;; Tracked objects:
  3297 ;;		On entry : 0/0
  3298 ;;		On exit  : 0/0
  3299 ;;		Unchanged: 0/0
  3300 ;; Data sizes:     COMRAM   BANK0   BANK1   BANK2   BANK3   BANK4   BANK5
  3301 ;;      Params:        16       0       0       0       0       0       0
  3302 ;;      Locals:         2       0       0       0       0       0       0
  3303 ;;      Temps:          0       0       0       0       0       0       0
  3304 ;;      Totals:        18       0       0       0       0       0       0
  3305 ;;Total ram usage:       18 bytes
  3306 ;; Hardware stack levels used: 1
  3307 ;; This function calls:
  3308 ;;		Nothing
  3309 ;; This function is called by:
  3310 ;;		_dtoa
  3311 ;; This function uses a non-reentrant model
  3312 ;;
  3313                           
  3314                           	psect	text11
  3315  007128                     __ptext11:
  3316                           	callstack 0
  3317  007128                     ___aomod:
  3318                           	callstack 26
  3319  007128  0E00               	movlw	0
  3320  00712A  6E12               	movwf	___aomod@sign^0,c
  3321  00712C  BE08               	btfsc	(___aomod@dividend+7)^0,7,c
  3322  00712E  EF9D  F038         	goto	u940
  3323  007132  EF9B  F038         	goto	u941
  3324  007136                     u941:
  3325  007136  EFAF  F038         	goto	l1475
  3326  00713A                     u940:
  3327  00713A  1E08               	comf	(___aomod@dividend+7)^0,f,c
  3328  00713C  1E07               	comf	(___aomod@dividend+6)^0,f,c
  3329  00713E  1E06               	comf	(___aomod@dividend+5)^0,f,c
  3330  007140  1E05               	comf	(___aomod@dividend+4)^0,f,c
  3331  007142  1E04               	comf	(___aomod@dividend+3)^0,f,c
  3332  007144  1E03               	comf	(___aomod@dividend+2)^0,f,c
  3333  007146  1E02               	comf	(___aomod@dividend+1)^0,f,c
  3334  007148  6C01               	negf	___aomod@dividend^0,c
  3335  00714A  0E00               	movlw	0
  3336  00714C  2202               	addwfc	(___aomod@dividend+1)^0,f,c
  3337  00714E  2203               	addwfc	(___aomod@dividend+2)^0,f,c
  3338  007150  2204               	addwfc	(___aomod@dividend+3)^0,f,c
  3339  007152  2205               	addwfc	(___aomod@dividend+4)^0,f,c
  3340  007154  2206               	addwfc	(___aomod@dividend+5)^0,f,c
  3341  007156  2207               	addwfc	(___aomod@dividend+6)^0,f,c
  3342  007158  2208               	addwfc	(___aomod@dividend+7)^0,f,c
  3343  00715A  0E01               	movlw	1
  3344  00715C  6E12               	movwf	___aomod@sign^0,c
  3345  00715E                     l1475:
  3346  00715E  BE10               	btfsc	(___aomod@divisor+7)^0,7,c
  3347  007160  EFB6  F038         	goto	u950
  3348  007164  EFB4  F038         	goto	u951
  3349  007168                     u951:
  3350  007168  EFC6  F038         	goto	l1479
  3351  00716C                     u950:
  3352  00716C  1E10               	comf	(___aomod@divisor+7)^0,f,c
  3353  00716E  1E0F               	comf	(___aomod@divisor+6)^0,f,c
  3354  007170  1E0E               	comf	(___aomod@divisor+5)^0,f,c
  3355  007172  1E0D               	comf	(___aomod@divisor+4)^0,f,c
  3356  007174  1E0C               	comf	(___aomod@divisor+3)^0,f,c
  3357  007176  1E0B               	comf	(___aomod@divisor+2)^0,f,c
  3358  007178  1E0A               	comf	(___aomod@divisor+1)^0,f,c
  3359  00717A  6C09               	negf	___aomod@divisor^0,c
  3360  00717C  0E00               	movlw	0
  3361  00717E  220A               	addwfc	(___aomod@divisor+1)^0,f,c
  3362  007180  220B               	addwfc	(___aomod@divisor+2)^0,f,c
  3363  007182  220C               	addwfc	(___aomod@divisor+3)^0,f,c
  3364  007184  220D               	addwfc	(___aomod@divisor+4)^0,f,c
  3365  007186  220E               	addwfc	(___aomod@divisor+5)^0,f,c
  3366  007188  220F               	addwfc	(___aomod@divisor+6)^0,f,c
  3367  00718A  2210               	addwfc	(___aomod@divisor+7)^0,f,c
  3368  00718C                     l1479:
  3369  00718C  5009               	movf	___aomod@divisor^0,w,c
  3370  00718E  100A               	iorwf	(___aomod@divisor+1)^0,w,c
  3371  007190  100B               	iorwf	(___aomod@divisor+2)^0,w,c
  3372  007192  100C               	iorwf	(___aomod@divisor+3)^0,w,c
  3373  007194  100D               	iorwf	(___aomod@divisor+4)^0,w,c
  3374  007196  100E               	iorwf	(___aomod@divisor+5)^0,w,c
  3375  007198  100F               	iorwf	(___aomod@divisor+6)^0,w,c
  3376  00719A  1010               	iorwf	(___aomod@divisor+7)^0,w,c
  3377  00719C  B4D8               	btfsc	status,2,c
  3378  00719E  EFD3  F038         	goto	u961
  3379  0071A2  EFD5  F038         	goto	u960
  3380  0071A6                     u961:
  3381  0071A6  EF1D  F039         	goto	l1495
  3382  0071AA                     u960:
  3383  0071AA  0E01               	movlw	1
  3384  0071AC  6E11               	movwf	___aomod@counter^0,c
  3385  0071AE  EFE3  F038         	goto	l1485
  3386  0071B2                     l1483:
  3387  0071B2  90D8               	bcf	status,0,c
  3388  0071B4  3609               	rlcf	___aomod@divisor^0,f,c
  3389  0071B6  360A               	rlcf	(___aomod@divisor+1)^0,f,c
  3390  0071B8  360B               	rlcf	(___aomod@divisor+2)^0,f,c
  3391  0071BA  360C               	rlcf	(___aomod@divisor+3)^0,f,c
  3392  0071BC  360D               	rlcf	(___aomod@divisor+4)^0,f,c
  3393  0071BE  360E               	rlcf	(___aomod@divisor+5)^0,f,c
  3394  0071C0  360F               	rlcf	(___aomod@divisor+6)^0,f,c
  3395  0071C2  3610               	rlcf	(___aomod@divisor+7)^0,f,c
  3396  0071C4  2A11               	incf	___aomod@counter^0,f,c
  3397  0071C6                     l1485:
  3398  0071C6  AE10               	btfss	(___aomod@divisor+7)^0,7,c
  3399  0071C8  EFE8  F038         	goto	u971
  3400  0071CC  EFEA  F038         	goto	u970
  3401  0071D0                     u971:
  3402  0071D0  EFD9  F038         	goto	l1483
  3403  0071D4                     u970:
  3404  0071D4                     l1487:
  3405  0071D4  5009               	movf	___aomod@divisor^0,w,c
  3406  0071D6  5C01               	subwf	___aomod@dividend^0,w,c
  3407  0071D8  500A               	movf	(___aomod@divisor+1)^0,w,c
  3408  0071DA  5802               	subwfb	(___aomod@dividend+1)^0,w,c
  3409  0071DC  500B               	movf	(___aomod@divisor+2)^0,w,c
  3410  0071DE  5803               	subwfb	(___aomod@dividend+2)^0,w,c
  3411  0071E0  500C               	movf	(___aomod@divisor+3)^0,w,c
  3412  0071E2  5804               	subwfb	(___aomod@dividend+3)^0,w,c
  3413  0071E4  500D               	movf	(___aomod@divisor+4)^0,w,c
  3414  0071E6  5805               	subwfb	(___aomod@dividend+4)^0,w,c
  3415  0071E8  500E               	movf	(___aomod@divisor+5)^0,w,c
  3416  0071EA  5806               	subwfb	(___aomod@dividend+5)^0,w,c
  3417  0071EC  500F               	movf	(___aomod@divisor+6)^0,w,c
  3418  0071EE  5807               	subwfb	(___aomod@dividend+6)^0,w,c
  3419  0071F0  5010               	movf	(___aomod@divisor+7)^0,w,c
  3420  0071F2  5808               	subwfb	(___aomod@dividend+7)^0,w,c
  3421  0071F4  A0D8               	btfss	status,0,c
  3422  0071F6  EFFF  F038         	goto	u981
  3423  0071FA  EF01  F039         	goto	u980
  3424  0071FE                     u981:
  3425  0071FE  EF11  F039         	goto	l1491
  3426  007202                     u980:
  3427  007202  5009               	movf	___aomod@divisor^0,w,c
  3428  007204  5E01               	subwf	___aomod@dividend^0,f,c
  3429  007206  500A               	movf	(___aomod@divisor+1)^0,w,c
  3430  007208  5A02               	subwfb	(___aomod@dividend+1)^0,f,c
  3431  00720A  500B               	movf	(___aomod@divisor+2)^0,w,c
  3432  00720C  5A03               	subwfb	(___aomod@dividend+2)^0,f,c
  3433  00720E  500C               	movf	(___aomod@divisor+3)^0,w,c
  3434  007210  5A04               	subwfb	(___aomod@dividend+3)^0,f,c
  3435  007212  500D               	movf	(___aomod@divisor+4)^0,w,c
  3436  007214  5A05               	subwfb	(___aomod@dividend+4)^0,f,c
  3437  007216  500E               	movf	(___aomod@divisor+5)^0,w,c
  3438  007218  5A06               	subwfb	(___aomod@dividend+5)^0,f,c
  3439  00721A  500F               	movf	(___aomod@divisor+6)^0,w,c
  3440  00721C  5A07               	subwfb	(___aomod@dividend+6)^0,f,c
  3441  00721E  5010               	movf	(___aomod@divisor+7)^0,w,c
  3442  007220  5A08               	subwfb	(___aomod@dividend+7)^0,f,c
  3443  007222                     l1491:
  3444  007222  90D8               	bcf	status,0,c
  3445  007224  3210               	rrcf	(___aomod@divisor+7)^0,f,c
  3446  007226  320F               	rrcf	(___aomod@divisor+6)^0,f,c
  3447  007228  320E               	rrcf	(___aomod@divisor+5)^0,f,c
  3448  00722A  320D               	rrcf	(___aomod@divisor+4)^0,f,c
  3449  00722C  320C               	rrcf	(___aomod@divisor+3)^0,f,c
  3450  00722E  320B               	rrcf	(___aomod@divisor+2)^0,f,c
  3451  007230  320A               	rrcf	(___aomod@divisor+1)^0,f,c
  3452  007232  3209               	rrcf	___aomod@divisor^0,f,c
  3453  007234  2E11               	decfsz	___aomod@counter^0,f,c
  3454  007236  EFEA  F038         	goto	l1487
  3455  00723A                     l1495:
  3456  00723A  5012               	movf	___aomod@sign^0,w,c
  3457  00723C  B4D8               	btfsc	status,2,c
  3458  00723E  EF23  F039         	goto	u991
  3459  007242  EF25  F039         	goto	u990
  3460  007246                     u991:
  3461  007246  EF35  F039         	goto	l1499
  3462  00724A                     u990:
  3463  00724A  1E08               	comf	(___aomod@dividend+7)^0,f,c
  3464  00724C  1E07               	comf	(___aomod@dividend+6)^0,f,c
  3465  00724E  1E06               	comf	(___aomod@dividend+5)^0,f,c
  3466  007250  1E05               	comf	(___aomod@dividend+4)^0,f,c
  3467  007252  1E04               	comf	(___aomod@dividend+3)^0,f,c
  3468  007254  1E03               	comf	(___aomod@dividend+2)^0,f,c
  3469  007256  1E02               	comf	(___aomod@dividend+1)^0,f,c
  3470  007258  6C01               	negf	___aomod@dividend^0,c
  3471  00725A  0E00               	movlw	0
  3472  00725C  2202               	addwfc	(___aomod@dividend+1)^0,f,c
  3473  00725E  2203               	addwfc	(___aomod@dividend+2)^0,f,c
  3474  007260  2204               	addwfc	(___aomod@dividend+3)^0,f,c
  3475  007262  2205               	addwfc	(___aomod@dividend+4)^0,f,c
  3476  007264  2206               	addwfc	(___aomod@dividend+5)^0,f,c
  3477  007266  2207               	addwfc	(___aomod@dividend+6)^0,f,c
  3478  007268  2208               	addwfc	(___aomod@dividend+7)^0,f,c
  3479  00726A                     l1499:
  3480  00726A  C001  F001         	movff	___aomod@dividend,?___aomod
  3481  00726E  C002  F002         	movff	___aomod@dividend+1,?___aomod+1
  3482  007272  C003  F003         	movff	___aomod@dividend+2,?___aomod+2
  3483  007276  C004  F004         	movff	___aomod@dividend+3,?___aomod+3
  3484  00727A  C005  F005         	movff	___aomod@dividend+4,?___aomod+4
  3485  00727E  C006  F006         	movff	___aomod@dividend+5,?___aomod+5
  3486  007282  C007  F007         	movff	___aomod@dividend+6,?___aomod+6
  3487  007286  C008  F008         	movff	___aomod@dividend+7,?___aomod+7
  3488  00728A  0012               	return		;funcret
  3489  00728C                     __end_of___aomod:
  3490                           	callstack 0
  3491                           
  3492 ;; *************** function ___aodiv *****************
  3493 ;; Defined at:
  3494 ;;		line 9 in file "C:\Program Files\Microchip\xc8\v2.36\pic\sources\c99\common\aodiv.c"
  3495 ;; Parameters:    Size  Location     Type
  3496 ;;  dividend        8    0[COMRAM] long long 
  3497 ;;  divisor         8    8[COMRAM] long long 
  3498 ;; Auto vars:     Size  Location     Type
  3499 ;;  quotient        8   18[COMRAM] long long 
  3500 ;;  sign            1   17[COMRAM] unsigned char 
  3501 ;;  counter         1   16[COMRAM] unsigned char 
  3502 ;; Return value:  Size  Location     Type
  3503 ;;                  8    0[COMRAM] long long 
  3504 ;; Registers used:
  3505 ;;		wreg, fsr2l, fsr2h, status,2, status,0
  3506 ;; Tracked objects:
  3507 ;;		On entry : 0/0
  3508 ;;		On exit  : 0/0
  3509 ;;		Unchanged: 0/0
  3510 ;; Data sizes:     COMRAM   BANK0   BANK1   BANK2   BANK3   BANK4   BANK5
  3511 ;;      Params:        16       0       0       0       0       0       0
  3512 ;;      Locals:        10       0       0       0       0       0       0
  3513 ;;      Temps:          0       0       0       0       0       0       0
  3514 ;;      Totals:        26       0       0       0       0       0       0
  3515 ;;Total ram usage:       26 bytes
  3516 ;; Hardware stack levels used: 1
  3517 ;; This function calls:
  3518 ;;		Nothing
  3519 ;; This function is called by:
  3520 ;;		_dtoa
  3521 ;; This function uses a non-reentrant model
  3522 ;;
  3523                           
  3524                           	psect	text12
  3525  00740E                     __ptext12:
  3526                           	callstack 0
  3527  00740E                     ___aodiv:
  3528                           	callstack 26
  3529  00740E  0E00               	movlw	0
  3530  007410  6E12               	movwf	___aodiv@sign^0,c
  3531  007412  BE10               	btfsc	(___aodiv@divisor+7)^0,7,c
  3532  007414  EF10  F03A         	goto	u870
  3533  007418  EF0E  F03A         	goto	u871
  3534  00741C                     u871:
  3535  00741C  EF22  F03A         	goto	l1431
  3536  007420                     u870:
  3537  007420  1E10               	comf	(___aodiv@divisor+7)^0,f,c
  3538  007422  1E0F               	comf	(___aodiv@divisor+6)^0,f,c
  3539  007424  1E0E               	comf	(___aodiv@divisor+5)^0,f,c
  3540  007426  1E0D               	comf	(___aodiv@divisor+4)^0,f,c
  3541  007428  1E0C               	comf	(___aodiv@divisor+3)^0,f,c
  3542  00742A  1E0B               	comf	(___aodiv@divisor+2)^0,f,c
  3543  00742C  1E0A               	comf	(___aodiv@divisor+1)^0,f,c
  3544  00742E  6C09               	negf	___aodiv@divisor^0,c
  3545  007430  0E00               	movlw	0
  3546  007432  220A               	addwfc	(___aodiv@divisor+1)^0,f,c
  3547  007434  220B               	addwfc	(___aodiv@divisor+2)^0,f,c
  3548  007436  220C               	addwfc	(___aodiv@divisor+3)^0,f,c
  3549  007438  220D               	addwfc	(___aodiv@divisor+4)^0,f,c
  3550  00743A  220E               	addwfc	(___aodiv@divisor+5)^0,f,c
  3551  00743C  220F               	addwfc	(___aodiv@divisor+6)^0,f,c
  3552  00743E  2210               	addwfc	(___aodiv@divisor+7)^0,f,c
  3553  007440  0E01               	movlw	1
  3554  007442  6E12               	movwf	___aodiv@sign^0,c
  3555  007444                     l1431:
  3556  007444  BE08               	btfsc	(___aodiv@dividend+7)^0,7,c
  3557  007446  EF29  F03A         	goto	u880
  3558  00744A  EF27  F03A         	goto	u881
  3559  00744E                     u881:
  3560  00744E  EF3B  F03A         	goto	l1437
  3561  007452                     u880:
  3562  007452  1E08               	comf	(___aodiv@dividend+7)^0,f,c
  3563  007454  1E07               	comf	(___aodiv@dividend+6)^0,f,c
  3564  007456  1E06               	comf	(___aodiv@dividend+5)^0,f,c
  3565  007458  1E05               	comf	(___aodiv@dividend+4)^0,f,c
  3566  00745A  1E04               	comf	(___aodiv@dividend+3)^0,f,c
  3567  00745C  1E03               	comf	(___aodiv@dividend+2)^0,f,c
  3568  00745E  1E02               	comf	(___aodiv@dividend+1)^0,f,c
  3569  007460  6C01               	negf	___aodiv@dividend^0,c
  3570  007462  0E00               	movlw	0
  3571  007464  2202               	addwfc	(___aodiv@dividend+1)^0,f,c
  3572  007466  2203               	addwfc	(___aodiv@dividend+2)^0,f,c
  3573  007468  2204               	addwfc	(___aodiv@dividend+3)^0,f,c
  3574  00746A  2205               	addwfc	(___aodiv@dividend+4)^0,f,c
  3575  00746C  2206               	addwfc	(___aodiv@dividend+5)^0,f,c
  3576  00746E  2207               	addwfc	(___aodiv@dividend+6)^0,f,c
  3577  007470  2208               	addwfc	(___aodiv@dividend+7)^0,f,c
  3578  007472  0E01               	movlw	1
  3579  007474  1A12               	xorwf	___aodiv@sign^0,f,c
  3580  007476                     l1437:
  3581  007476  EE20  F013         	lfsr	2,___aodiv@quotient
  3582  00747A  0E07               	movlw	7
  3583  00747C                     u891:
  3584  00747C  6ADE               	clrf	postinc2,c
  3585  00747E  06E8               	decf	wreg,f,c
  3586  007480  E2FD               	bc	u891
  3587  007482  5009               	movf	___aodiv@divisor^0,w,c
  3588  007484  100A               	iorwf	(___aodiv@divisor+1)^0,w,c
  3589  007486  100B               	iorwf	(___aodiv@divisor+2)^0,w,c
  3590  007488  100C               	iorwf	(___aodiv@divisor+3)^0,w,c
  3591  00748A  100D               	iorwf	(___aodiv@divisor+4)^0,w,c
  3592  00748C  100E               	iorwf	(___aodiv@divisor+5)^0,w,c
  3593  00748E  100F               	iorwf	(___aodiv@divisor+6)^0,w,c
  3594  007490  1010               	iorwf	(___aodiv@divisor+7)^0,w,c
  3595  007492  B4D8               	btfsc	status,2,c
  3596  007494  EF4E  F03A         	goto	u901
  3597  007498  EF50  F03A         	goto	u900
  3598  00749C                     u901:
  3599  00749C  EFA2  F03A         	goto	l1459
  3600  0074A0                     u900:
  3601  0074A0  0E01               	movlw	1
  3602  0074A2  6E11               	movwf	___aodiv@counter^0,c
  3603  0074A4  EF5E  F03A         	goto	l1445
  3604  0074A8                     l1443:
  3605  0074A8  90D8               	bcf	status,0,c
  3606  0074AA  3609               	rlcf	___aodiv@divisor^0,f,c
  3607  0074AC  360A               	rlcf	(___aodiv@divisor+1)^0,f,c
  3608  0074AE  360B               	rlcf	(___aodiv@divisor+2)^0,f,c
  3609  0074B0  360C               	rlcf	(___aodiv@divisor+3)^0,f,c
  3610  0074B2  360D               	rlcf	(___aodiv@divisor+4)^0,f,c
  3611  0074B4  360E               	rlcf	(___aodiv@divisor+5)^0,f,c
  3612  0074B6  360F               	rlcf	(___aodiv@divisor+6)^0,f,c
  3613  0074B8  3610               	rlcf	(___aodiv@divisor+7)^0,f,c
  3614  0074BA  2A11               	incf	___aodiv@counter^0,f,c
  3615  0074BC                     l1445:
  3616  0074BC  AE10               	btfss	(___aodiv@divisor+7)^0,7,c
  3617  0074BE  EF63  F03A         	goto	u911
  3618  0074C2  EF65  F03A         	goto	u910
  3619  0074C6                     u911:
  3620  0074C6  EF54  F03A         	goto	l1443
  3621  0074CA                     u910:
  3622  0074CA                     l1447:
  3623  0074CA  90D8               	bcf	status,0,c
  3624  0074CC  3613               	rlcf	___aodiv@quotient^0,f,c
  3625  0074CE  3614               	rlcf	(___aodiv@quotient+1)^0,f,c
  3626  0074D0  3615               	rlcf	(___aodiv@quotient+2)^0,f,c
  3627  0074D2  3616               	rlcf	(___aodiv@quotient+3)^0,f,c
  3628  0074D4  3617               	rlcf	(___aodiv@quotient+4)^0,f,c
  3629  0074D6  3618               	rlcf	(___aodiv@quotient+5)^0,f,c
  3630  0074D8  3619               	rlcf	(___aodiv@quotient+6)^0,f,c
  3631  0074DA  361A               	rlcf	(___aodiv@quotient+7)^0,f,c
  3632  0074DC  5009               	movf	___aodiv@divisor^0,w,c
  3633  0074DE  5C01               	subwf	___aodiv@dividend^0,w,c
  3634  0074E0  500A               	movf	(___aodiv@divisor+1)^0,w,c
  3635  0074E2  5802               	subwfb	(___aodiv@dividend+1)^0,w,c
  3636  0074E4  500B               	movf	(___aodiv@divisor+2)^0,w,c
  3637  0074E6  5803               	subwfb	(___aodiv@dividend+2)^0,w,c
  3638  0074E8  500C               	movf	(___aodiv@divisor+3)^0,w,c
  3639  0074EA  5804               	subwfb	(___aodiv@dividend+3)^0,w,c
  3640  0074EC  500D               	movf	(___aodiv@divisor+4)^0,w,c
  3641  0074EE  5805               	subwfb	(___aodiv@dividend+4)^0,w,c
  3642  0074F0  500E               	movf	(___aodiv@divisor+5)^0,w,c
  3643  0074F2  5806               	subwfb	(___aodiv@dividend+5)^0,w,c
  3644  0074F4  500F               	movf	(___aodiv@divisor+6)^0,w,c
  3645  0074F6  5807               	subwfb	(___aodiv@dividend+6)^0,w,c
  3646  0074F8  5010               	movf	(___aodiv@divisor+7)^0,w,c
  3647  0074FA  5808               	subwfb	(___aodiv@dividend+7)^0,w,c
  3648  0074FC  A0D8               	btfss	status,0,c
  3649  0074FE  EF83  F03A         	goto	u921
  3650  007502  EF85  F03A         	goto	u920
  3651  007506                     u921:
  3652  007506  EF96  F03A         	goto	l1455
  3653  00750A                     u920:
  3654  00750A  5009               	movf	___aodiv@divisor^0,w,c
  3655  00750C  5E01               	subwf	___aodiv@dividend^0,f,c
  3656  00750E  500A               	movf	(___aodiv@divisor+1)^0,w,c
  3657  007510  5A02               	subwfb	(___aodiv@dividend+1)^0,f,c
  3658  007512  500B               	movf	(___aodiv@divisor+2)^0,w,c
  3659  007514  5A03               	subwfb	(___aodiv@dividend+2)^0,f,c
  3660  007516  500C               	movf	(___aodiv@divisor+3)^0,w,c
  3661  007518  5A04               	subwfb	(___aodiv@dividend+3)^0,f,c
  3662  00751A  500D               	movf	(___aodiv@divisor+4)^0,w,c
  3663  00751C  5A05               	subwfb	(___aodiv@dividend+4)^0,f,c
  3664  00751E  500E               	movf	(___aodiv@divisor+5)^0,w,c
  3665  007520  5A06               	subwfb	(___aodiv@dividend+5)^0,f,c
  3666  007522  500F               	movf	(___aodiv@divisor+6)^0,w,c
  3667  007524  5A07               	subwfb	(___aodiv@dividend+6)^0,f,c
  3668  007526  5010               	movf	(___aodiv@divisor+7)^0,w,c
  3669  007528  5A08               	subwfb	(___aodiv@dividend+7)^0,f,c
  3670  00752A  8013               	bsf	___aodiv@quotient^0,0,c
  3671  00752C                     l1455:
  3672  00752C  90D8               	bcf	status,0,c
  3673  00752E  3210               	rrcf	(___aodiv@divisor+7)^0,f,c
  3674  007530  320F               	rrcf	(___aodiv@divisor+6)^0,f,c
  3675  007532  320E               	rrcf	(___aodiv@divisor+5)^0,f,c
  3676  007534  320D               	rrcf	(___aodiv@divisor+4)^0,f,c
  3677  007536  320C               	rrcf	(___aodiv@divisor+3)^0,f,c
  3678  007538  320B               	rrcf	(___aodiv@divisor+2)^0,f,c
  3679  00753A  320A               	rrcf	(___aodiv@divisor+1)^0,f,c
  3680  00753C  3209               	rrcf	___aodiv@divisor^0,f,c
  3681  00753E  2E11               	decfsz	___aodiv@counter^0,f,c
  3682  007540  EF65  F03A         	goto	l1447
  3683  007544                     l1459:
  3684  007544  5012               	movf	___aodiv@sign^0,w,c
  3685  007546  B4D8               	btfsc	status,2,c
  3686  007548  EFA8  F03A         	goto	u931
  3687  00754C  EFAA  F03A         	goto	u930
  3688  007550                     u931:
  3689  007550  EFBA  F03A         	goto	l1463
  3690  007554                     u930:
  3691  007554  1E1A               	comf	(___aodiv@quotient+7)^0,f,c
  3692  007556  1E19               	comf	(___aodiv@quotient+6)^0,f,c
  3693  007558  1E18               	comf	(___aodiv@quotient+5)^0,f,c
  3694  00755A  1E17               	comf	(___aodiv@quotient+4)^0,f,c
  3695  00755C  1E16               	comf	(___aodiv@quotient+3)^0,f,c
  3696  00755E  1E15               	comf	(___aodiv@quotient+2)^0,f,c
  3697  007560  1E14               	comf	(___aodiv@quotient+1)^0,f,c
  3698  007562  6C13               	negf	___aodiv@quotient^0,c
  3699  007564  0E00               	movlw	0
  3700  007566  2214               	addwfc	(___aodiv@quotient+1)^0,f,c
  3701  007568  2215               	addwfc	(___aodiv@quotient+2)^0,f,c
  3702  00756A  2216               	addwfc	(___aodiv@quotient+3)^0,f,c
  3703  00756C  2217               	addwfc	(___aodiv@quotient+4)^0,f,c
  3704  00756E  2218               	addwfc	(___aodiv@quotient+5)^0,f,c
  3705  007570  2219               	addwfc	(___aodiv@quotient+6)^0,f,c
  3706  007572  221A               	addwfc	(___aodiv@quotient+7)^0,f,c
  3707  007574                     l1463:
  3708  007574  C013  F001         	movff	___aodiv@quotient,?___aodiv
  3709  007578  C014  F002         	movff	___aodiv@quotient+1,?___aodiv+1
  3710  00757C  C015  F003         	movff	___aodiv@quotient+2,?___aodiv+2
  3711  007580  C016  F004         	movff	___aodiv@quotient+3,?___aodiv+3
  3712  007584  C017  F005         	movff	___aodiv@quotient+4,?___aodiv+4
  3713  007588  C018  F006         	movff	___aodiv@quotient+5,?___aodiv+5
  3714  00758C  C019  F007         	movff	___aodiv@quotient+6,?___aodiv+6
  3715  007590  C01A  F008         	movff	___aodiv@quotient+7,?___aodiv+7
  3716  007594  0012               	return		;funcret
  3717  007596                     __end_of___aodiv:
  3718                           	callstack 0
  3719                           
  3720 ;; *************** function _MCU_Initialize *****************
  3721 ;; Defined at:
  3722 ;;		line 82 in file "main.c"
  3723 ;; Parameters:    Size  Location     Type
  3724 ;;		None
  3725 ;; Auto vars:     Size  Location     Type
  3726 ;;		None
  3727 ;; Return value:  Size  Location     Type
  3728 ;;                  1    wreg      void 
  3729 ;; Registers used:
  3730 ;;		wreg, status,2
  3731 ;; Tracked objects:
  3732 ;;		On entry : 0/0
  3733 ;;		On exit  : 0/0
  3734 ;;		Unchanged: 0/0
  3735 ;; Data sizes:     COMRAM   BANK0   BANK1   BANK2   BANK3   BANK4   BANK5
  3736 ;;      Params:         0       0       0       0       0       0       0
  3737 ;;      Locals:         0       0       0       0       0       0       0
  3738 ;;      Temps:          0       0       0       0       0       0       0
  3739 ;;      Totals:         0       0       0       0       0       0       0
  3740 ;;Total ram usage:        0 bytes
  3741 ;; Hardware stack levels used: 1
  3742 ;; This function calls:
  3743 ;;		Nothing
  3744 ;; This function is called by:
  3745 ;;		_main
  3746 ;; This function uses a non-reentrant model
  3747 ;;
  3748                           
  3749                           	psect	text13
  3750  006960                     __ptext13:
  3751                           	callstack 0
  3752  006960                     _MCU_Initialize:
  3753                           	callstack 30
  3754  006960                     
  3755                           ;main.c: 83:     ANSELA = 0x00;
  3756  006960  0E00               	movlw	0
  3757  006962  010F               	movlb	15	; () banked
  3758  006964  6F38               	movwf	56,b	;volatile
  3759                           
  3760                           ;main.c: 84:     ANSELB = 0x00;
  3761  006966  0E00               	movlw	0
  3762  006968  6F39               	movwf	57,b	;volatile
  3763                           
  3764                           ;main.c: 85:     ANSELC = 0x00;
  3765  00696A  0E00               	movlw	0
  3766  00696C  6F3A               	movwf	58,b	;volatile
  3767                           
  3768                           ;main.c: 86:     OSCCONbits.IRCF = 0b110;
  3769  00696E  50D3               	movf	211,w,c	;volatile
  3770  006970  0B8F               	andlw	-113
  3771  006972  0960               	iorlw	96
  3772  006974  6ED3               	movwf	211,c	;volatile
  3773                           
  3774                           ;main.c: 87:     TRISB = 0x00;
  3775  006976  0E00               	movlw	0
  3776  006978  6E93               	movwf	147,c	;volatile
  3777  00697A                     
  3778                           ; BSR set to: 15
  3779  00697A  0012               	return		;funcret
  3780  00697C                     __end_of_MCU_Initialize:
  3781                           	callstack 0
  3782                           
  3783 ;; *************** function _LCDNokia5110_putStr *****************
  3784 ;; Defined at:
  3785 ;;		line 161 in file "LCDNokia5110.c"
  3786 ;; Parameters:    Size  Location     Type
  3787 ;;  dataStr         2   17[COMRAM] PTR unsigned char 
  3788 ;;		 -> STR_7(5), counterStr(20), STR_5(8), STR_4(13), 
  3789 ;;		 -> STR_3(12), STR_2(11), STR_1(13), 
  3790 ;;  x               1   19[COMRAM] unsigned char 
  3791 ;;  y               1   20[COMRAM] unsigned char 
  3792 ;; Auto vars:     Size  Location     Type
  3793 ;;		None
  3794 ;; Return value:  Size  Location     Type
  3795 ;;                  1    wreg      void 
  3796 ;; Registers used:
  3797 ;;		wreg, fsr0l, fsr0h, fsr2l, fsr2h, status,2, status,0, tblptrl, tblptrh, tblptru, prodl, prodh, cstack
  3798 ;; Tracked objects:
  3799 ;;		On entry : 0/0
  3800 ;;		On exit  : 0/0
  3801 ;;		Unchanged: 0/0
  3802 ;; Data sizes:     COMRAM   BANK0   BANK1   BANK2   BANK3   BANK4   BANK5
  3803 ;;      Params:         4       0       0       0       0       0       0
  3804 ;;      Locals:         0       0       0       0       0       0       0
  3805 ;;      Temps:          0       0       0       0       0       0       0
  3806 ;;      Totals:         4       0       0       0       0       0       0
  3807 ;;Total ram usage:        4 bytes
  3808 ;; Hardware stack levels used: 1
  3809 ;; Hardware stack levels required when called: 3
  3810 ;; This function calls:
  3811 ;;		_LCDNokia5110_GotoXY
  3812 ;;		_LCDNokia5110_putC
  3813 ;; This function is called by:
  3814 ;;		_main
  3815 ;; This function uses a non-reentrant model
  3816 ;;
  3817                           
  3818                           	psect	text14
  3819  006BD0                     __ptext14:
  3820                           	callstack 0
  3821  006BD0                     _LCDNokia5110_putStr:
  3822                           	callstack 27
  3823  006BD0                     
  3824                           ;LCDNokia5110.c: 162:     LCDNokia5110_GotoXY(x, y);
  3825  006BD0  C015  F00B         	movff	LCDNokia5110_putStr@y,LCDNokia5110_GotoXY@y
  3826  006BD4  5014               	movf	LCDNokia5110_putStr@x^0,w,c
  3827  006BD6  ECA2  F034         	call	_LCDNokia5110_GotoXY
  3828                           
  3829                           ;LCDNokia5110.c: 163:     while(*dataStr)
  3830  006BDA  EF03  F036         	goto	l1803
  3831  006BDE                     l1799:
  3832                           
  3833                           ;LCDNokia5110.c: 164:         LCDNokia5110_putC(*dataStr++);
  3834  006BDE  C012  FFF6         	movff	LCDNokia5110_putStr@dataStr,tblptrl
  3835  006BE2  C013  FFF7         	movff	LCDNokia5110_putStr@dataStr+1,tblptrh
  3836  006BE6  6AF8               	clrf	tblptru,c
  3837  006BE8  0E05               	movlw	(high __ramtop+-1)
  3838  006BEA  64F7               	cpfsgt	tblptrh,c
  3839  006BEC  D003               	bra	u1547
  3840  006BEE  0008               	tblrd		*
  3841  006BF0  50F5               	movf	tablat,w,c
  3842  006BF2  D005               	bra	u1540
  3843  006BF4                     u1547:
  3844  006BF4  CFF6 FFE9          	movff	tblptrl,fsr0l
  3845  006BF8  CFF7 FFEA          	movff	tblptrh,fsr0h
  3846  006BFC  50EF               	movf	indf0,w,c
  3847  006BFE                     u1540:
  3848  006BFE  EC1C  F036         	call	_LCDNokia5110_putC
  3849  006C02  4A12               	infsnz	LCDNokia5110_putStr@dataStr^0,f,c
  3850  006C04  2A13               	incf	(LCDNokia5110_putStr@dataStr+1)^0,f,c
  3851  006C06                     l1803:
  3852                           
  3853                           ;LCDNokia5110.c: 163:     while(*dataStr)
  3854  006C06  C012  FFF6         	movff	LCDNokia5110_putStr@dataStr,tblptrl
  3855  006C0A  C013  FFF7         	movff	LCDNokia5110_putStr@dataStr+1,tblptrh
  3856  006C0E  6AF8               	clrf	tblptru,c
  3857  006C10  0E05               	movlw	(high __ramtop+-1)
  3858  006C12  64F7               	cpfsgt	tblptrh,c
  3859  006C14  D003               	bra	u1557
  3860  006C16  0008               	tblrd		*
  3861  006C18  50F5               	movf	tablat,w,c
  3862  006C1A  D005               	bra	u1550
  3863  006C1C                     u1557:
  3864  006C1C  CFF6 FFE9          	movff	tblptrl,fsr0l
  3865  006C20  CFF7 FFEA          	movff	tblptrh,fsr0h
  3866  006C24  50EF               	movf	indf0,w,c
  3867  006C26                     u1550:
  3868  006C26  0900               	iorlw	0
  3869  006C28  A4D8               	btfss	status,2,c
  3870  006C2A  EF19  F036         	goto	u1561
  3871  006C2E  EF1B  F036         	goto	u1560
  3872  006C32                     u1561:
  3873  006C32  EFEF  F035         	goto	l1799
  3874  006C36                     u1560:
  3875  006C36  0012               	return		;funcret
  3876  006C38                     __end_of_LCDNokia5110_putStr:
  3877                           	callstack 0
  3878                           
  3879 ;; *************** function _LCDNokia5110_putC *****************
  3880 ;; Defined at:
  3881 ;;		line 145 in file "LCDNokia5110.c"
  3882 ;; Parameters:    Size  Location     Type
  3883 ;;  data            1    wreg     unsigned char 
  3884 ;; Auto vars:     Size  Location     Type
  3885 ;;  data            1   14[COMRAM] unsigned char 
  3886 ;;  index           2   15[COMRAM] int 
  3887 ;; Return value:  Size  Location     Type
  3888 ;;                  1    wreg      void 
  3889 ;; Registers used:
  3890 ;;		wreg, fsr2l, fsr2h, status,2, status,0, tblptrl, tblptrh, tblptru, prodl, prodh, cstack
  3891 ;; Tracked objects:
  3892 ;;		On entry : 0/0
  3893 ;;		On exit  : 0/0
  3894 ;;		Unchanged: 0/0
  3895 ;; Data sizes:     COMRAM   BANK0   BANK1   BANK2   BANK3   BANK4   BANK5
  3896 ;;      Params:         0       0       0       0       0       0       0
  3897 ;;      Locals:         3       0       0       0       0       0       0
  3898 ;;      Temps:          4       0       0       0       0       0       0
  3899 ;;      Totals:         7       0       0       0       0       0       0
  3900 ;;Total ram usage:        7 bytes
  3901 ;; Hardware stack levels used: 1
  3902 ;; Hardware stack levels required when called: 2
  3903 ;; This function calls:
  3904 ;;		_LCDNokia5110_Write
  3905 ;; This function is called by:
  3906 ;;		_LCDNokia5110_putStr
  3907 ;; This function uses a non-reentrant model
  3908 ;;
  3909                           
  3910                           	psect	text15
  3911  006C38                     __ptext15:
  3912                           	callstack 0
  3913  006C38                     _LCDNokia5110_putC:
  3914                           	callstack 27
  3915                           
  3916                           ;incstack = 0
  3917                           ;LCDNokia5110_putC@data stored from wreg
  3918  006C38  6E0F               	movwf	LCDNokia5110_putC@data^0,c
  3919  006C3A                     
  3920                           ;LCDNokia5110.c: 146:     LCDNokia5110_Write(1, 0x00);
  3921  006C3A  0E00               	movlw	0
  3922  006C3C  6E06               	movwf	LCDNokia5110_Write@data^0,c
  3923  006C3E  0E01               	movlw	1
  3924  006C40  ECA7  F036         	call	_LCDNokia5110_Write
  3925  006C44                     
  3926                           ;LCDNokia5110.c: 147:     for (int index = 0; index < 5; index++)
  3927  006C44  0E00               	movlw	0
  3928  006C46  6E11               	movwf	(LCDNokia5110_putC@index+1)^0,c
  3929  006C48  0E00               	movlw	0
  3930  006C4A  6E10               	movwf	LCDNokia5110_putC@index^0,c
  3931  006C4C                     l1673:
  3932                           
  3933                           ;LCDNokia5110.c: 148:         LCDNokia5110_Write(1, FONT_NORMAL[data - 0x20][index]);
  3934  006C4C  0E60               	movlw	96
  3935  006C4E  6E0B               	movwf	??_LCDNokia5110_putC^0,c
  3936  006C50  0EFF               	movlw	255
  3937  006C52  6E0C               	movwf	(??_LCDNokia5110_putC+1)^0,c
  3938  006C54  500F               	movf	LCDNokia5110_putC@data^0,w,c
  3939  006C56  0D05               	mullw	5
  3940  006C58  0EBD               	movlw	low _FONT_NORMAL
  3941  006C5A  6E0D               	movwf	(??_LCDNokia5110_putC+2)^0,c
  3942  006C5C  0E7D               	movlw	high _FONT_NORMAL
  3943  006C5E  6E0E               	movwf	(??_LCDNokia5110_putC+3)^0,c
  3944  006C60  50F3               	movf	243,w,c
  3945  006C62  260D               	addwf	(??_LCDNokia5110_putC+2)^0,f,c
  3946  006C64  50F4               	movf	244,w,c
  3947  006C66  220E               	addwfc	(??_LCDNokia5110_putC+3)^0,f,c
  3948  006C68  5010               	movf	LCDNokia5110_putC@index^0,w,c
  3949  006C6A  260D               	addwf	(??_LCDNokia5110_putC+2)^0,f,c
  3950  006C6C  5011               	movf	(LCDNokia5110_putC@index+1)^0,w,c
  3951  006C6E  220E               	addwfc	(??_LCDNokia5110_putC+3)^0,f,c
  3952  006C70  500B               	movf	??_LCDNokia5110_putC^0,w,c
  3953  006C72  260D               	addwf	(??_LCDNokia5110_putC+2)^0,f,c
  3954  006C74  500C               	movf	(??_LCDNokia5110_putC+1)^0,w,c
  3955  006C76  220E               	addwfc	(??_LCDNokia5110_putC+3)^0,f,c
  3956  006C78  C00D  FFF6         	movff	??_LCDNokia5110_putC+2,tblptrl
  3957  006C7C  C00E  FFF7         	movff	??_LCDNokia5110_putC+3,tblptrh
  3958  006C80                     	if	0	;tblptru may be non-zero
  3959  006C80                     	endif
  3960  006C80                     	if	0	;tblptru may be non-zero
  3961  006C80                     	endif
  3962  006C80  0008               	tblrd		*
  3963  006C82  CFF5 F006          	movff	tablat,LCDNokia5110_Write@data
  3964  006C86  0E01               	movlw	1
  3965  006C88  ECA7  F036         	call	_LCDNokia5110_Write
  3966  006C8C  4A10               	infsnz	LCDNokia5110_putC@index^0,f,c
  3967  006C8E  2A11               	incf	(LCDNokia5110_putC@index+1)^0,f,c
  3968  006C90  BE11               	btfsc	(LCDNokia5110_putC@index+1)^0,7,c
  3969  006C92  EF54  F036         	goto	u1351
  3970  006C96  5011               	movf	(LCDNokia5110_putC@index+1)^0,w,c
  3971  006C98  E109               	bnz	u1350
  3972  006C9A  0E05               	movlw	5
  3973  006C9C  5C10               	subwf	LCDNokia5110_putC@index^0,w,c
  3974  006C9E  A0D8               	btfss	status,0,c
  3975  006CA0  EF54  F036         	goto	u1351
  3976  006CA4  EF56  F036         	goto	u1350
  3977  006CA8                     u1351:
  3978  006CA8  EF26  F036         	goto	l1673
  3979  006CAC                     u1350:
  3980  006CAC                     
  3981                           ;LCDNokia5110.c: 150:     LCDNokia5110_Write(1, 0x00);
  3982  006CAC  0E00               	movlw	0
  3983  006CAE  6E06               	movwf	LCDNokia5110_Write@data^0,c
  3984  006CB0  0E01               	movlw	1
  3985  006CB2  ECA7  F036         	call	_LCDNokia5110_Write
  3986  006CB6  0012               	return		;funcret
  3987  006CB8                     __end_of_LCDNokia5110_putC:
  3988                           	callstack 0
  3989                           
  3990 ;; *************** function _LCDNokia5110_Initialize *****************
  3991 ;; Defined at:
  3992 ;;		line 39 in file "LCDNokia5110.c"
  3993 ;; Parameters:    Size  Location     Type
  3994 ;;  lcd             9   10[COMRAM] struct .
  3995 ;; Auto vars:     Size  Location     Type
  3996 ;;		None
  3997 ;; Return value:  Size  Location     Type
  3998 ;;                  1    wreg      void 
  3999 ;; Registers used:
  4000 ;;		wreg, fsr1l, fsr1h, fsr2l, fsr2h, status,2, status,0, cstack
  4001 ;; Tracked objects:
  4002 ;;		On entry : 0/0
  4003 ;;		On exit  : 0/0
  4004 ;;		Unchanged: 0/0
  4005 ;; Data sizes:     COMRAM   BANK0   BANK1   BANK2   BANK3   BANK4   BANK5
  4006 ;;      Params:         9       0       0       0       0       0       0
  4007 ;;      Locals:         0       0       0       0       0       0       0
  4008 ;;      Temps:          3       0       0       0       0       0       0
  4009 ;;      Totals:        12       0       0       0       0       0       0
  4010 ;;Total ram usage:       12 bytes
  4011 ;; Hardware stack levels used: 1
  4012 ;; Hardware stack levels required when called: 2
  4013 ;; This function calls:
  4014 ;;		_LCDNokia5110_Write
  4015 ;; This function is called by:
  4016 ;;		_main
  4017 ;; This function uses a non-reentrant model
  4018 ;;
  4019                           
  4020                           	psect	text16
  4021  007596                     __ptext16:
  4022                           	callstack 0
  4023  007596                     _LCDNokia5110_Initialize:
  4024                           	callstack 28
  4025  007596                     
  4026                           ;LCDNokia5110.c: 40:     Nokia5110 = lcd;
  4027  007596  EE20  F00B         	lfsr	2,LCDNokia5110_Initialize@lcd
  4028  00759A  EE10  F060         	lfsr	1,_Nokia5110
  4029  00759E  0E08               	movlw	8
  4030  0075A0                     u1431:
  4031  0075A0  CFDB FFE3          	movff	plusw2,plusw1
  4032  0075A4  06E8               	decf	wreg,f,c
  4033  0075A6  E2FC               	bc	u1431
  4034  0075A8                     
  4035                           ;LCDNokia5110.c: 42:     (*(Nokia5110.TRIS) &= ~(1 << (Nokia5110.RST)));
  4036  0075A8  C064  F014         	movff	_Nokia5110+4,??_LCDNokia5110_Initialize
  4037  0075AC  0E01               	movlw	1
  4038  0075AE  6E15               	movwf	(??_LCDNokia5110_Initialize+1)^0,c
  4039  0075B0  2A14               	incf	??_LCDNokia5110_Initialize^0,f,c
  4040  0075B2  EFDD  F03A         	goto	u1444
  4041  0075B6                     u1445:
  4042  0075B6  90D8               	bcf	status,0,c
  4043  0075B8  3615               	rlcf	(??_LCDNokia5110_Initialize+1)^0,f,c
  4044  0075BA                     u1444:
  4045  0075BA  2E14               	decfsz	??_LCDNokia5110_Initialize^0,f,c
  4046  0075BC  EFDB  F03A         	goto	u1445
  4047  0075C0  5015               	movf	(??_LCDNokia5110_Initialize+1)^0,w,c
  4048  0075C2  0AFF               	xorlw	255
  4049  0075C4  6E16               	movwf	(??_LCDNokia5110_Initialize+2)^0,c
  4050  0075C6  C060  FFD9         	movff	_Nokia5110,fsr2l
  4051  0075CA  C061  FFDA         	movff	_Nokia5110+1,fsr2h
  4052  0075CE  5016               	movf	(??_LCDNokia5110_Initialize+2)^0,w,c
  4053  0075D0  16DF               	andwf	indf2,f,c
  4054  0075D2                     
  4055                           ;LCDNokia5110.c: 43:     (*(Nokia5110.TRIS) &= ~(1 << (Nokia5110.CE)));
  4056  0075D2  C065  F014         	movff	_Nokia5110+5,??_LCDNokia5110_Initialize
  4057  0075D6  0E01               	movlw	1
  4058  0075D8  6E15               	movwf	(??_LCDNokia5110_Initialize+1)^0,c
  4059  0075DA  2A14               	incf	??_LCDNokia5110_Initialize^0,f,c
  4060  0075DC  EFF2  F03A         	goto	u1454
  4061  0075E0                     u1455:
  4062  0075E0  90D8               	bcf	status,0,c
  4063  0075E2  3615               	rlcf	(??_LCDNokia5110_Initialize+1)^0,f,c
  4064  0075E4                     u1454:
  4065  0075E4  2E14               	decfsz	??_LCDNokia5110_Initialize^0,f,c
  4066  0075E6  EFF0  F03A         	goto	u1455
  4067  0075EA  5015               	movf	(??_LCDNokia5110_Initialize+1)^0,w,c
  4068  0075EC  0AFF               	xorlw	255
  4069  0075EE  6E16               	movwf	(??_LCDNokia5110_Initialize+2)^0,c
  4070  0075F0  C060  FFD9         	movff	_Nokia5110,fsr2l
  4071  0075F4  C061  FFDA         	movff	_Nokia5110+1,fsr2h
  4072  0075F8  5016               	movf	(??_LCDNokia5110_Initialize+2)^0,w,c
  4073  0075FA  16DF               	andwf	indf2,f,c
  4074  0075FC                     
  4075                           ;LCDNokia5110.c: 44:     (*(Nokia5110.TRIS) &= ~(1 << (Nokia5110.DC)));
  4076  0075FC  C066  F014         	movff	_Nokia5110+6,??_LCDNokia5110_Initialize
  4077  007600  0E01               	movlw	1
  4078  007602  6E15               	movwf	(??_LCDNokia5110_Initialize+1)^0,c
  4079  007604  2A14               	incf	??_LCDNokia5110_Initialize^0,f,c
  4080  007606  EF07  F03B         	goto	u1464
  4081  00760A                     u1465:
  4082  00760A  90D8               	bcf	status,0,c
  4083  00760C  3615               	rlcf	(??_LCDNokia5110_Initialize+1)^0,f,c
  4084  00760E                     u1464:
  4085  00760E  2E14               	decfsz	??_LCDNokia5110_Initialize^0,f,c
  4086  007610  EF05  F03B         	goto	u1465
  4087  007614  5015               	movf	(??_LCDNokia5110_Initialize+1)^0,w,c
  4088  007616  0AFF               	xorlw	255
  4089  007618  6E16               	movwf	(??_LCDNokia5110_Initialize+2)^0,c
  4090  00761A  C060  FFD9         	movff	_Nokia5110,fsr2l
  4091  00761E  C061  FFDA         	movff	_Nokia5110+1,fsr2h
  4092  007622  5016               	movf	(??_LCDNokia5110_Initialize+2)^0,w,c
  4093  007624  16DF               	andwf	indf2,f,c
  4094  007626                     
  4095                           ;LCDNokia5110.c: 45:     (*(Nokia5110.TRIS) &= ~(1 << (Nokia5110.DIN)));
  4096  007626  C067  F014         	movff	_Nokia5110+7,??_LCDNokia5110_Initialize
  4097  00762A  0E01               	movlw	1
  4098  00762C  6E15               	movwf	(??_LCDNokia5110_Initialize+1)^0,c
  4099  00762E  2A14               	incf	??_LCDNokia5110_Initialize^0,f,c
  4100  007630  EF1C  F03B         	goto	u1474
  4101  007634                     u1475:
  4102  007634  90D8               	bcf	status,0,c
  4103  007636  3615               	rlcf	(??_LCDNokia5110_Initialize+1)^0,f,c
  4104  007638                     u1474:
  4105  007638  2E14               	decfsz	??_LCDNokia5110_Initialize^0,f,c
  4106  00763A  EF1A  F03B         	goto	u1475
  4107  00763E  5015               	movf	(??_LCDNokia5110_Initialize+1)^0,w,c
  4108  007640  0AFF               	xorlw	255
  4109  007642  6E16               	movwf	(??_LCDNokia5110_Initialize+2)^0,c
  4110  007644  C060  FFD9         	movff	_Nokia5110,fsr2l
  4111  007648  C061  FFDA         	movff	_Nokia5110+1,fsr2h
  4112  00764C  5016               	movf	(??_LCDNokia5110_Initialize+2)^0,w,c
  4113  00764E  16DF               	andwf	indf2,f,c
  4114  007650                     
  4115                           ;LCDNokia5110.c: 46:     (*(Nokia5110.TRIS) &= ~(1 << (Nokia5110.CLK)));
  4116  007650  C068  F014         	movff	_Nokia5110+8,??_LCDNokia5110_Initialize
  4117  007654  0E01               	movlw	1
  4118  007656  6E15               	movwf	(??_LCDNokia5110_Initialize+1)^0,c
  4119  007658  2A14               	incf	??_LCDNokia5110_Initialize^0,f,c
  4120  00765A  EF31  F03B         	goto	u1484
  4121  00765E                     u1485:
  4122  00765E  90D8               	bcf	status,0,c
  4123  007660  3615               	rlcf	(??_LCDNokia5110_Initialize+1)^0,f,c
  4124  007662                     u1484:
  4125  007662  2E14               	decfsz	??_LCDNokia5110_Initialize^0,f,c
  4126  007664  EF2F  F03B         	goto	u1485
  4127  007668  5015               	movf	(??_LCDNokia5110_Initialize+1)^0,w,c
  4128  00766A  0AFF               	xorlw	255
  4129  00766C  6E16               	movwf	(??_LCDNokia5110_Initialize+2)^0,c
  4130  00766E  C060  FFD9         	movff	_Nokia5110,fsr2l
  4131  007672  C061  FFDA         	movff	_Nokia5110+1,fsr2h
  4132  007676  5016               	movf	(??_LCDNokia5110_Initialize+2)^0,w,c
  4133  007678  16DF               	andwf	indf2,f,c
  4134  00767A                     
  4135                           ;LCDNokia5110.c: 48:     (*(Nokia5110.PORT) |= (1 << (Nokia5110.CE)));
  4136  00767A  C065  F014         	movff	_Nokia5110+5,??_LCDNokia5110_Initialize
  4137  00767E  0E01               	movlw	1
  4138  007680  6E15               	movwf	(??_LCDNokia5110_Initialize+1)^0,c
  4139  007682  2A14               	incf	??_LCDNokia5110_Initialize^0,f,c
  4140  007684  EF46  F03B         	goto	u1494
  4141  007688                     u1495:
  4142  007688  90D8               	bcf	status,0,c
  4143  00768A  3615               	rlcf	(??_LCDNokia5110_Initialize+1)^0,f,c
  4144  00768C                     u1494:
  4145  00768C  2E14               	decfsz	??_LCDNokia5110_Initialize^0,f,c
  4146  00768E  EF44  F03B         	goto	u1495
  4147  007692  C062  FFD9         	movff	_Nokia5110+2,fsr2l
  4148  007696  C063  FFDA         	movff	_Nokia5110+3,fsr2h
  4149  00769A  5015               	movf	(??_LCDNokia5110_Initialize+1)^0,w,c
  4150  00769C  12DF               	iorwf	indf2,f,c
  4151  00769E                     
  4152                           ;LCDNokia5110.c: 50:     (*(Nokia5110.PORT) &= ~(1 << (Nokia5110.RST)));
  4153  00769E  C064  F014         	movff	_Nokia5110+4,??_LCDNokia5110_Initialize
  4154  0076A2  0E01               	movlw	1
  4155  0076A4  6E15               	movwf	(??_LCDNokia5110_Initialize+1)^0,c
  4156  0076A6  2A14               	incf	??_LCDNokia5110_Initialize^0,f,c
  4157  0076A8  EF58  F03B         	goto	u1504
  4158  0076AC                     u1505:
  4159  0076AC  90D8               	bcf	status,0,c
  4160  0076AE  3615               	rlcf	(??_LCDNokia5110_Initialize+1)^0,f,c
  4161  0076B0                     u1504:
  4162  0076B0  2E14               	decfsz	??_LCDNokia5110_Initialize^0,f,c
  4163  0076B2  EF56  F03B         	goto	u1505
  4164  0076B6  5015               	movf	(??_LCDNokia5110_Initialize+1)^0,w,c
  4165  0076B8  0AFF               	xorlw	255
  4166  0076BA  6E16               	movwf	(??_LCDNokia5110_Initialize+2)^0,c
  4167  0076BC  C062  FFD9         	movff	_Nokia5110+2,fsr2l
  4168  0076C0  C063  FFDA         	movff	_Nokia5110+3,fsr2h
  4169  0076C4  5016               	movf	(??_LCDNokia5110_Initialize+2)^0,w,c
  4170  0076C6  16DF               	andwf	indf2,f,c
  4171  0076C8                     
  4172                           ;LCDNokia5110.c: 51:     __nop(); __nop();
  4173  0076C8  F000               	nop	
  4174  0076CA  F000               	nop	
  4175  0076CC                     
  4176                           ;LCDNokia5110.c: 52:     (*(Nokia5110.PORT) |= (1 << (Nokia5110.RST)));
  4177  0076CC  C064  F014         	movff	_Nokia5110+4,??_LCDNokia5110_Initialize
  4178  0076D0  0E01               	movlw	1
  4179  0076D2  6E15               	movwf	(??_LCDNokia5110_Initialize+1)^0,c
  4180  0076D4  2A14               	incf	??_LCDNokia5110_Initialize^0,f,c
  4181  0076D6  EF6F  F03B         	goto	u1514
  4182  0076DA                     u1515:
  4183  0076DA  90D8               	bcf	status,0,c
  4184  0076DC  3615               	rlcf	(??_LCDNokia5110_Initialize+1)^0,f,c
  4185  0076DE                     u1514:
  4186  0076DE  2E14               	decfsz	??_LCDNokia5110_Initialize^0,f,c
  4187  0076E0  EF6D  F03B         	goto	u1515
  4188  0076E4  C062  FFD9         	movff	_Nokia5110+2,fsr2l
  4189  0076E8  C063  FFDA         	movff	_Nokia5110+3,fsr2h
  4190  0076EC  5015               	movf	(??_LCDNokia5110_Initialize+1)^0,w,c
  4191  0076EE  12DF               	iorwf	indf2,f,c
  4192  0076F0                     
  4193                           ;LCDNokia5110.c: 54:     LCDNokia5110_Write(0, 0x21);
  4194  0076F0  0E21               	movlw	33
  4195  0076F2  6E06               	movwf	LCDNokia5110_Write@data^0,c
  4196  0076F4  0E00               	movlw	0
  4197  0076F6  ECA7  F036         	call	_LCDNokia5110_Write
  4198  0076FA                     
  4199                           ;LCDNokia5110.c: 55:     LCDNokia5110_Write(0, 0xB0);
  4200  0076FA  0EB0               	movlw	176
  4201  0076FC  6E06               	movwf	LCDNokia5110_Write@data^0,c
  4202  0076FE  0E00               	movlw	0
  4203  007700  ECA7  F036         	call	_LCDNokia5110_Write
  4204  007704                     
  4205                           ;LCDNokia5110.c: 56:     LCDNokia5110_Write(0, 0x04);
  4206  007704  0E04               	movlw	4
  4207  007706  6E06               	movwf	LCDNokia5110_Write@data^0,c
  4208  007708  0E00               	movlw	0
  4209  00770A  ECA7  F036         	call	_LCDNokia5110_Write
  4210  00770E                     
  4211                           ;LCDNokia5110.c: 57:     LCDNokia5110_Write(0, 0x14);
  4212  00770E  0E14               	movlw	20
  4213  007710  6E06               	movwf	LCDNokia5110_Write@data^0,c
  4214  007712  0E00               	movlw	0
  4215  007714  ECA7  F036         	call	_LCDNokia5110_Write
  4216  007718                     
  4217                           ;LCDNokia5110.c: 58:     LCDNokia5110_Write(0, 0x20);
  4218  007718  0E20               	movlw	32
  4219  00771A  6E06               	movwf	LCDNokia5110_Write@data^0,c
  4220  00771C  0E00               	movlw	0
  4221  00771E  ECA7  F036         	call	_LCDNokia5110_Write
  4222  007722                     
  4223                           ;LCDNokia5110.c: 59:     LCDNokia5110_Write(0, 0x0C);
  4224  007722  0E0C               	movlw	12
  4225  007724  6E06               	movwf	LCDNokia5110_Write@data^0,c
  4226  007726  0E00               	movlw	0
  4227  007728  ECA7  F036         	call	_LCDNokia5110_Write
  4228  00772C  0012               	return		;funcret
  4229  00772E                     __end_of_LCDNokia5110_Initialize:
  4230                           	callstack 0
  4231                           
  4232 ;; *************** function _LCDNokia5110_Image *****************
  4233 ;; Defined at:
  4234 ;;		line 176 in file "LCDNokia5110.c"
  4235 ;; Parameters:    Size  Location     Type
  4236 ;;  IMAGE           2   12[COMRAM] PTR const unsigned char 
  4237 ;;		 -> EYR_ImageLogo(504), 
  4238 ;;  x               1   14[COMRAM] unsigned char 
  4239 ;;  y               1   15[COMRAM] unsigned char 
  4240 ;; Auto vars:     Size  Location     Type
  4241 ;;  index           2   18[COMRAM] int 
  4242 ;; Return value:  Size  Location     Type
  4243 ;;                  1    wreg      void 
  4244 ;; Registers used:
  4245 ;;		wreg, fsr2l, fsr2h, status,2, status,0, tblptrl, tblptrh, tblptru, cstack
  4246 ;; Tracked objects:
  4247 ;;		On entry : 0/0
  4248 ;;		On exit  : 0/0
  4249 ;;		Unchanged: 0/0
  4250 ;; Data sizes:     COMRAM   BANK0   BANK1   BANK2   BANK3   BANK4   BANK5
  4251 ;;      Params:         4       0       0       0       0       0       0
  4252 ;;      Locals:         2       0       0       0       0       0       0
  4253 ;;      Temps:          2       0       0       0       0       0       0
  4254 ;;      Totals:         8       0       0       0       0       0       0
  4255 ;;Total ram usage:        8 bytes
  4256 ;; Hardware stack levels used: 1
  4257 ;; Hardware stack levels required when called: 3
  4258 ;; This function calls:
  4259 ;;		_LCDNokia5110_GotoXY
  4260 ;;		_LCDNokia5110_Write
  4261 ;; This function is called by:
  4262 ;;		_main
  4263 ;; This function uses a non-reentrant model
  4264 ;;
  4265                           
  4266                           	psect	text17
  4267  006B1A                     __ptext17:
  4268                           	callstack 0
  4269  006B1A                     _LCDNokia5110_Image:
  4270                           	callstack 27
  4271  006B1A                     
  4272                           ;LCDNokia5110.c: 177:     LCDNokia5110_GotoXY(x, y);
  4273  006B1A  C010  F00B         	movff	LCDNokia5110_Image@y,LCDNokia5110_GotoXY@y
  4274  006B1E  500F               	movf	LCDNokia5110_Image@x^0,w,c
  4275  006B20  ECA2  F034         	call	_LCDNokia5110_GotoXY
  4276  006B24                     
  4277                           ;LCDNokia5110.c: 178:     for (int index = 0; index < (84 * 48 / 8); index++)
  4278  006B24  0E00               	movlw	0
  4279  006B26  6E14               	movwf	(LCDNokia5110_Image@index+1)^0,c
  4280  006B28  0E00               	movlw	0
  4281  006B2A  6E13               	movwf	LCDNokia5110_Image@index^0,c
  4282  006B2C                     l1791:
  4283                           
  4284                           ;LCDNokia5110.c: 179:         LCDNokia5110_Write(1, IMAGE[index]);
  4285  006B2C  5013               	movf	LCDNokia5110_Image@index^0,w,c
  4286  006B2E  240D               	addwf	LCDNokia5110_Image@IMAGE^0,w,c
  4287  006B30  6E11               	movwf	??_LCDNokia5110_Image^0,c
  4288  006B32  5014               	movf	(LCDNokia5110_Image@index+1)^0,w,c
  4289  006B34  200E               	addwfc	(LCDNokia5110_Image@IMAGE+1)^0,w,c
  4290  006B36  6E12               	movwf	(??_LCDNokia5110_Image+1)^0,c
  4291  006B38  C011  FFF6         	movff	??_LCDNokia5110_Image,tblptrl
  4292  006B3C  C012  FFF7         	movff	??_LCDNokia5110_Image+1,tblptrh
  4293  006B40                     	if	0	;tblptru may be non-zero
  4294  006B40                     	endif
  4295  006B40                     	if	0	;tblptru may be non-zero
  4296  006B40                     	endif
  4297  006B40  0008               	tblrd		*
  4298  006B42  CFF5 F006          	movff	tablat,LCDNokia5110_Write@data
  4299  006B46  0E01               	movlw	1
  4300  006B48  ECA7  F036         	call	_LCDNokia5110_Write
  4301  006B4C  4A13               	infsnz	LCDNokia5110_Image@index^0,f,c
  4302  006B4E  2A14               	incf	(LCDNokia5110_Image@index+1)^0,f,c
  4303  006B50  BE14               	btfsc	(LCDNokia5110_Image@index+1)^0,7,c
  4304  006B52  EFB4  F035         	goto	u1531
  4305  006B56  0EF8               	movlw	248
  4306  006B58  5C13               	subwf	LCDNokia5110_Image@index^0,w,c
  4307  006B5A  0E01               	movlw	1
  4308  006B5C  5814               	subwfb	(LCDNokia5110_Image@index+1)^0,w,c
  4309  006B5E  A0D8               	btfss	status,0,c
  4310  006B60  EFB4  F035         	goto	u1531
  4311  006B64  EFB6  F035         	goto	u1530
  4312  006B68                     u1531:
  4313  006B68  EF96  F035         	goto	l1791
  4314  006B6C                     u1530:
  4315  006B6C  0012               	return		;funcret
  4316  006B6E                     __end_of_LCDNokia5110_Image:
  4317                           	callstack 0
  4318                           
  4319 ;; *************** function _LCDNokia5110_Clear *****************
  4320 ;; Defined at:
  4321 ;;		line 114 in file "LCDNokia5110.c"
  4322 ;; Parameters:    Size  Location     Type
  4323 ;;		None
  4324 ;; Auto vars:     Size  Location     Type
  4325 ;;  index           2   12[COMRAM] int 
  4326 ;; Return value:  Size  Location     Type
  4327 ;;                  1    wreg      void 
  4328 ;; Registers used:
  4329 ;;		wreg, fsr2l, fsr2h, status,2, status,0, cstack
  4330 ;; Tracked objects:
  4331 ;;		On entry : 0/0
  4332 ;;		On exit  : 0/0
  4333 ;;		Unchanged: 0/0
  4334 ;; Data sizes:     COMRAM   BANK0   BANK1   BANK2   BANK3   BANK4   BANK5
  4335 ;;      Params:         0       0       0       0       0       0       0
  4336 ;;      Locals:         2       0       0       0       0       0       0
  4337 ;;      Temps:          0       0       0       0       0       0       0
  4338 ;;      Totals:         2       0       0       0       0       0       0
  4339 ;;Total ram usage:        2 bytes
  4340 ;; Hardware stack levels used: 1
  4341 ;; Hardware stack levels required when called: 3
  4342 ;; This function calls:
  4343 ;;		_LCDNokia5110_GotoXY
  4344 ;;		_LCDNokia5110_Write
  4345 ;; This function is called by:
  4346 ;;		_main
  4347 ;; This function uses a non-reentrant model
  4348 ;;
  4349                           
  4350                           	psect	text18
  4351  006A06                     __ptext18:
  4352                           	callstack 0
  4353  006A06                     _LCDNokia5110_Clear:
  4354                           	callstack 27
  4355  006A06                     
  4356                           ;LCDNokia5110.c: 115:     for(int index = 0; index < (84 * 48 / 8); index++)
  4357  006A06  0E00               	movlw	0
  4358  006A08  6E0E               	movwf	(LCDNokia5110_Clear@index+1)^0,c
  4359  006A0A  0E00               	movlw	0
  4360  006A0C  6E0D               	movwf	LCDNokia5110_Clear@index^0,c
  4361  006A0E                     l1775:
  4362                           
  4363                           ;LCDNokia5110.c: 116:         LCDNokia5110_Write(1, 0x00);
  4364  006A0E  0E00               	movlw	0
  4365  006A10  6E06               	movwf	LCDNokia5110_Write@data^0,c
  4366  006A12  0E01               	movlw	1
  4367  006A14  ECA7  F036         	call	_LCDNokia5110_Write
  4368  006A18  4A0D               	infsnz	LCDNokia5110_Clear@index^0,f,c
  4369  006A1A  2A0E               	incf	(LCDNokia5110_Clear@index+1)^0,f,c
  4370  006A1C  BE0E               	btfsc	(LCDNokia5110_Clear@index+1)^0,7,c
  4371  006A1E  EF1A  F035         	goto	u1521
  4372  006A22  0EF8               	movlw	248
  4373  006A24  5C0D               	subwf	LCDNokia5110_Clear@index^0,w,c
  4374  006A26  0E01               	movlw	1
  4375  006A28  580E               	subwfb	(LCDNokia5110_Clear@index+1)^0,w,c
  4376  006A2A  A0D8               	btfss	status,0,c
  4377  006A2C  EF1A  F035         	goto	u1521
  4378  006A30  EF1C  F035         	goto	u1520
  4379  006A34                     u1521:
  4380  006A34  EF07  F035         	goto	l1775
  4381  006A38                     u1520:
  4382  006A38                     
  4383                           ;LCDNokia5110.c: 117:     LCDNokia5110_GotoXY(0, 0);
  4384  006A38  0E00               	movlw	0
  4385  006A3A  6E0B               	movwf	LCDNokia5110_GotoXY@y^0,c
  4386  006A3C  0E00               	movlw	0
  4387  006A3E  ECA2  F034         	call	_LCDNokia5110_GotoXY
  4388  006A42  0012               	return		;funcret
  4389  006A44                     __end_of_LCDNokia5110_Clear:
  4390                           	callstack 0
  4391                           
  4392 ;; *************** function _LCDNokia5110_Bitmap *****************
  4393 ;; Defined at:
  4394 ;;		line 193 in file "LCDNokia5110.c"
  4395 ;; Parameters:    Size  Location     Type
  4396 ;;  BITMAP          2   12[COMRAM] PTR const unsigned char 
  4397 ;;		 -> carita(32), 
  4398 ;;  x               1   14[COMRAM] unsigned char 
  4399 ;;  y               1   15[COMRAM] unsigned char 
  4400 ;;  width           1   16[COMRAM] unsigned char 
  4401 ;;  height          1   17[COMRAM] unsigned char 
  4402 ;; Auto vars:     Size  Location     Type
  4403 ;;  i               1   21[COMRAM] unsigned char 
  4404 ;;  p               1   22[COMRAM] unsigned char 
  4405 ;; Return value:  Size  Location     Type
  4406 ;;                  1    wreg      void 
  4407 ;; Registers used:
  4408 ;;		wreg, fsr2l, fsr2h, status,2, status,0, tblptrl, tblptrh, tblptru, prodl, prodh, cstack
  4409 ;; Tracked objects:
  4410 ;;		On entry : 0/0
  4411 ;;		On exit  : 0/0
  4412 ;;		Unchanged: 0/0
  4413 ;; Data sizes:     COMRAM   BANK0   BANK1   BANK2   BANK3   BANK4   BANK5
  4414 ;;      Params:         6       0       0       0       0       0       0
  4415 ;;      Locals:         2       0       0       0       0       0       0
  4416 ;;      Temps:          3       0       0       0       0       0       0
  4417 ;;      Totals:        11       0       0       0       0       0       0
  4418 ;;Total ram usage:       11 bytes
  4419 ;; Hardware stack levels used: 1
  4420 ;; Hardware stack levels required when called: 3
  4421 ;; This function calls:
  4422 ;;		_LCDNokia5110_GotoXY
  4423 ;;		_LCDNokia5110_Write
  4424 ;;		___awdiv
  4425 ;; This function is called by:
  4426 ;;		_main
  4427 ;; This function uses a non-reentrant model
  4428 ;;
  4429                           
  4430                           	psect	text19
  4431  006CB8                     __ptext19:
  4432                           	callstack 0
  4433  006CB8                     _LCDNokia5110_Bitmap:
  4434                           	callstack 27
  4435  006CB8                     
  4436                           ;LCDNokia5110.c: 194:     for (uint8_t p = 0; p < (height / 8); p++){
  4437  006CB8  0E00               	movlw	0
  4438  006CBA  6E17               	movwf	LCDNokia5110_Bitmap@p^0,c
  4439  006CBC  EF8B  F036         	goto	l1819
  4440  006CC0                     l1807:
  4441                           
  4442                           ;LCDNokia5110.c: 195:         LCDNokia5110_GotoXY(x, y + p);
  4443  006CC0  5010               	movf	LCDNokia5110_Bitmap@y^0,w,c
  4444  006CC2  2417               	addwf	LCDNokia5110_Bitmap@p^0,w,c
  4445  006CC4  6E0B               	movwf	LCDNokia5110_GotoXY@y^0,c
  4446  006CC6  500F               	movf	LCDNokia5110_Bitmap@x^0,w,c
  4447  006CC8  ECA2  F034         	call	_LCDNokia5110_GotoXY
  4448  006CCC                     
  4449                           ;LCDNokia5110.c: 196:         for (uint8_t i = 0; i < width; i++){
  4450  006CCC  0E00               	movlw	0
  4451  006CCE  6E16               	movwf	LCDNokia5110_Bitmap@i^0,c
  4452  006CD0  EF81  F036         	goto	l1815
  4453  006CD4                     l1811:
  4454                           
  4455                           ;LCDNokia5110.c: 197:             LCDNokia5110_Write(1, BITMAP[i + (p * width)]);
  4456  006CD4  5017               	movf	LCDNokia5110_Bitmap@p^0,w,c
  4457  006CD6  0211               	mulwf	LCDNokia5110_Bitmap@width^0,c
  4458  006CD8  5016               	movf	LCDNokia5110_Bitmap@i^0,w,c
  4459  006CDA  240D               	addwf	LCDNokia5110_Bitmap@BITMAP^0,w,c
  4460  006CDC  6E13               	movwf	??_LCDNokia5110_Bitmap^0,c
  4461  006CDE  0E00               	movlw	0
  4462  006CE0  200E               	addwfc	(LCDNokia5110_Bitmap@BITMAP+1)^0,w,c
  4463  006CE2  6E14               	movwf	(??_LCDNokia5110_Bitmap+1)^0,c
  4464  006CE4  50F3               	movf	243,w,c
  4465  006CE6  2613               	addwf	??_LCDNokia5110_Bitmap^0,f,c
  4466  006CE8  50F4               	movf	244,w,c
  4467  006CEA  2214               	addwfc	(??_LCDNokia5110_Bitmap+1)^0,f,c
  4468  006CEC  C013  FFF6         	movff	??_LCDNokia5110_Bitmap,tblptrl
  4469  006CF0  C014  FFF7         	movff	??_LCDNokia5110_Bitmap+1,tblptrh
  4470  006CF4                     	if	0	;tblptru may be non-zero
  4471  006CF4                     	endif
  4472  006CF4                     	if	0	;tblptru may be non-zero
  4473  006CF4                     	endif
  4474  006CF4  0008               	tblrd		*
  4475  006CF6  CFF5 F006          	movff	tablat,LCDNokia5110_Write@data
  4476  006CFA  0E01               	movlw	1
  4477  006CFC  ECA7  F036         	call	_LCDNokia5110_Write
  4478  006D00                     
  4479                           ;LCDNokia5110.c: 198:         }
  4480  006D00  2A16               	incf	LCDNokia5110_Bitmap@i^0,f,c
  4481  006D02                     l1815:
  4482  006D02  5011               	movf	LCDNokia5110_Bitmap@width^0,w,c
  4483  006D04  5C16               	subwf	LCDNokia5110_Bitmap@i^0,w,c
  4484  006D06  A0D8               	btfss	status,0,c
  4485  006D08  EF88  F036         	goto	u1571
  4486  006D0C  EF8A  F036         	goto	u1570
  4487  006D10                     u1571:
  4488  006D10  EF6A  F036         	goto	l1811
  4489  006D14                     u1570:
  4490  006D14                     
  4491                           ;LCDNokia5110.c: 199:     }
  4492  006D14  2A17               	incf	LCDNokia5110_Bitmap@p^0,f,c
  4493  006D16                     l1819:
  4494  006D16  C012  F001         	movff	LCDNokia5110_Bitmap@height,___awdiv@dividend
  4495  006D1A  6A02               	clrf	(___awdiv@dividend+1)^0,c
  4496  006D1C  0E00               	movlw	0
  4497  006D1E  6E04               	movwf	(___awdiv@divisor+1)^0,c
  4498  006D20  0E08               	movlw	8
  4499  006D22  6E03               	movwf	___awdiv@divisor^0,c
  4500  006D24  EC04  F037         	call	___awdiv	;wreg free
  4501  006D28  5017               	movf	LCDNokia5110_Bitmap@p^0,w,c
  4502  006D2A  6E13               	movwf	??_LCDNokia5110_Bitmap^0,c
  4503  006D2C  6A14               	clrf	(??_LCDNokia5110_Bitmap+1)^0,c
  4504  006D2E  5001               	movf	?___awdiv^0,w,c
  4505  006D30  5C13               	subwf	??_LCDNokia5110_Bitmap^0,w,c
  4506  006D32  5014               	movf	(??_LCDNokia5110_Bitmap+1)^0,w,c
  4507  006D34  0A80               	xorlw	128
  4508  006D36  6E15               	movwf	(??_LCDNokia5110_Bitmap+2)^0,c
  4509  006D38  5002               	movf	(?___awdiv+1)^0,w,c
  4510  006D3A  0A80               	xorlw	128
  4511  006D3C  5815               	subwfb	(??_LCDNokia5110_Bitmap+2)^0,w,c
  4512  006D3E  A0D8               	btfss	status,0,c
  4513  006D40  EFA4  F036         	goto	u1581
  4514  006D44  EFA6  F036         	goto	u1580
  4515  006D48                     u1581:
  4516  006D48  EF60  F036         	goto	l1807
  4517  006D4C                     u1580:
  4518  006D4C  0012               	return		;funcret
  4519  006D4E                     __end_of_LCDNokia5110_Bitmap:
  4520                           	callstack 0
  4521                           
  4522 ;; *************** function ___awdiv *****************
  4523 ;; Defined at:
  4524 ;;		line 7 in file "C:\Program Files\Microchip\xc8\v2.36\pic\sources\c99\common\awdiv.c"
  4525 ;; Parameters:    Size  Location     Type
  4526 ;;  dividend        2    0[COMRAM] int 
  4527 ;;  divisor         2    2[COMRAM] int 
  4528 ;; Auto vars:     Size  Location     Type
  4529 ;;  quotient        2    6[COMRAM] int 
  4530 ;;  sign            1    5[COMRAM] unsigned char 
  4531 ;;  counter         1    4[COMRAM] unsigned char 
  4532 ;; Return value:  Size  Location     Type
  4533 ;;                  2    0[COMRAM] int 
  4534 ;; Registers used:
  4535 ;;		wreg, status,2, status,0
  4536 ;; Tracked objects:
  4537 ;;		On entry : 0/0
  4538 ;;		On exit  : 0/0
  4539 ;;		Unchanged: 0/0
  4540 ;; Data sizes:     COMRAM   BANK0   BANK1   BANK2   BANK3   BANK4   BANK5
  4541 ;;      Params:         4       0       0       0       0       0       0
  4542 ;;      Locals:         4       0       0       0       0       0       0
  4543 ;;      Temps:          0       0       0       0       0       0       0
  4544 ;;      Totals:         8       0       0       0       0       0       0
  4545 ;;Total ram usage:        8 bytes
  4546 ;; Hardware stack levels used: 1
  4547 ;; This function calls:
  4548 ;;		Nothing
  4549 ;; This function is called by:
  4550 ;;		_LCDNokia5110_Bitmap
  4551 ;; This function uses a non-reentrant model
  4552 ;;
  4553                           
  4554                           	psect	text20
  4555  006E08                     __ptext20:
  4556                           	callstack 0
  4557  006E08                     ___awdiv:
  4558                           	callstack 29
  4559  006E08  0E00               	movlw	0
  4560  006E0A  6E06               	movwf	___awdiv@sign^0,c
  4561  006E0C  BE04               	btfsc	(___awdiv@divisor+1)^0,7,c
  4562  006E0E  EF0D  F037         	goto	u1360
  4563  006E12  EF0B  F037         	goto	u1361
  4564  006E16                     u1361:
  4565  006E16  EF13  F037         	goto	l1689
  4566  006E1A                     u1360:
  4567  006E1A  6C03               	negf	___awdiv@divisor^0,c
  4568  006E1C  1E04               	comf	(___awdiv@divisor+1)^0,f,c
  4569  006E1E  B0D8               	btfsc	status,0,c
  4570  006E20  2A04               	incf	(___awdiv@divisor+1)^0,f,c
  4571  006E22  0E01               	movlw	1
  4572  006E24  6E06               	movwf	___awdiv@sign^0,c
  4573  006E26                     l1689:
  4574  006E26  BE02               	btfsc	(___awdiv@dividend+1)^0,7,c
  4575  006E28  EF1A  F037         	goto	u1370
  4576  006E2C  EF18  F037         	goto	u1371
  4577  006E30                     u1371:
  4578  006E30  EF20  F037         	goto	l1695
  4579  006E34                     u1370:
  4580  006E34  6C01               	negf	___awdiv@dividend^0,c
  4581  006E36  1E02               	comf	(___awdiv@dividend+1)^0,f,c
  4582  006E38  B0D8               	btfsc	status,0,c
  4583  006E3A  2A02               	incf	(___awdiv@dividend+1)^0,f,c
  4584  006E3C  0E01               	movlw	1
  4585  006E3E  1A06               	xorwf	___awdiv@sign^0,f,c
  4586  006E40                     l1695:
  4587  006E40  0E00               	movlw	0
  4588  006E42  6E08               	movwf	(___awdiv@quotient+1)^0,c
  4589  006E44  0E00               	movlw	0
  4590  006E46  6E07               	movwf	___awdiv@quotient^0,c
  4591  006E48  5003               	movf	___awdiv@divisor^0,w,c
  4592  006E4A  1004               	iorwf	(___awdiv@divisor+1)^0,w,c
  4593  006E4C  B4D8               	btfsc	status,2,c
  4594  006E4E  EF2B  F037         	goto	u1381
  4595  006E52  EF2D  F037         	goto	u1380
  4596  006E56                     u1381:
  4597  006E56  EF55  F037         	goto	l1717
  4598  006E5A                     u1380:
  4599  006E5A  0E01               	movlw	1
  4600  006E5C  6E05               	movwf	___awdiv@counter^0,c
  4601  006E5E  EF35  F037         	goto	l1703
  4602  006E62                     l1701:
  4603  006E62  90D8               	bcf	status,0,c
  4604  006E64  3603               	rlcf	___awdiv@divisor^0,f,c
  4605  006E66  3604               	rlcf	(___awdiv@divisor+1)^0,f,c
  4606  006E68  2A05               	incf	___awdiv@counter^0,f,c
  4607  006E6A                     l1703:
  4608  006E6A  AE04               	btfss	(___awdiv@divisor+1)^0,7,c
  4609  006E6C  EF3A  F037         	goto	u1391
  4610  006E70  EF3C  F037         	goto	u1390
  4611  006E74                     u1391:
  4612  006E74  EF31  F037         	goto	l1701
  4613  006E78                     u1390:
  4614  006E78                     l1705:
  4615  006E78  90D8               	bcf	status,0,c
  4616  006E7A  3607               	rlcf	___awdiv@quotient^0,f,c
  4617  006E7C  3608               	rlcf	(___awdiv@quotient+1)^0,f,c
  4618  006E7E  5003               	movf	___awdiv@divisor^0,w,c
  4619  006E80  5C01               	subwf	___awdiv@dividend^0,w,c
  4620  006E82  5004               	movf	(___awdiv@divisor+1)^0,w,c
  4621  006E84  5802               	subwfb	(___awdiv@dividend+1)^0,w,c
  4622  006E86  A0D8               	btfss	status,0,c
  4623  006E88  EF48  F037         	goto	u1401
  4624  006E8C  EF4A  F037         	goto	u1400
  4625  006E90                     u1401:
  4626  006E90  EF4F  F037         	goto	l1713
  4627  006E94                     u1400:
  4628  006E94  5003               	movf	___awdiv@divisor^0,w,c
  4629  006E96  5E01               	subwf	___awdiv@dividend^0,f,c
  4630  006E98  5004               	movf	(___awdiv@divisor+1)^0,w,c
  4631  006E9A  5A02               	subwfb	(___awdiv@dividend+1)^0,f,c
  4632  006E9C  8007               	bsf	___awdiv@quotient^0,0,c
  4633  006E9E                     l1713:
  4634  006E9E  90D8               	bcf	status,0,c
  4635  006EA0  3204               	rrcf	(___awdiv@divisor+1)^0,f,c
  4636  006EA2  3203               	rrcf	___awdiv@divisor^0,f,c
  4637  006EA4  2E05               	decfsz	___awdiv@counter^0,f,c
  4638  006EA6  EF3C  F037         	goto	l1705
  4639  006EAA                     l1717:
  4640  006EAA  5006               	movf	___awdiv@sign^0,w,c
  4641  006EAC  B4D8               	btfsc	status,2,c
  4642  006EAE  EF5B  F037         	goto	u1411
  4643  006EB2  EF5D  F037         	goto	u1410
  4644  006EB6                     u1411:
  4645  006EB6  EF61  F037         	goto	l1721
  4646  006EBA                     u1410:
  4647  006EBA  6C07               	negf	___awdiv@quotient^0,c
  4648  006EBC  1E08               	comf	(___awdiv@quotient+1)^0,f,c
  4649  006EBE  B0D8               	btfsc	status,0,c
  4650  006EC0  2A08               	incf	(___awdiv@quotient+1)^0,f,c
  4651  006EC2                     l1721:
  4652  006EC2  C007  F001         	movff	___awdiv@quotient,?___awdiv
  4653  006EC6  C008  F002         	movff	___awdiv@quotient+1,?___awdiv+1
  4654  006ECA  0012               	return		;funcret
  4655  006ECC                     __end_of___awdiv:
  4656                           	callstack 0
  4657                           
  4658 ;; *************** function _LCDNokia5110_GotoXY *****************
  4659 ;; Defined at:
  4660 ;;		line 129 in file "LCDNokia5110.c"
  4661 ;; Parameters:    Size  Location     Type
  4662 ;;  x               1    wreg     unsigned char 
  4663 ;;  y               1   10[COMRAM] unsigned char 
  4664 ;; Auto vars:     Size  Location     Type
  4665 ;;  x               1   11[COMRAM] unsigned char 
  4666 ;; Return value:  Size  Location     Type
  4667 ;;                  1    wreg      void 
  4668 ;; Registers used:
  4669 ;;		wreg, fsr2l, fsr2h, status,2, status,0, cstack
  4670 ;; Tracked objects:
  4671 ;;		On entry : 0/0
  4672 ;;		On exit  : 0/0
  4673 ;;		Unchanged: 0/0
  4674 ;; Data sizes:     COMRAM   BANK0   BANK1   BANK2   BANK3   BANK4   BANK5
  4675 ;;      Params:         1       0       0       0       0       0       0
  4676 ;;      Locals:         1       0       0       0       0       0       0
  4677 ;;      Temps:          0       0       0       0       0       0       0
  4678 ;;      Totals:         2       0       0       0       0       0       0
  4679 ;;Total ram usage:        2 bytes
  4680 ;; Hardware stack levels used: 1
  4681 ;; Hardware stack levels required when called: 2
  4682 ;; This function calls:
  4683 ;;		_LCDNokia5110_Write
  4684 ;; This function is called by:
  4685 ;;		_LCDNokia5110_Clear
  4686 ;;		_LCDNokia5110_putStr
  4687 ;;		_LCDNokia5110_Image
  4688 ;;		_LCDNokia5110_Bitmap
  4689 ;; This function uses a non-reentrant model
  4690 ;;
  4691                           
  4692                           	psect	text21
  4693  006944                     __ptext21:
  4694                           	callstack 0
  4695  006944                     _LCDNokia5110_GotoXY:
  4696                           	callstack 27
  4697                           
  4698                           ;incstack = 0
  4699                           ;LCDNokia5110_GotoXY@x stored from wreg
  4700  006944  6E0C               	movwf	LCDNokia5110_GotoXY@x^0,c
  4701  006946                     
  4702                           ;LCDNokia5110.c: 130:     LCDNokia5110_Write(0, 0x80 | x);
  4703  006946  500C               	movf	LCDNokia5110_GotoXY@x^0,w,c
  4704  006948  0980               	iorlw	128
  4705  00694A  6E06               	movwf	LCDNokia5110_Write@data^0,c
  4706  00694C  0E00               	movlw	0
  4707  00694E  ECA7  F036         	call	_LCDNokia5110_Write
  4708                           
  4709                           ;LCDNokia5110.c: 131:     LCDNokia5110_Write(0, 0x40 | y);
  4710  006952  500B               	movf	LCDNokia5110_GotoXY@y^0,w,c
  4711  006954  0940               	iorlw	64
  4712  006956  6E06               	movwf	LCDNokia5110_Write@data^0,c
  4713  006958  0E00               	movlw	0
  4714  00695A  ECA7  F036         	call	_LCDNokia5110_Write
  4715  00695E  0012               	return		;funcret
  4716  006960                     __end_of_LCDNokia5110_GotoXY:
  4717                           	callstack 0
  4718                           
  4719 ;; *************** function _LCDNokia5110_Write *****************
  4720 ;; Defined at:
  4721 ;;		line 73 in file "LCDNokia5110.c"
  4722 ;; Parameters:    Size  Location     Type
  4723 ;;  mode            1    wreg     unsigned char 
  4724 ;;  data            1    5[COMRAM] unsigned char 
  4725 ;; Auto vars:     Size  Location     Type
  4726 ;;  mode            1    9[COMRAM] unsigned char 
  4727 ;; Return value:  Size  Location     Type
  4728 ;;                  1    wreg      void 
  4729 ;; Registers used:
  4730 ;;		wreg, fsr2l, fsr2h, status,2, status,0, cstack
  4731 ;; Tracked objects:
  4732 ;;		On entry : 0/0
  4733 ;;		On exit  : 0/0
  4734 ;;		Unchanged: 0/0
  4735 ;; Data sizes:     COMRAM   BANK0   BANK1   BANK2   BANK3   BANK4   BANK5
  4736 ;;      Params:         1       0       0       0       0       0       0
  4737 ;;      Locals:         1       0       0       0       0       0       0
  4738 ;;      Temps:          3       0       0       0       0       0       0
  4739 ;;      Totals:         5       0       0       0       0       0       0
  4740 ;;Total ram usage:        5 bytes
  4741 ;; Hardware stack levels used: 1
  4742 ;; Hardware stack levels required when called: 1
  4743 ;; This function calls:
  4744 ;;		_LCDNokia5110_WriteSPI
  4745 ;; This function is called by:
  4746 ;;		_LCDNokia5110_Initialize
  4747 ;;		_LCDNokia5110_Clear
  4748 ;;		_LCDNokia5110_GotoXY
  4749 ;;		_LCDNokia5110_putC
  4750 ;;		_LCDNokia5110_Image
  4751 ;;		_LCDNokia5110_Bitmap
  4752 ;; This function uses a non-reentrant model
  4753 ;;
  4754                           
  4755                           	psect	text22
  4756  006D4E                     __ptext22:
  4757                           	callstack 0
  4758  006D4E                     _LCDNokia5110_Write:
  4759                           	callstack 27
  4760                           
  4761                           ;incstack = 0
  4762                           ;LCDNokia5110_Write@mode stored from wreg
  4763  006D4E  6E0A               	movwf	LCDNokia5110_Write@mode^0,c
  4764  006D50                     
  4765                           ;LCDNokia5110.c: 74:     if(mode == 1)
  4766  006D50  040A               	decf	LCDNokia5110_Write@mode^0,w,c
  4767  006D52  A4D8               	btfss	status,2,c
  4768  006D54  EFAE  F036         	goto	u1261
  4769  006D58  EFB0  F036         	goto	u1260
  4770  006D5C                     u1261:
  4771  006D5C  EFC4  F036         	goto	l1615
  4772  006D60                     u1260:
  4773  006D60                     
  4774                           ;LCDNokia5110.c: 75:         (*(Nokia5110.PORT) |= (1 << (Nokia5110.DC)));
  4775  006D60  C066  F007         	movff	_Nokia5110+6,??_LCDNokia5110_Write
  4776  006D64  0E01               	movlw	1
  4777  006D66  6E08               	movwf	(??_LCDNokia5110_Write+1)^0,c
  4778  006D68  2A07               	incf	??_LCDNokia5110_Write^0,f,c
  4779  006D6A  EFB9  F036         	goto	u1274
  4780  006D6E                     u1275:
  4781  006D6E  90D8               	bcf	status,0,c
  4782  006D70  3608               	rlcf	(??_LCDNokia5110_Write+1)^0,f,c
  4783  006D72                     u1274:
  4784  006D72  2E07               	decfsz	??_LCDNokia5110_Write^0,f,c
  4785  006D74  EFB7  F036         	goto	u1275
  4786  006D78  C062  FFD9         	movff	_Nokia5110+2,fsr2l
  4787  006D7C  C063  FFDA         	movff	_Nokia5110+3,fsr2h
  4788  006D80  5008               	movf	(??_LCDNokia5110_Write+1)^0,w,c
  4789  006D82  12DF               	iorwf	indf2,f,c
  4790  006D84  EFD9  F036         	goto	l69
  4791  006D88                     l1615:
  4792                           
  4793                           ;LCDNokia5110.c: 77:         (*(Nokia5110.PORT) &= ~(1 << (Nokia5110.DC)));
  4794  006D88  C066  F007         	movff	_Nokia5110+6,??_LCDNokia5110_Write
  4795  006D8C  0E01               	movlw	1
  4796  006D8E  6E08               	movwf	(??_LCDNokia5110_Write+1)^0,c
  4797  006D90  2A07               	incf	??_LCDNokia5110_Write^0,f,c
  4798  006D92  EFCD  F036         	goto	u1284
  4799  006D96                     u1285:
  4800  006D96  90D8               	bcf	status,0,c
  4801  006D98  3608               	rlcf	(??_LCDNokia5110_Write+1)^0,f,c
  4802  006D9A                     u1284:
  4803  006D9A  2E07               	decfsz	??_LCDNokia5110_Write^0,f,c
  4804  006D9C  EFCB  F036         	goto	u1285
  4805  006DA0  5008               	movf	(??_LCDNokia5110_Write+1)^0,w,c
  4806  006DA2  0AFF               	xorlw	255
  4807  006DA4  6E09               	movwf	(??_LCDNokia5110_Write+2)^0,c
  4808  006DA6  C062  FFD9         	movff	_Nokia5110+2,fsr2l
  4809  006DAA  C063  FFDA         	movff	_Nokia5110+3,fsr2h
  4810  006DAE  5009               	movf	(??_LCDNokia5110_Write+2)^0,w,c
  4811  006DB0  16DF               	andwf	indf2,f,c
  4812  006DB2                     l69:
  4813                           
  4814                           ;LCDNokia5110.c: 80:     (*(Nokia5110.PORT) &= ~(1 << (Nokia5110.CE)));
  4815  006DB2  C065  F007         	movff	_Nokia5110+5,??_LCDNokia5110_Write
  4816  006DB6  0E01               	movlw	1
  4817  006DB8  6E08               	movwf	(??_LCDNokia5110_Write+1)^0,c
  4818  006DBA  2A07               	incf	??_LCDNokia5110_Write^0,f,c
  4819  006DBC  EFE2  F036         	goto	u1294
  4820  006DC0                     u1295:
  4821  006DC0  90D8               	bcf	status,0,c
  4822  006DC2  3608               	rlcf	(??_LCDNokia5110_Write+1)^0,f,c
  4823  006DC4                     u1294:
  4824  006DC4  2E07               	decfsz	??_LCDNokia5110_Write^0,f,c
  4825  006DC6  EFE0  F036         	goto	u1295
  4826  006DCA  5008               	movf	(??_LCDNokia5110_Write+1)^0,w,c
  4827  006DCC  0AFF               	xorlw	255
  4828  006DCE  6E09               	movwf	(??_LCDNokia5110_Write+2)^0,c
  4829  006DD0  C062  FFD9         	movff	_Nokia5110+2,fsr2l
  4830  006DD4  C063  FFDA         	movff	_Nokia5110+3,fsr2h
  4831  006DD8  5009               	movf	(??_LCDNokia5110_Write+2)^0,w,c
  4832  006DDA  16DF               	andwf	indf2,f,c
  4833  006DDC                     
  4834                           ;LCDNokia5110.c: 81:     LCDNokia5110_WriteSPI(data);
  4835  006DDC  5006               	movf	LCDNokia5110_Write@data^0,w,c
  4836  006DDE  EC2E  F038         	call	_LCDNokia5110_WriteSPI
  4837  006DE2                     
  4838                           ;LCDNokia5110.c: 82:     (*(Nokia5110.PORT) |= (1 << (Nokia5110.CE)));
  4839  006DE2  C065  F007         	movff	_Nokia5110+5,??_LCDNokia5110_Write
  4840  006DE6  0E01               	movlw	1
  4841  006DE8  6E08               	movwf	(??_LCDNokia5110_Write+1)^0,c
  4842  006DEA  2A07               	incf	??_LCDNokia5110_Write^0,f,c
  4843  006DEC  EFFA  F036         	goto	u1304
  4844  006DF0                     u1305:
  4845  006DF0  90D8               	bcf	status,0,c
  4846  006DF2  3608               	rlcf	(??_LCDNokia5110_Write+1)^0,f,c
  4847  006DF4                     u1304:
  4848  006DF4  2E07               	decfsz	??_LCDNokia5110_Write^0,f,c
  4849  006DF6  EFF8  F036         	goto	u1305
  4850  006DFA  C062  FFD9         	movff	_Nokia5110+2,fsr2l
  4851  006DFE  C063  FFDA         	movff	_Nokia5110+3,fsr2h
  4852  006E02  5008               	movf	(??_LCDNokia5110_Write+1)^0,w,c
  4853  006E04  12DF               	iorwf	indf2,f,c
  4854  006E06  0012               	return		;funcret
  4855  006E08                     __end_of_LCDNokia5110_Write:
  4856                           	callstack 0
  4857                           
  4858 ;; *************** function _LCDNokia5110_WriteSPI *****************
  4859 ;; Defined at:
  4860 ;;		line 94 in file "LCDNokia5110.c"
  4861 ;; Parameters:    Size  Location     Type
  4862 ;;  outData         1    wreg     unsigned char 
  4863 ;; Auto vars:     Size  Location     Type
  4864 ;;  outData         1    3[COMRAM] unsigned char 
  4865 ;;  i               1    4[COMRAM] unsigned char 
  4866 ;; Return value:  Size  Location     Type
  4867 ;;                  1    wreg      void 
  4868 ;; Registers used:
  4869 ;;		wreg, fsr2l, fsr2h, status,2, status,0
  4870 ;; Tracked objects:
  4871 ;;		On entry : 0/0
  4872 ;;		On exit  : 0/0
  4873 ;;		Unchanged: 0/0
  4874 ;; Data sizes:     COMRAM   BANK0   BANK1   BANK2   BANK3   BANK4   BANK5
  4875 ;;      Params:         0       0       0       0       0       0       0
  4876 ;;      Locals:         2       0       0       0       0       0       0
  4877 ;;      Temps:          3       0       0       0       0       0       0
  4878 ;;      Totals:         5       0       0       0       0       0       0
  4879 ;;Total ram usage:        5 bytes
  4880 ;; Hardware stack levels used: 1
  4881 ;; This function calls:
  4882 ;;		Nothing
  4883 ;; This function is called by:
  4884 ;;		_LCDNokia5110_Write
  4885 ;; This function uses a non-reentrant model
  4886 ;;
  4887                           
  4888                           	psect	text23
  4889  00705C                     __ptext23:
  4890                           	callstack 0
  4891  00705C                     _LCDNokia5110_WriteSPI:
  4892                           	callstack 27
  4893                           
  4894                           ;incstack = 0
  4895                           ;LCDNokia5110_WriteSPI@outData stored from wreg
  4896  00705C  6E04               	movwf	LCDNokia5110_WriteSPI@outData^0,c
  4897  00705E                     
  4898                           ;LCDNokia5110.c: 95:     for(uint8_t i = 0; i < 8; i++){
  4899  00705E  0E00               	movlw	0
  4900  007060  6E05               	movwf	LCDNokia5110_WriteSPI@i^0,c
  4901  007062                     l1535:
  4902                           
  4903                           ;LCDNokia5110.c: 96:         (*(Nokia5110.PORT) &= ~(1 << (Nokia5110.CLK)));
  4904  007062  C068  F001         	movff	_Nokia5110+8,??_LCDNokia5110_WriteSPI
  4905  007066  0E01               	movlw	1
  4906  007068  6E02               	movwf	(??_LCDNokia5110_WriteSPI+1)^0,c
  4907  00706A  2A01               	incf	??_LCDNokia5110_WriteSPI^0,f,c
  4908  00706C  EF3A  F038         	goto	u1054
  4909  007070                     u1055:
  4910  007070  90D8               	bcf	status,0,c
  4911  007072  3602               	rlcf	(??_LCDNokia5110_WriteSPI+1)^0,f,c
  4912  007074                     u1054:
  4913  007074  2E01               	decfsz	??_LCDNokia5110_WriteSPI^0,f,c
  4914  007076  EF38  F038         	goto	u1055
  4915  00707A  5002               	movf	(??_LCDNokia5110_WriteSPI+1)^0,w,c
  4916  00707C  0AFF               	xorlw	255
  4917  00707E  6E03               	movwf	(??_LCDNokia5110_WriteSPI+2)^0,c
  4918  007080  C062  FFD9         	movff	_Nokia5110+2,fsr2l
  4919  007084  C063  FFDA         	movff	_Nokia5110+3,fsr2h
  4920  007088  5003               	movf	(??_LCDNokia5110_WriteSPI+2)^0,w,c
  4921  00708A  16DF               	andwf	indf2,f,c
  4922  00708C                     
  4923                           ;LCDNokia5110.c: 97:         if ((outData & 0x80) == 0)
  4924  00708C  BE04               	btfsc	LCDNokia5110_WriteSPI@outData^0,7,c
  4925  00708E  EF4B  F038         	goto	u1061
  4926  007092  EF4D  F038         	goto	u1060
  4927  007096                     u1061:
  4928  007096  EF64  F038         	goto	l1541
  4929  00709A                     u1060:
  4930  00709A                     
  4931                           ;LCDNokia5110.c: 98:             (*(Nokia5110.PORT) &= ~(1 << (Nokia5110.DIN)));
  4932  00709A  C067  F001         	movff	_Nokia5110+7,??_LCDNokia5110_WriteSPI
  4933  00709E  0E01               	movlw	1
  4934  0070A0  6E02               	movwf	(??_LCDNokia5110_WriteSPI+1)^0,c
  4935  0070A2  2A01               	incf	??_LCDNokia5110_WriteSPI^0,f,c
  4936  0070A4  EF56  F038         	goto	u1074
  4937  0070A8                     u1075:
  4938  0070A8  90D8               	bcf	status,0,c
  4939  0070AA  3602               	rlcf	(??_LCDNokia5110_WriteSPI+1)^0,f,c
  4940  0070AC                     u1074:
  4941  0070AC  2E01               	decfsz	??_LCDNokia5110_WriteSPI^0,f,c
  4942  0070AE  EF54  F038         	goto	u1075
  4943  0070B2  5002               	movf	(??_LCDNokia5110_WriteSPI+1)^0,w,c
  4944  0070B4  0AFF               	xorlw	255
  4945  0070B6  6E03               	movwf	(??_LCDNokia5110_WriteSPI+2)^0,c
  4946  0070B8  C062  FFD9         	movff	_Nokia5110+2,fsr2l
  4947  0070BC  C063  FFDA         	movff	_Nokia5110+3,fsr2h
  4948  0070C0  5003               	movf	(??_LCDNokia5110_WriteSPI+2)^0,w,c
  4949  0070C2  16DF               	andwf	indf2,f,c
  4950  0070C4  EF76  F038         	goto	l76
  4951  0070C8                     l1541:
  4952                           
  4953                           ;LCDNokia5110.c: 100:             (*(Nokia5110.PORT) |= (1 << (Nokia5110.DIN)));
  4954  0070C8  C067  F001         	movff	_Nokia5110+7,??_LCDNokia5110_WriteSPI
  4955  0070CC  0E01               	movlw	1
  4956  0070CE  6E02               	movwf	(??_LCDNokia5110_WriteSPI+1)^0,c
  4957  0070D0  2A01               	incf	??_LCDNokia5110_WriteSPI^0,f,c
  4958  0070D2  EF6D  F038         	goto	u1084
  4959  0070D6                     u1085:
  4960  0070D6  90D8               	bcf	status,0,c
  4961  0070D8  3602               	rlcf	(??_LCDNokia5110_WriteSPI+1)^0,f,c
  4962  0070DA                     u1084:
  4963  0070DA  2E01               	decfsz	??_LCDNokia5110_WriteSPI^0,f,c
  4964  0070DC  EF6B  F038         	goto	u1085
  4965  0070E0  C062  FFD9         	movff	_Nokia5110+2,fsr2l
  4966  0070E4  C063  FFDA         	movff	_Nokia5110+3,fsr2h
  4967  0070E8  5002               	movf	(??_LCDNokia5110_WriteSPI+1)^0,w,c
  4968  0070EA  12DF               	iorwf	indf2,f,c
  4969  0070EC                     l76:
  4970                           
  4971                           ;LCDNokia5110.c: 101:         (*(Nokia5110.PORT) |= (1 << (Nokia5110.CLK)));
  4972  0070EC  C068  F001         	movff	_Nokia5110+8,??_LCDNokia5110_WriteSPI
  4973  0070F0  0E01               	movlw	1
  4974  0070F2  6E02               	movwf	(??_LCDNokia5110_WriteSPI+1)^0,c
  4975  0070F4  2A01               	incf	??_LCDNokia5110_WriteSPI^0,f,c
  4976  0070F6  EF7F  F038         	goto	u1094
  4977  0070FA                     u1095:
  4978  0070FA  90D8               	bcf	status,0,c
  4979  0070FC  3602               	rlcf	(??_LCDNokia5110_WriteSPI+1)^0,f,c
  4980  0070FE                     u1094:
  4981  0070FE  2E01               	decfsz	??_LCDNokia5110_WriteSPI^0,f,c
  4982  007100  EF7D  F038         	goto	u1095
  4983  007104  C062  FFD9         	movff	_Nokia5110+2,fsr2l
  4984  007108  C063  FFDA         	movff	_Nokia5110+3,fsr2h
  4985  00710C  5002               	movf	(??_LCDNokia5110_WriteSPI+1)^0,w,c
  4986  00710E  12DF               	iorwf	indf2,f,c
  4987  007110                     
  4988                           ;LCDNokia5110.c: 102:         outData <<= 1;
  4989  007110  90D8               	bcf	status,0,c
  4990  007112  3604               	rlcf	LCDNokia5110_WriteSPI@outData^0,f,c
  4991  007114                     
  4992                           ;LCDNokia5110.c: 103:     }
  4993  007114  2A05               	incf	LCDNokia5110_WriteSPI@i^0,f,c
  4994  007116  0E07               	movlw	7
  4995  007118  6405               	cpfsgt	LCDNokia5110_WriteSPI@i^0,c
  4996  00711A  EF91  F038         	goto	u1101
  4997  00711E  EF93  F038         	goto	u1100
  4998  007122                     u1101:
  4999  007122  EF31  F038         	goto	l1535
  5000  007126                     u1100:
  5001  007126  0012               	return		;funcret
  5002  007128                     __end_of_LCDNokia5110_WriteSPI:
  5003                           	callstack 0
  5004                           
  5005                           	psect	rparam
  5006  0000                     
  5007                           	psect	idloc
  5008                           
  5009                           ;Config register IDLOC0 @ 0x200000
  5010                           ;	unspecified, using default values
  5011  200000                     	org	2097152
  5012  200000  FF                 	db	255
  5013                           
  5014                           ;Config register IDLOC1 @ 0x200001
  5015                           ;	unspecified, using default values
  5016  200001                     	org	2097153
  5017  200001  FF                 	db	255
  5018                           
  5019                           ;Config register IDLOC2 @ 0x200002
  5020                           ;	unspecified, using default values
  5021  200002                     	org	2097154
  5022  200002  FF                 	db	255
  5023                           
  5024                           ;Config register IDLOC3 @ 0x200003
  5025                           ;	unspecified, using default values
  5026  200003                     	org	2097155
  5027  200003  FF                 	db	255
  5028                           
  5029                           ;Config register IDLOC4 @ 0x200004
  5030                           ;	unspecified, using default values
  5031  200004                     	org	2097156
  5032  200004  FF                 	db	255
  5033                           
  5034                           ;Config register IDLOC5 @ 0x200005
  5035                           ;	unspecified, using default values
  5036  200005                     	org	2097157
  5037  200005  FF                 	db	255
  5038                           
  5039                           ;Config register IDLOC6 @ 0x200006
  5040                           ;	unspecified, using default values
  5041  200006                     	org	2097158
  5042  200006  FF                 	db	255
  5043                           
  5044                           ;Config register IDLOC7 @ 0x200007
  5045                           ;	unspecified, using default values
  5046  200007                     	org	2097159
  5047  200007  FF                 	db	255
  5048                           
  5049                           	psect	config
  5050                           
  5051                           ; Padding undefined space
  5052  300000                     	org	3145728
  5053  300000  FF                 	db	255
  5054                           
  5055                           ;Config register CONFIG1H @ 0x300001
  5056                           ;	Oscillator Selection bits
  5057                           ;	FOSC = INTIO67, Internal oscillator block
  5058                           ;	4X PLL Enable
  5059                           ;	PLLCFG = OFF, Oscillator used directly
  5060                           ;	Primary clock enable bit
  5061                           ;	PRICLKEN = ON, Primary clock enabled
  5062                           ;	Fail-Safe Clock Monitor Enable bit
  5063                           ;	FCMEN = OFF, Fail-Safe Clock Monitor disabled
  5064                           ;	Internal/External Oscillator Switchover bit
  5065                           ;	IESO = OFF, Oscillator Switchover mode disabled
  5066  300001                     	org	3145729
  5067  300001  28                 	db	40
  5068                           
  5069                           ;Config register CONFIG2L @ 0x300002
  5070                           ;	Power-up Timer Enable bit
  5071                           ;	PWRTEN = OFF, Power up timer disabled
  5072                           ;	Brown-out Reset Enable bits
  5073                           ;	BOREN = OFF, Brown-out Reset disabled in hardware and software
  5074                           ;	Brown Out Reset Voltage bits
  5075                           ;	BORV = 190, VBOR set to 1.90 V nominal
  5076  300002                     	org	3145730
  5077  300002  19                 	db	25
  5078                           
  5079                           ;Config register CONFIG2H @ 0x300003
  5080                           ;	Watchdog Timer Enable bits
  5081                           ;	WDTEN = OFF, Watch dog timer is always disabled. SWDTEN has no effect.
  5082                           ;	Watchdog Timer Postscale Select bits
  5083                           ;	WDTPS = 32768, 1:32768
  5084  300003                     	org	3145731
  5085  300003  3C                 	db	60
  5086                           
  5087                           ; Padding undefined space
  5088  300004                     	org	3145732
  5089  300004  FF                 	db	255
  5090                           
  5091                           ;Config register CONFIG3H @ 0x300005
  5092                           ;	CCP2 MUX bit
  5093                           ;	CCP2MX = PORTC1, CCP2 input/output is multiplexed with RC1
  5094                           ;	PORTB A/D Enable bit
  5095                           ;	PBADEN = OFF, PORTB<5:0> pins are configured as digital I/O on Reset
  5096                           ;	P3A/CCP3 Mux bit
  5097                           ;	CCP3MX = PORTB5, P3A/CCP3 input/output is multiplexed with RB5
  5098                           ;	HFINTOSC Fast Start-up
  5099                           ;	HFOFST = OFF, HFINTOSC output and ready status are delayed by the oscillator stable st
      +                          atus
  5100                           ;	Timer3 Clock input mux bit
  5101                           ;	T3CMX = PORTC0, T3CKI is on RC0
  5102                           ;	ECCP2 B output mux bit
  5103                           ;	P2BMX = PORTB5, P2B is on RB5
  5104                           ;	MCLR Pin Enable bit
  5105                           ;	MCLRE = EXTMCLR, MCLR pin enabled, RE3 input pin disabled
  5106  300005                     	org	3145733
  5107  300005  B5                 	db	181
  5108                           
  5109                           ;Config register CONFIG4L @ 0x300006
  5110                           ;	Stack Full/Underflow Reset Enable bit
  5111                           ;	STVREN = ON, Stack full/underflow will cause Reset
  5112                           ;	Single-Supply ICSP Enable bit
  5113                           ;	LVP = OFF, Single-Supply ICSP disabled
  5114                           ;	Extended Instruction Set Enable bit
  5115                           ;	XINST = OFF, Instruction set extension and Indexed Addressing mode disabled (Legacy mo
      +                          de)
  5116                           ;	Background Debug
  5117                           ;	DEBUG = 0x1, unprogrammed default
  5118  300006                     	org	3145734
  5119  300006  81                 	db	129
  5120                           
  5121                           ; Padding undefined space
  5122  300007                     	org	3145735
  5123  300007  FF                 	db	255
  5124                           
  5125                           ;Config register CONFIG5L @ 0x300008
  5126                           ;	Code Protection Block 0
  5127                           ;	CP0 = OFF, Block 0 (000800-001FFFh) not code-protected
  5128                           ;	Code Protection Block 1
  5129                           ;	CP1 = OFF, Block 1 (002000-003FFFh) not code-protected
  5130                           ;	Code Protection Block 2
  5131                           ;	CP2 = OFF, Block 2 (004000-005FFFh) not code-protected
  5132                           ;	Code Protection Block 3
  5133                           ;	CP3 = OFF, Block 3 (006000-007FFFh) not code-protected
  5134  300008                     	org	3145736
  5135  300008  0F                 	db	15
  5136                           
  5137                           ;Config register CONFIG5H @ 0x300009
  5138                           ;	Boot Block Code Protection bit
  5139                           ;	CPB = OFF, Boot block (000000-0007FFh) not code-protected
  5140                           ;	Data EEPROM Code Protection bit
  5141                           ;	CPD = OFF, Data EEPROM not code-protected
  5142  300009                     	org	3145737
  5143  300009  C0                 	db	192
  5144                           
  5145                           ;Config register CONFIG6L @ 0x30000A
  5146                           ;	Write Protection Block 0
  5147                           ;	WRT0 = OFF, Block 0 (000800-001FFFh) not write-protected
  5148                           ;	Write Protection Block 1
  5149                           ;	WRT1 = OFF, Block 1 (002000-003FFFh) not write-protected
  5150                           ;	Write Protection Block 2
  5151                           ;	WRT2 = OFF, Block 2 (004000-005FFFh) not write-protected
  5152                           ;	Write Protection Block 3
  5153                           ;	WRT3 = OFF, Block 3 (006000-007FFFh) not write-protected
  5154  30000A                     	org	3145738
  5155  30000A  0F                 	db	15
  5156                           
  5157                           ;Config register CONFIG6H @ 0x30000B
  5158                           ;	Configuration Register Write Protection bit
  5159                           ;	WRTC = OFF, Configuration registers (300000-3000FFh) not write-protected
  5160                           ;	Boot Block Write Protection bit
  5161                           ;	WRTB = OFF, Boot Block (000000-0007FFh) not write-protected
  5162                           ;	Data EEPROM Write Protection bit
  5163                           ;	WRTD = OFF, Data EEPROM not write-protected
  5164  30000B                     	org	3145739
  5165  30000B  E0                 	db	224
  5166                           
  5167                           ;Config register CONFIG7L @ 0x30000C
  5168                           ;	Table Read Protection Block 0
  5169                           ;	EBTR0 = OFF, Block 0 (000800-001FFFh) not protected from table reads executed in other
      +                           blocks
  5170                           ;	Table Read Protection Block 1
  5171                           ;	EBTR1 = OFF, Block 1 (002000-003FFFh) not protected from table reads executed in other
      +                           blocks
  5172                           ;	Table Read Protection Block 2
  5173                           ;	EBTR2 = OFF, Block 2 (004000-005FFFh) not protected from table reads executed in other
      +                           blocks
  5174                           ;	Table Read Protection Block 3
  5175                           ;	EBTR3 = OFF, Block 3 (006000-007FFFh) not protected from table reads executed in other
      +                           blocks
  5176  30000C                     	org	3145740
  5177  30000C  0F                 	db	15
  5178                           
  5179                           ;Config register CONFIG7H @ 0x30000D
  5180                           ;	Boot Block Table Read Protection bit
  5181                           ;	EBTRB = OFF, Boot Block (000000-0007FFh) not protected from table reads executed in ot
      +                          her blocks
  5182  30000D                     	org	3145741
  5183  30000D  40                 	db	64
  5184                           tosu	equ	0xFFF
  5185                           tosh	equ	0xFFE
  5186                           tosl	equ	0xFFD
  5187                           stkptr	equ	0xFFC
  5188                           pclatu	equ	0xFFB
  5189                           pclath	equ	0xFFA
  5190                           pcl	equ	0xFF9
  5191                           tblptru	equ	0xFF8
  5192                           tblptrh	equ	0xFF7
  5193                           tblptrl	equ	0xFF6
  5194                           tablat	equ	0xFF5
  5195                           prodh	equ	0xFF4
  5196                           prodl	equ	0xFF3
  5197                           indf0	equ	0xFEF
  5198                           postinc0	equ	0xFEE
  5199                           postdec0	equ	0xFED
  5200                           preinc0	equ	0xFEC
  5201                           plusw0	equ	0xFEB
  5202                           fsr0h	equ	0xFEA
  5203                           fsr0l	equ	0xFE9
  5204                           wreg	equ	0xFE8
  5205                           indf1	equ	0xFE7
  5206                           postinc1	equ	0xFE6
  5207                           postdec1	equ	0xFE5
  5208                           preinc1	equ	0xFE4
  5209                           plusw1	equ	0xFE3
  5210                           fsr1h	equ	0xFE2
  5211                           fsr1l	equ	0xFE1
  5212                           bsr	equ	0xFE0
  5213                           indf2	equ	0xFDF
  5214                           postinc2	equ	0xFDE
  5215                           postdec2	equ	0xFDD
  5216                           preinc2	equ	0xFDC
  5217                           plusw2	equ	0xFDB
  5218                           fsr2h	equ	0xFDA
  5219                           fsr2l	equ	0xFD9
  5220                           status	equ	0xFD8

Data Sizes:
    Strings     65
    Constant    1016
    Data        29
    BSS         51
    Persistent  0
    Stack       0

Auto Spaces:
    Space          Size  Autos    Used
    COMRAM           95     95      95
    BANK0           160     13      93
    BANK1           256      0       0
    BANK2           256      0       0
    BANK3           256      0       0
    BANK4           256      0       0
    BANK5           256      0       0

Pointer List with Targets:

    strlen@s	PTR const unsigned char  size(2) Largest target is 32
		 -> dbuf(BANK0[32]), 

    strlen@a	PTR const unsigned char  size(2) Largest target is 32
		 -> dbuf(BANK0[32]), 

    fputs@s	PTR const unsigned char  size(2) Largest target is 32
		 -> dbuf(BANK0[32]), 

    fputs@fp	PTR struct _IO_FILE size(2) Largest target is 11
		 -> sprintf@f(BANK0[11]), 

    fputc@fp...source	PTR const unsigned char  size(2) Largest target is 0

    fputc@fp...buffer	PTR unsigned char  size(2) Largest target is 0

    fputc@fp	PTR struct _IO_FILE size(2) Largest target is 11
		 -> sprintf@f(BANK0[11]), 

    vfprintf@ap	PTR PTR void  size(2) Largest target is 2
		 -> sprintf@ap(BANK0[2]), 

    vfprintf@fp	PTR struct _IO_FILE size(2) Largest target is 11
		 -> sprintf@f(BANK0[11]), 

    vfprintf@fmt	PTR const unsigned char  size(2) Largest target is 3
		 -> STR_6(CODE[3]), 

    vfprintf@cfmt	PTR unsigned char  size(2) Largest target is 3
		 -> STR_6(CODE[3]), 

    vfpfcnvrt@fp	PTR struct _IO_FILE size(2) Largest target is 11
		 -> sprintf@f(BANK0[11]), 

    vfpfcnvrt@ap	PTR PTR void  size(2) Largest target is 2
		 -> sprintf@ap(BANK0[2]), 

    vfpfcnvrt@fmt	PTR PTR unsigned char  size(2) Largest target is 2
		 -> vfprintf@cfmt(COMRAM[2]), 

    dtoa@fp	PTR struct _IO_FILE size(2) Largest target is 11
		 -> sprintf@f(BANK0[11]), 

    pad@fp	PTR struct _IO_FILE size(2) Largest target is 11
		 -> sprintf@f(BANK0[11]), 

    pad@buf	PTR unsigned char  size(2) Largest target is 32
		 -> dbuf(BANK0[32]), 

    sprintf@fmt	PTR const unsigned char  size(2) Largest target is 3
		 -> STR_6(CODE[3]), 

    sprintf@s	PTR unsigned char  size(2) Largest target is 20
		 -> counterStr(BANK0[20]), 

    sprintf@ap	PTR void [1] size(2) Largest target is 2
		 -> ?_sprintf(COMRAM[2]), 

    S666$source	PTR const unsigned char  size(2) Largest target is 0

    f...source	PTR const unsigned char  size(2) Largest target is 0

    S666$buffer	PTR unsigned char  size(2) Largest target is 0

    f...buffer	PTR unsigned char  size(2) Largest target is 0

    LCDNokia5110_Bitmap@BITMAP	PTR const unsigned char  size(2) Largest target is 32
		 -> carita(CODE[32]), 

    LCDNokia5110_Image@IMAGE	PTR const unsigned char  size(2) Largest target is 504
		 -> EYR_ImageLogo(CODE[504]), 

    LCDNokia5110_putStr@dataStr	PTR unsigned char  size(2) Largest target is 20
		 -> STR_7(CODE[5]), counterStr(BANK0[20]), STR_5(CODE[8]), STR_4(CODE[13]), 
		 -> STR_3(CODE[12]), STR_2(CODE[11]), STR_1(CODE[13]), 

    lcd.PORT	PTR volatile unsigned char  size(2) Largest target is 1
		 -> PORTB(BITBIGSFRll[1]), 

    lcd.TRIS	PTR volatile unsigned char  size(2) Largest target is 1
		 -> TRISB(BITBIGSFRll[1]), 

    Nokia5110.PORT	PTR volatile unsigned char  size(2) Largest target is 1
		 -> PORTB(BITBIGSFRll[1]), 

    Nokia5110.TRIS	PTR volatile unsigned char  size(2) Largest target is 1
		 -> TRISB(BITBIGSFRll[1]), 

    S24$PORT	PTR volatile unsigned char  size(2) Largest target is 1
		 -> PORTB(BITBIGSFRll[1]), 

    miPantalla.PORT	PTR volatile unsigned char  size(2) Largest target is 1
		 -> PORTB(BITBIGSFRll[1]), 

    S24$TRIS	PTR volatile unsigned char  size(2) Largest target is 1
		 -> TRISB(BITBIGSFRll[1]), 

    miPantalla.TRIS	PTR volatile unsigned char  size(2) Largest target is 1
		 -> TRISB(BITBIGSFRll[1]), 


Critical Paths under _main in COMRAM

    _main->_sprintf
    _sprintf->_vfprintf
    _vfprintf->_vfpfcnvrt
    _vfpfcnvrt->_dtoa
    _dtoa->_pad
    _pad->_fputs
    _fputs->_fputc
    _abs->___aomod
    _LCDNokia5110_putStr->_LCDNokia5110_putC
    _LCDNokia5110_putC->_LCDNokia5110_Write
    _LCDNokia5110_Initialize->_LCDNokia5110_Write
    _LCDNokia5110_Image->_LCDNokia5110_GotoXY
    _LCDNokia5110_Clear->_LCDNokia5110_GotoXY
    _LCDNokia5110_Bitmap->_LCDNokia5110_GotoXY
    _LCDNokia5110_GotoXY->_LCDNokia5110_Write
    _LCDNokia5110_Write->_LCDNokia5110_WriteSPI

Critical Paths under _main in BANK0

    _main->_sprintf

Critical Paths under _main in BANK1

    None.

Critical Paths under _main in BANK2

    None.

Critical Paths under _main in BANK3

    None.

Critical Paths under _main in BANK4

    None.

Critical Paths under _main in BANK5

    None.

Call Graph Tables:

 ---------------------------------------------------------------------------------
 (Depth) Function   	        Calls       Base Space   Used Autos Params    Refs
 ---------------------------------------------------------------------------------
 (0) _main                                                 2     2      0   21800
                                             93 COMRAM     2     2      0
                _LCDNokia5110_Bitmap
                 _LCDNokia5110_Clear
                 _LCDNokia5110_Image
            _LCDNokia5110_Initialize
                _LCDNokia5110_putStr
                     _MCU_Initialize
                            _sprintf
 ---------------------------------------------------------------------------------
 (1) _sprintf                                             21    15      6    6456
                                             87 COMRAM     6     0      6
                                              0 BANK0     13    13      0
                           _vfprintf
 ---------------------------------------------------------------------------------
 (2) _vfprintf                                             8     2      6    6105
                                             79 COMRAM     8     2      6
                          _vfpfcnvrt
 ---------------------------------------------------------------------------------
 (3) _vfpfcnvrt                                           42    36      6    5751
                                             63 COMRAM    16    10      6
                               _dtoa
                              _fputc
 ---------------------------------------------------------------------------------
 (4) _dtoa                                                36    26     10    4358
                                             27 COMRAM    36    26     10
                            ___aodiv
                            ___aomod
                                _abs
                                _pad
 ---------------------------------------------------------------------------------
 (5) _pad                                                 11     5      6    2709
                                             16 COMRAM    11     5      6
                              _fputc
                              _fputs
                             _strlen
 ---------------------------------------------------------------------------------
 (6) _strlen                                               4     2      2     166
                                              0 COMRAM     4     2      2
 ---------------------------------------------------------------------------------
 (6) _fputs                                                7     3      4    1235
                                              9 COMRAM     7     3      4
                              _fputc
 ---------------------------------------------------------------------------------
 (4) _fputc                                                9     5      4     834
                                              0 COMRAM     9     5      4
                              _putch
 ---------------------------------------------------------------------------------
 (5) _putch                                                1     1      0       0
 ---------------------------------------------------------------------------------
 (5) _abs                                                  4     2      2     142
                                             18 COMRAM     4     2      2
                            ___aomod (ARG)
 ---------------------------------------------------------------------------------
 (5) ___aomod                                             18     2     16     448
                                              0 COMRAM    18     2     16
 ---------------------------------------------------------------------------------
 (5) ___aodiv                                             26    10     16     452
                                              0 COMRAM    26    10     16
 ---------------------------------------------------------------------------------
 (1) _MCU_Initialize                                       0     0      0       0
 ---------------------------------------------------------------------------------
 (1) _LCDNokia5110_putStr                                  4     0      4    4477
                                             17 COMRAM     4     0      4
                _LCDNokia5110_GotoXY
                  _LCDNokia5110_putC
 ---------------------------------------------------------------------------------
 (2) _LCDNokia5110_putC                                    7     7      0    1267
                                             10 COMRAM     7     7      0
                 _LCDNokia5110_Write
 ---------------------------------------------------------------------------------
 (1) _LCDNokia5110_Initialize                             12     3      9    1275
                                             10 COMRAM    12     3      9
                 _LCDNokia5110_Write
 ---------------------------------------------------------------------------------
 (1) _LCDNokia5110_Image                                   8     4      4    3064
                                             12 COMRAM     8     4      4
                _LCDNokia5110_GotoXY
                 _LCDNokia5110_Write
 ---------------------------------------------------------------------------------
 (1) _LCDNokia5110_Clear                                   2     2      0    2748
                                             12 COMRAM     2     2      0
                _LCDNokia5110_GotoXY
                 _LCDNokia5110_Write
 ---------------------------------------------------------------------------------
 (1) _LCDNokia5110_Bitmap                                 11     5      6    3780
                                             12 COMRAM    11     5      6
                _LCDNokia5110_GotoXY
                 _LCDNokia5110_Write
                            ___awdiv
 ---------------------------------------------------------------------------------
 (2) ___awdiv                                              8     4      4     452
                                              0 COMRAM     8     4      4
 ---------------------------------------------------------------------------------
 (2) _LCDNokia5110_GotoXY                                  2     1      1    1525
                                             10 COMRAM     2     1      1
                 _LCDNokia5110_Write
 ---------------------------------------------------------------------------------
 (3) _LCDNokia5110_Write                                   5     4      1    1177
                                              5 COMRAM     5     4      1
              _LCDNokia5110_WriteSPI
 ---------------------------------------------------------------------------------
 (4) _LCDNokia5110_WriteSPI                                5     5      0      69
                                              0 COMRAM     5     5      0
 ---------------------------------------------------------------------------------
 Estimated maximum stack depth 6
 ---------------------------------------------------------------------------------

 Call Graph Graphs:

 _main (ROOT)
   _LCDNokia5110_Bitmap
     _LCDNokia5110_GotoXY
       _LCDNokia5110_Write
         _LCDNokia5110_WriteSPI
     _LCDNokia5110_Write
     ___awdiv
   _LCDNokia5110_Clear
     _LCDNokia5110_GotoXY
     _LCDNokia5110_Write
   _LCDNokia5110_Image
     _LCDNokia5110_GotoXY
     _LCDNokia5110_Write
   _LCDNokia5110_Initialize
     _LCDNokia5110_Write
   _LCDNokia5110_putStr
     _LCDNokia5110_GotoXY
     _LCDNokia5110_putC
       _LCDNokia5110_Write
   _MCU_Initialize
   _sprintf
     _vfprintf
       _vfpfcnvrt
         _dtoa
           ___aodiv
           ___aomod
           _abs
             ___aomod (ARG)
           _pad
             _fputc
               _putch
             _fputs
               _fputc
             _strlen
         _fputc

 Address spaces:
Name               Size   Autos  Total    Cost      Usage
BIGRAM             5FF      0       0      20        0.0%
EEDATA             100      0       0       0        0.0%
BITBANK5           100      0       0      13        0.0%
BANK5              100      0       0      14        0.0%
BITBANK4           100      0       0      11        0.0%
BANK4              100      0       0      12        0.0%
BITBANK3           100      0       0       9        0.0%
BANK3              100      0       0      10        0.0%
BITBANK2           100      0       0       7        0.0%
BANK2              100      0       0       8        0.0%
BITBANK1           100      0       0       5        0.0%
BANK1              100      0       0       6        0.0%
BITBANK0            A0      0       0       3        0.0%
BANK0               A0      D      5D       4       58.1%
BITCOMRAM           5F      0       0       0        0.0%
COMRAM              5F     5F      5F       1      100.0%
BITBIGSFRll         46      0       0      18        0.0%
BITBIGSFRhl         3F      0       0      16        0.0%
BITBIGSFRhh         2C      0       0      15        0.0%
BITBIGSFRlh         11      0       0      17        0.0%
BIGSFR               0      0       0     200        0.0%
BITSFR_1             0      0       0     200        0.0%
SFR_1                0      0       0     200        0.0%
BITSFR               0      0       0     200        0.0%
SFR                  0      0       0     200        0.0%
STACK                0      0       0       2        0.0%
NULL                 0      0       0       0        0.0%
ABS                  0      0      BC      19        0.0%
DATA                 0      0      BC      21        0.0%
CODE                 0      0       0       0        0.0%


Microchip Technology PIC18 Macro Assembler V2.36 build 20220127204148 
Symbol Table                                                                                   Fri May 01 23:19:29 2026

                             l50 697A                               l70 6E06  
                             l65 772C                               l82 6A42  
                             l90 6CB6                               l76 70EC  
                             l77 7126                               l69 6DB2  
                             l85 695E                               l96 6C36  
                   ___awdiv@sign 0006        ??_LCDNokia5110_Initialize 0014  
          __end_of_EYR_ImageLogo 7DBD                              l101 6B6C  
                            l110 6D4C                              l231 7594  
                            l244 728A                              l348 6ECA  
                            l822 6F12                              l903 69CE  
                            l825 6F54                              l833 7982  
                            l827 6F90                              l835 798A  
                            l860 78E0                              l853 7BC2  
                            l871 6A7A                              l874 6A82  
                            l866 6BC6                              l867 6BCE  
                            l795 6B18                              l886 705A  
                            l894 6AC6                              l897 6942  
                            u810 6FA4                              u811 6FA0  
                            u900 74A0                              u820 6FB6  
                            u901 749C                              u821 6FB2  
                            u910 74CA                              u830 6FDE  
                            u911 74C6                              u831 6FDA  
                            u920 750A                              u840 7014  
                            u921 7506                              u841 7010  
                            u930 7554                              u850 6AC6  
                            u931 7550                              u851 6AC2  
                            u940 713A                              u860 69C2  
                            u941 7136                              u861 69BE  
                            u870 7420                              u950 716C  
                            u871 741C                              u951 7168  
                            u880 7452                              u960 71AA  
                            u881 744E                              u961 71A6  
                            u970 71D4                              u891 747C  
                            u971 71D0                              u980 7202  
                            u981 71FE                              u990 724A  
                            u991 7246                              _abs 6A44  
                            _pad 6ECC                              wreg 000FE8  
                           ?_abs 0013                             l1401 7014  
                           l1411 6AA6                             l1405 6A84  
                           l1413 699A                             l1431 7444  
                           l1423 740E                             l1407 6A90  
                           l1415 69A6                             l1511 6F0A  
                           l1503 6ECC                             l1441 74A0  
                           l1433 7452                             l1425 7412  
                           l1409 6AA2                             l1417 69AA  
                           l1521 6F78                             l1513 6F1E  
                           l1505 6EDC                             l1601 7B76  
                           l1611 6D50                             l1451 750A  
                           l1443 74A8                             l1435 7472  
                           l1427 7420                             l1419 69C2  
                           l1515 6F32                             l1507 6EF0  
                           l1603 7B82                             l1541 70C8  
                           l1613 6D60                             l1701 6E62  
                           l1461 7554                             l1453 752A  
                           l1445 74BC                             l1437 7476  
                           l1429 7440                             l1525 6A44  
                           l1517 6F36                             l1509 6EFE  
                           l1605 7B8A                             l1621 772E  
                           l1543 7110                             l1535 7062  
                           l1615 6D88                             l1711 6E9C  
                           l1703 6E6A                             l1463 7574  
                           l1455 752C                             l1447 74CA  
                           l1439 7482                             l1471 713A  
                           l1527 6A5E                             l1391 6F92  
                           l1519 6F64                             l1607 7B9A  
                           l1551 7902                             l1631 779A  
                           l1623 7752                             l1545 7114  
                           l1537 708C                             l1529 705E  
                           l1617 6DDC                             l1721 6EC2  
                           l1713 6E9E                             l1705 6E78  
                           l1801 6C02                             l1457 753E  
                           l1449 74DC                             l1481 71AA  
                           l1473 715A                             l1393 6FA4  
                           l1561 7976                             l1553 792A  
                           l1641 7862                             l1633 77BE  
                           l1625 7760                             l1547 7116  
                           l1539 709A                             l1619 6DE2  
                           l1715 6EA4                             l1707 6E7E  
                           l1811 6CD4                             l1803 6C06  
                           l1459 7544                             l1491 7222  
                           l1483 71B2                             l1475 715E  
                           l1467 7128                             l1395 6FB6  
                           l1571 79C0                             l1563 7992  
                           l1555 794A                             l1651 789E  
                           l1643 7870                             l1635 7806  
                           l1627 7772                             l1731 6BAA  
                           l1709 6E94                             l1717 6EAA  
                           l1813 6D00                             l1805 6CB8  
                           l1741 75FC                             l1733 6960  
                           l1493 7234                             l1485 71C6  
                           l1477 716C                             l1469 712C  
                           l1397 6FC0                             l1581 7A5C  
                           l1573 79C8                             l1565 79A4  
                           l1557 795A                             l1549 78E2  
                           l1645 7884                             l1629 7776  
                           l1725 6B6E                             l1821 6AC8  
                           l1663 6946                             l1719 6EBA  
                           l1815 6D02                             l1807 6CC0  
                           l1751 76C8                             l1743 7626  
                           l1735 7596                             l1487 71D4  
                           l1495 723A                             l1479 718C  
                           l1399 6FDE                             l1591 7B2C  
                           l1575 79CE                             l1583 7AC0  
                           l1567 79B2                             l1559 795C  
                           l1639 783E                             l1655 78AA  
                           l1727 6B76                             l1823 6ADA  
                           l1681 6E08                             l1817 6D14  
                           l1809 6CCC                             l1761 7704  
                           l1753 76CA                             l1745 7650  
                           l1737 75A8                             l1673 6C4C  
                           l1665 6C3A                             l1497 724A  
                           l1489 7202                             l1585 7ADA  
                           l1593 7B3C                             l1577 7A50  
                           l1569 79B8                             l1657 78CE  
                           l1649 7890                             l1729 6B84  
                           l1825 6AE2                             l1841 72BA  
                           l1833 728C                             l1691 6E34  
                           l1683 6E0C                             l1819 6D16  
                           l1763 770E                             l1755 76CC  
                           l1747 767A                             l1739 75D2  
                           l1675 6C8C                             l1667 6C44  
                           l1499 726A                             l1595 7B4E  
                           l1587 7AF8                             l1579 7A56  
                           l1827 6AEA                             l1851 7312  
                           l1843 72CE                             l1835 7290  
                           l1693 6E3C                             l1685 6E1A  
                           l1781 6A38                             l1765 7718  
                           l1757 76F0                             l1749 769E  
                           l1677 6C90                             l1597 7B5E  
                           l1589 7B12                             l1829 6B06  
                           l1861 7372                             l1853 7326  
                           l1845 72E6                             l1837 72A6  
                           l1695 6E40                             l1687 6E22  
                           l1775 6A0E                             l1791 6B2C  
                           l1783 6B1A                             l1767 7722  
                           l1759 76FA                             l1679 6CAC  
                           l1599 7B64                             l1871 73C6  
                           l1863 7378                             l1855 733A  
                           l1847 72EA                             l1839 72AA  
                           l1697 6E48                             l1689 6E26  
                           l1777 6A18                             l1769 6A06  
                           l1793 6B4C                             l1785 6B24  
                           l1873 73DA                             l1865 738E  
                           l1857 7352                             l1849 72FE  
                           l1699 6E5A                             l1779 6A1C  
                           l1795 6B50                             l1875 73EE  
                           l1867 7396                             l1859 7356  
                           l1797 6BD0                             l1869 73AA  
                           ?_pad 0011                             l1799 6BDE  
                           STR_1 7FCA                             STR_2 7FE3  
                           STR_3 7FD7                             STR_4 7FBD  
                           STR_5 7FEE                             STR_6 7FFB  
                           STR_7 7FF6                             u1000 6EDC  
                           u1001 6ED8                             u1010 6EFE  
                           u1011 6EFA                             u1100 7126  
                           u1020 6F54                             u1101 7122  
                           u1021 6F50                             u1030 6F64  
                           u1110 7912                             u1031 6F60  
                           u1111 790C                             u1040 6A5E  
                           u1200 7B12                             u1120 7914  
                           u1041 6A5A                             u1201 7B0E  
                           u1210 7B2C                             u1130 792A  
                           u1211 7B28                             u1131 7926  
                           u1060 709A                             u1220 7B3C  
                           u1140 795A                             u1061 7096  
                           u1221 7B38                             u1141 7956  
                           u1054 7074                             u1230 7B4E  
                           u1150 7976                             u1310 7752  
                           u1055 7070                             u1231 7B4A  
                           u1151 7972                             u1311 774E  
                           u1304 6DF4                             u1400 6E94  
                           u1240 7B5E                             u1160 79A4  
                           u1320 779A                             u1305 6DF0  
                           u1401 6E90                             u1241 7B5A  
                           u1161 79A0                             u1321 7796  
                           u1074 70AC                             u1410 6EBA  
                           u1250 7B76                             u1170 79B2  
                           u1330 77BE                             u1075 70A8  
                           u1411 6EB6                             u1251 7B72  
                           u1171 79AE                             u1331 77BA  
                           u1084 70DA                             u1260 6D60  
                           u1180 7ADA                             u1340 7862  
                           u1420 6BC6                             u1085 70D6  
                           u1261 6D5C                             u1181 7AD6  
                           u1341 785E                             u1421 6BC2  
                           u1094 70FE                             u1350 6CAC  
                           u1190 7AF8                             u1095 70FA  
                           u1431 75A0                             u1351 6CA8  
                           u1191 7AF4                             u1360 6E1A  
                           u1520 6A38                             u1504 76B0  
                           u1600 738E                             u1361 6E16  
                           u1521 6A34                             u1505 76AC  
                           u1601 738A                             u1274 6D72  
                           u1370 6E34                             u1530 6B6C  
                           u1514 76DE                             u1275 6D6E  
                           u1371 6E30                             u1531 6B68  
                           u1515 76DA                             u1284 6D9A  
                           u1380 6E5A                             u1444 75BA  
                           u1540 6BFE                             u1285 6D96  
                           u1381 6E56                             u1445 75B6  
                           u1294 6DC4                             u1390 6E78  
                           u1454 75E4                             u1550 6C26  
                           u1295 6DC0                             u1391 6E74  
                           u1455 75E0                             u1464 760E  
                           u1560 6C36                             u1465 760A  
                           u1561 6C32                             u1617 72B0  
                           u1570 6D14                             u1474 7638  
                           u1571 6D10                             u1475 7634  
                           u1547 6BF4                             u1627 72D8  
                           u1580 6D4C                             u1484 7662  
                           u1581 6D48                             u1485 765E  
                           u1557 6C1C                             u1637 7344  
                           u1494 768C                             u1495 7688  
                           u1647 73F8                             u1591 729A  
                           abs@a 0013                             _dbuf 0073  
                           _main 728C                             _dtoa 78E2  
                           _prec 006D                             _nout 0069  
                           pad@i 0018                             pad@p 0015  
                           fsr0h 000FEA                             fsr1h 000FE2  
                           indf0 000FEF                             fsr2h 000FDA  
                           fsr0l 000FE9                             indf2 000FDF  
                           fsr1l 000FE1                             pad@w 001A  
                           fsr2l 000FD9                             prodh 000FF4  
                           prodl 000FF3                             start 0000  
                   ___param_bank 000000                            ??_abs 0015  
                          ??_pad 0017                  __end_of___aodiv 7596  
                          ?_main 0001                            ?_dtoa 001C  
                __end_of___aomod 728C                  __end_of___awdiv 6ECC  
                ___awdiv@divisor 0003                  ___awdiv@counter 0005  
                   vfpfcnvrt@fmt 0042                            _PORTB 000F81  
                          _TRISB 000F93                 ??_MCU_Initialize 0001  
                          _flags 006F                            _fputc 6F92  
                          _fputs 6A84                            pad@fp 0011  
                          _width 006B                            _putch 6942  
                          dtoa@d 001E                            dtoa@i 003E  
                          dtoa@n 0036                            dtoa@p 0030  
                          dtoa@s 0034                            dtoa@w 0032  
                          tablat 000FF5                            plusw0 000FEB  
                          plusw1 000FE3                            plusw2 000FDB  
                          status 000FD8                  __end_of_sprintf 6B1A  
                __initialization 69D0                     __end_of_main 740E  
                   __end_of_dtoa 7BC4                           ??_main 005E  
                         ??_dtoa 0026                    __activetblptr 000002  
        LCDNokia5110_Clear@index 000D                           ?_fputc 0001  
                         ?_fputs 000A                 ___awdiv@dividend 0001  
                         _ANSELA 000F38                           ?_putch 0001  
                         _ANSELB 000F39                           _ANSELC 000F3A  
   LCDNokia5110_WriteSPI@outData 0004                     vfprintf@cfmt 0056  
                      ??___aodiv 0011                        ??___aomod 0011  
                      ??___awdiv 0005                           _carita 7F9D  
                         clear_0 69F6                 ___awdiv@quotient 0007  
                         isa$std 000001                           pad@buf 0013  
                         dtoa@fp 001C                           _strlen 699A  
                         fputc@c 0001                           fputs@c 000E  
                         fputs@i 000F                           fputs@s 000A  
                   __mediumconst 7BC4                           tblptrh 000FF7  
                         tblptrl 000FF6                           tblptru 000FF8  
        LCDNokia5110_Image@IMAGE 000D                           putch@c 0001  
               __end_of_vfprintf 6BD0                        ??_sprintf 005E  
                     __accesstop 0060          __end_of__initialization 69FC  
        LCDNokia5110_Image@index 0013            _LCDNokia5110_WriteSPI 705C  
                  ___rparam_used 000001                   __pcstackCOMRAM 0001  
                   __pidataBANK0 697D               _LCDNokia5110_Clear 6A06  
             _LCDNokia5110_Image 6B1A                    __end_of_fputc 705C  
                  __end_of_fputs 6AC8                    __end_of_putch 6944  
             _LCDNokia5110_Write 6D4E              ?_LCDNokia5110_Clear 0001  
            ?_LCDNokia5110_Image 000D           LCDNokia5110_WriteSPI@i 0005  
         LCDNokia5110_Write@data 0006           LCDNokia5110_Write@mode 000A  
            ?_LCDNokia5110_Write 0006                          ??_fputc 0005  
                        ??_fputs 000E                          ??_putch 0001  
                     __pbssBANK0 0060             ??_LCDNokia5110_Clear 000D  
           ??_LCDNokia5110_Image 0011             ??_LCDNokia5110_Write 0007  
                        ?_strlen 0001                       _miPantalla 0093  
      LCDNokia5110_Bitmap@BITMAP 000D           ?_LCDNokia5110_WriteSPI 0001  
            LCDNokia5110_Image@x 000F              LCDNokia5110_Image@y 0010  
                     _counterStr 009C                          __Hparam 0000  
                        __Lparam 0000         ?_LCDNokia5110_Initialize 000B  
      LCDNokia5110_Bitmap@height 0012                          ___aodiv 740E  
                        ___aomod 7128                          ___awdiv 6E08  
                      ?_vfprintf 0050         LCDNokia5110_Bitmap@width 0011  
                        __pcinit 69D0                          __ramtop 0600  
                        __ptext0 728C                          __ptext1 6AC8  
                        __ptext2 6B6E                          __ptext3 772E  
                        __ptext4 78E2                          __ptext5 6ECC  
                        __ptext6 699A                          __ptext7 6A84  
                        __ptext8 6F92                          __ptext9 6942  
                        _counter 0071                          _sprintf 6AC8  
           end_of_initialization 69FC                          fputc@fp 0003  
                  __Lmediumconst 7BC4                          fputs@fp 000C  
              __end_of_vfpfcnvrt 78E2                          postdec1 000FE5  
                        postdec2 000FDD                          postinc0 000FEE  
                        postinc1 000FE6                          postinc2 000FDE  
                     ??_vfprintf 0056                          strlen@a 0003  
                        strlen@s 0001           LCDNokia5110_putC@index 0010  
                  _EYR_ImageLogo 7BC5  __end_of_LCDNokia5110_Initialize 772E  
                    vfpfcnvrt@ap 0044                      vfpfcnvrt@fp 0040  
                    vfpfcnvrt@ll 0048                   __end_of_carita 7FBD  
            _LCDNokia5110_Bitmap 6CB8              _LCDNokia5110_GotoXY 6944  
                 __end_of_strlen 69D0              start_initialization 69D0  
                    __end_of_abs 6A84                      __end_of_pad 6F92  
     LCDNokia5110_putStr@dataStr 0012                        _Nokia5110 0060  
            _LCDNokia5110_putStr 6BD0             ?_LCDNokia5110_Bitmap 000D  
           ?_LCDNokia5110_GotoXY 000B                      vfprintf@fmt 0052  
           ?_LCDNokia5110_putStr 0012                      __pdataBANK0 0093  
                       ??_strlen 0003                    __pcstackBANK0 00B0  
               ___aodiv@dividend 0001          ??_LCDNokia5110_WriteSPI 0001  
            __end_of_FONT_NORMAL 7F9D                _LCDNokia5110_putC 6C38  
          ??_LCDNokia5110_Bitmap 0013            ??_LCDNokia5110_GotoXY 000C  
             ?_LCDNokia5110_putC 0001              ??_LCDNokia5110_putC 000B  
                  __pmediumconst 7BC4                         ?___aodiv 0001  
                       ?___aomod 0001                         ?___awdiv 0001  
               ___aodiv@quotient 0013            ??_LCDNokia5110_putStr 0016  
      __end_of_LCDNokia5110_putC 6CB8                         ?_sprintf 0058  
                 _MCU_Initialize 6960            LCDNokia5110_putC@data 000F  
                      _vfpfcnvrt 772E                      _FONT_NORMAL 7DBD  
           LCDNokia5110_Bitmap@i 0016             LCDNokia5110_Bitmap@p 0017  
                      copy_data0 69E4             LCDNokia5110_Bitmap@x 000F  
           LCDNokia5110_Bitmap@y 0010           __end_of_MCU_Initialize 697C  
           LCDNokia5110_GotoXY@x 000C             LCDNokia5110_GotoXY@y 000B  
                       __Hrparam 0000                       vfprintf@ap 0054  
                       __Lrparam 0000                       vfprintf@fp 0050  
                     ?_vfpfcnvrt 0040                  ___aodiv@divisor 0009  
                ___aodiv@counter 0011                       sprintf@fmt 005A  
                       _dtoa$748 002E                         __ptext10 6A44  
                       __ptext11 7128                         __ptext20 6E08  
                       __ptext12 740E                         __ptext21 6944  
                       __ptext13 6960                         __ptext22 6D4E  
                       __ptext14 6BD0                         __ptext23 705C  
                       __ptext15 6C38                         __ptext16 7596  
                       __ptext17 6B1A                         __ptext18 6A06  
                       __ptext19 6CB8                  ?_MCU_Initialize 0001  
                       isa$xinst 000000                         _vfprintf 6B6E  
           LCDNokia5110_putStr@x 0014             LCDNokia5110_putStr@y 0015  
               ___aomod@dividend 0001          _LCDNokia5110_Initialize 7596  
  __end_of_LCDNokia5110_WriteSPI 7128                        sprintf@ap 00B0  
                     _OSCCONbits 000FD3       LCDNokia5110_Initialize@lcd 000B  
                ___aomod@divisor 0009                      ??_vfpfcnvrt 0046  
                ___aomod@counter 0011                         sprintf@f 00B2  
                       sprintf@s 0058      __end_of_LCDNokia5110_Bitmap 6D4E  
    __end_of_LCDNokia5110_GotoXY 6960                     ___aodiv@sign 0012  
     __end_of_LCDNokia5110_Clear 6A44       __end_of_LCDNokia5110_Image 6B6E  
     __end_of_LCDNokia5110_Write 6E08      __end_of_LCDNokia5110_putStr 6C38  
                   ___aomod@sign 0012  
